Archive member included because of file (symbol)

c:/devkitPro/libnds/lib\libfat.a(libfat.o)
                              main.o (fatInitDefault)
c:/devkitPro/libnds/lib\libfat.a(partition.o)
                              c:/devkitPro/libnds/lib\libfat.a(libfat.o) (_FAT_partition_constructor)
c:/devkitPro/libnds/lib\libfat.a(cache.o)
                              c:/devkitPro/libnds/lib\libfat.a(partition.o) (_FAT_cache_constructor)
c:/devkitPro/libnds/lib\libfat.a(directory.o)
                              c:/devkitPro/libnds/lib\libfat.a(libfat.o) (_FAT_directory_getVolumeLabel)
c:/devkitPro/libnds/lib\libfat.a(disc.o)
                              c:/devkitPro/libnds/lib\libfat.a(libfat.o) (_FAT_disc_interfaces)
c:/devkitPro/libnds/lib\libfat.a(fatdir.o)
                              c:/devkitPro/libnds/lib\libfat.a(libfat.o) (_FAT_stat_r)
c:/devkitPro/libnds/lib\libfat.a(fatfile.o)
                              c:/devkitPro/libnds/lib\libfat.a(libfat.o) (_FAT_open_r)
c:/devkitPro/libnds/lib\libfat.a(file_allocation_table.o)
                              c:/devkitPro/libnds/lib\libfat.a(directory.o) (_FAT_fat_nextCluster)
c:/devkitPro/libnds/lib\libfat.a(filetime.o)
                              c:/devkitPro/libnds/lib\libfat.a(fatdir.o) (_FAT_filetime_getTimeFromRTC)
c:/devkitPro/libnds/lib\libfat.a(lock.o)
                              c:/devkitPro/libnds/lib\libfat.a(partition.o) (_FAT_lock_init)
c:/devkitpro/devkitarm/bin/../lib/gcc/arm-eabi/4.7.0/../../../../arm-eabi/lib/thumb\libstdc++.a(new_op.o)
                              file_browse.o (_Znwj)
c:/devkitpro/devkitarm/bin/../lib/gcc/arm-eabi/4.7.0/../../../../arm-eabi/lib/thumb\libstdc++.a(eh_call.o)
                              c:/devkitpro/devkitarm/bin/../lib/gcc/arm-eabi/4.7.0/../../../../arm-eabi/lib/thumb\libstdc++.a(new_op.o) (__cxa_call_unexpected)
c:/devkitpro/devkitarm/bin/../lib/gcc/arm-eabi/4.7.0/../../../../arm-eabi/lib/thumb\libstdc++.a(eh_personality.o)
                              c:/devkitpro/devkitarm/bin/../lib/gcc/arm-eabi/4.7.0/../../../../arm-eabi/lib/thumb\libstdc++.a(new_op.o) (__gxx_personality_v0)
c:/devkitpro/devkitarm/bin/../lib/gcc/arm-eabi/4.7.0/../../../../arm-eabi/lib/thumb\libstdc++.a(del_op.o)
                              file_browse.o (_ZdlPv)
c:/devkitpro/devkitarm/bin/../lib/gcc/arm-eabi/4.7.0/../../../../arm-eabi/lib/thumb\libstdc++.a(eh_terminate.o)
                              c:/devkitpro/devkitarm/bin/../lib/gcc/arm-eabi/4.7.0/../../../../arm-eabi/lib/thumb\libstdc++.a(eh_call.o) (_ZN10__cxxabiv111__terminateEPFvvE)
c:/devkitpro/devkitarm/bin/../lib/gcc/arm-eabi/4.7.0/../../../../arm-eabi/lib/thumb\libstdc++.a(eh_exception.o)
                              c:/devkitpro/devkitarm/bin/../lib/gcc/arm-eabi/4.7.0/../../../../arm-eabi/lib/thumb\libstdc++.a(eh_call.o) (_ZNSt13bad_exceptionD1Ev)
c:/devkitpro/devkitarm/bin/../lib/gcc/arm-eabi/4.7.0/../../../../arm-eabi/lib/thumb\libstdc++.a(eh_alloc.o)
                              c:/devkitpro/devkitarm/bin/../lib/gcc/arm-eabi/4.7.0/../../../../arm-eabi/lib/thumb\libstdc++.a(new_op.o) (__cxa_allocate_exception)
c:/devkitpro/devkitarm/bin/../lib/gcc/arm-eabi/4.7.0/../../../../arm-eabi/lib/thumb\libstdc++.a(bad_alloc.o)
                              c:/devkitpro/devkitarm/bin/../lib/gcc/arm-eabi/4.7.0/../../../../arm-eabi/lib/thumb\libstdc++.a(new_op.o) (_ZNSt9bad_allocD1Ev)
c:/devkitpro/devkitarm/bin/../lib/gcc/arm-eabi/4.7.0/../../../../arm-eabi/lib/thumb\libstdc++.a(class_type_info.o)
                              c:/devkitpro/devkitarm/bin/../lib/gcc/arm-eabi/4.7.0/../../../../arm-eabi/lib/thumb\libstdc++.a(eh_exception.o) (_ZTVN10__cxxabiv117__class_type_infoE)
c:/devkitpro/devkitarm/bin/../lib/gcc/arm-eabi/4.7.0/../../../../arm-eabi/lib/thumb\libstdc++.a(new_handler.o)
                              c:/devkitpro/devkitarm/bin/../lib/gcc/arm-eabi/4.7.0/../../../../arm-eabi/lib/thumb\libstdc++.a(new_op.o) (__new_handler)
c:/devkitpro/devkitarm/bin/../lib/gcc/arm-eabi/4.7.0/../../../../arm-eabi/lib/thumb\libstdc++.a(string-inst.o)
                              file_browse.o (_ZNSs4_Rep20_S_empty_rep_storageE)
c:/devkitpro/devkitarm/bin/../lib/gcc/arm-eabi/4.7.0/../../../../arm-eabi/lib/thumb\libstdc++.a(functexcept.o)
                              c:/devkitpro/devkitarm/bin/../lib/gcc/arm-eabi/4.7.0/../../../../arm-eabi/lib/thumb\libstdc++.a(string-inst.o) (_ZSt19__throw_logic_errorPKc)
c:/devkitpro/devkitarm/bin/../lib/gcc/arm-eabi/4.7.0/../../../../arm-eabi/lib/thumb\libstdc++.a(eh_arm.o)
                              c:/devkitpro/devkitarm/bin/../lib/gcc/arm-eabi/4.7.0/../../../../arm-eabi/lib/thumb\libstdc++.a(new_op.o) (__cxa_end_cleanup)
c:/devkitpro/devkitarm/bin/../lib/gcc/arm-eabi/4.7.0/../../../../arm-eabi/lib/thumb\libstdc++.a(eh_throw.o)
                              c:/devkitpro/devkitarm/bin/../lib/gcc/arm-eabi/4.7.0/../../../../arm-eabi/lib/thumb\libstdc++.a(new_op.o) (__cxa_throw)
c:/devkitpro/devkitarm/bin/../lib/gcc/arm-eabi/4.7.0/../../../../arm-eabi/lib/thumb\libstdc++.a(pure.o)
                              c:/devkitpro/devkitarm/bin/../lib/gcc/arm-eabi/4.7.0/../../../../arm-eabi/lib/thumb\libstdc++.a(eh_exception.o) (__cxa_pure_virtual)
c:/devkitpro/devkitarm/bin/../lib/gcc/arm-eabi/4.7.0/../../../../arm-eabi/lib/thumb\libstdc++.a(bad_cast.o)
                              c:/devkitpro/devkitarm/bin/../lib/gcc/arm-eabi/4.7.0/../../../../arm-eabi/lib/thumb\libstdc++.a(functexcept.o) (_ZNSt8bad_castD1Ev)
c:/devkitpro/devkitarm/bin/../lib/gcc/arm-eabi/4.7.0/../../../../arm-eabi/lib/thumb\libstdc++.a(eh_globals.o)
                              c:/devkitpro/devkitarm/bin/../lib/gcc/arm-eabi/4.7.0/../../../../arm-eabi/lib/thumb\libstdc++.a(eh_call.o) (__cxa_get_globals_fast)
c:/devkitpro/devkitarm/bin/../lib/gcc/arm-eabi/4.7.0/../../../../arm-eabi/lib/thumb\libstdc++.a(eh_catch.o)
                              c:/devkitpro/devkitarm/bin/../lib/gcc/arm-eabi/4.7.0/../../../../arm-eabi/lib/thumb\libstdc++.a(eh_call.o) (__cxa_begin_catch)
c:/devkitpro/devkitarm/bin/../lib/gcc/arm-eabi/4.7.0/../../../../arm-eabi/lib/thumb\libstdc++.a(si_class_type_info.o)
                              c:/devkitpro/devkitarm/bin/../lib/gcc/arm-eabi/4.7.0/../../../../arm-eabi/lib/thumb\libstdc++.a(eh_exception.o) (_ZTVN10__cxxabiv120__si_class_type_infoE)
c:/devkitpro/devkitarm/bin/../lib/gcc/arm-eabi/4.7.0/../../../../arm-eabi/lib/thumb\libstdc++.a(eh_unex_handler.o)
                              c:/devkitpro/devkitarm/bin/../lib/gcc/arm-eabi/4.7.0/../../../../arm-eabi/lib/thumb\libstdc++.a(eh_terminate.o) (_ZN10__cxxabiv120__unexpected_handlerE)
c:/devkitpro/devkitarm/bin/../lib/gcc/arm-eabi/4.7.0/../../../../arm-eabi/lib/thumb\libstdc++.a(tinfo.o)
                              c:/devkitpro/devkitarm/bin/../lib/gcc/arm-eabi/4.7.0/../../../../arm-eabi/lib/thumb\libstdc++.a(class_type_info.o) (_ZNSt9type_infoD2Ev)
c:/devkitpro/devkitarm/bin/../lib/gcc/arm-eabi/4.7.0/../../../../arm-eabi/lib/thumb\libstdc++.a(bad_typeid.o)
                              c:/devkitpro/devkitarm/bin/../lib/gcc/arm-eabi/4.7.0/../../../../arm-eabi/lib/thumb\libstdc++.a(functexcept.o) (_ZNSt10bad_typeidD1Ev)
c:/devkitpro/devkitarm/bin/../lib/gcc/arm-eabi/4.7.0/../../../../arm-eabi/lib/thumb\libstdc++.a(eh_term_handler.o)
                              c:/devkitpro/devkitarm/bin/../lib/gcc/arm-eabi/4.7.0/../../../../arm-eabi/lib/thumb\libstdc++.a(eh_terminate.o) (_ZN10__cxxabiv119__terminate_handlerE)
c:/devkitpro/devkitarm/bin/../lib/gcc/arm-eabi/4.7.0/../../../../arm-eabi/lib/thumb\libstdc++.a(ios_failure.o)
                              c:/devkitpro/devkitarm/bin/../lib/gcc/arm-eabi/4.7.0/../../../../arm-eabi/lib/thumb\libstdc++.a(functexcept.o) (_ZNSt8ios_base7failureD1Ev)
c:/devkitpro/devkitarm/bin/../lib/gcc/arm-eabi/4.7.0/../../../../arm-eabi/lib/thumb\libstdc++.a(stdexcept.o)
                              c:/devkitpro/devkitarm/bin/../lib/gcc/arm-eabi/4.7.0/../../../../arm-eabi/lib/thumb\libstdc++.a(functexcept.o) (_ZNSt11logic_errorD1Ev)
c:/devkitpro/devkitarm/bin/../lib/gcc/arm-eabi/4.7.0/../../../../arm-eabi/lib/thumb\libstdc++.a(functional.o)
                              c:/devkitpro/devkitarm/bin/../lib/gcc/arm-eabi/4.7.0/../../../../arm-eabi/lib/thumb\libstdc++.a(functexcept.o) (_ZNSt17bad_function_callD1Ev)
c:/devkitpro/devkitarm/bin/../lib/gcc/arm-eabi/4.7.0/../../../../arm-eabi/lib/thumb\libstdc++.a(future.o)
                              c:/devkitpro/devkitarm/bin/../lib/gcc/arm-eabi/4.7.0/../../../../arm-eabi/lib/thumb\libstdc++.a(functexcept.o) (_ZNSt12future_errorD1Ev)
c:/devkitpro/devkitarm/bin/../lib/gcc/arm-eabi/4.7.0/../../../../arm-eabi/lib/thumb\libstdc++.a(regex.o)
                              c:/devkitpro/devkitarm/bin/../lib/gcc/arm-eabi/4.7.0/../../../../arm-eabi/lib/thumb\libstdc++.a(functexcept.o) (_ZNSt11regex_errorD1Ev)
c:/devkitpro/devkitarm/bin/../lib/gcc/arm-eabi/4.7.0/../../../../arm-eabi/lib/thumb\libstdc++.a(system_error.o)
                              c:/devkitpro/devkitarm/bin/../lib/gcc/arm-eabi/4.7.0/../../../../arm-eabi/lib/thumb\libstdc++.a(future.o) (_ZNSt14error_categoryD2Ev)
c:/devkitpro/devkitarm/bin/../lib/gcc/arm-eabi/4.7.0/../../../../arm-eabi/lib/thumb\libstdc++.a(guard.o)
                              c:/devkitpro/devkitarm/bin/../lib/gcc/arm-eabi/4.7.0/../../../../arm-eabi/lib/thumb\libstdc++.a(future.o) (__cxa_guard_acquire)
c:/devkitpro/devkitarm/bin/../lib/gcc/arm-eabi/4.7.0/../../../../arm-eabi/lib/thumb\libstdc++.a(vterminate.o)
                              c:/devkitpro/devkitarm/bin/../lib/gcc/arm-eabi/4.7.0/../../../../arm-eabi/lib/thumb\libstdc++.a(eh_term_handler.o) (_ZN9__gnu_cxx27__verbose_terminate_handlerEv)
c:/devkitpro/devkitarm/bin/../lib/gcc/arm-eabi/4.7.0/../../../../arm-eabi/lib/thumb\libstdc++.a(guard_error.o)
                              c:/devkitpro/devkitarm/bin/../lib/gcc/arm-eabi/4.7.0/../../../../arm-eabi/lib/thumb\libstdc++.a(guard.o) (_ZN9__gnu_cxx20recursive_init_errorD1Ev)
c:/devkitpro/devkitarm/bin/../lib/gcc/arm-eabi/4.7.0/../../../../arm-eabi/lib/thumb\libstdc++.a(atexit_arm.o)
                              c:/devkitpro/devkitarm/bin/../lib/gcc/arm-eabi/4.7.0/../../../../arm-eabi/lib/thumb\libstdc++.a(future.o) (__aeabi_atexit)
c:/devkitpro/devkitarm/bin/../lib/gcc/arm-eabi/4.7.0/../../../../arm-eabi/lib/thumb\libstdc++.a(eh_type.o)
                              c:/devkitpro/devkitarm/bin/../lib/gcc/arm-eabi/4.7.0/../../../../arm-eabi/lib/thumb\libstdc++.a(vterminate.o) (__cxa_current_exception_type)
c:/devkitpro/devkitarm/bin/../lib/gcc/arm-eabi/4.7.0/../../../../arm-eabi/lib/thumb\libstdc++.a(cp-demangle.o)
                              c:/devkitpro/devkitarm/bin/../lib/gcc/arm-eabi/4.7.0/../../../../arm-eabi/lib/thumb\libstdc++.a(vterminate.o) (__cxa_demangle)
c:/devkitpro/devkitarm/bin/../lib/gcc/arm-eabi/4.7.0/../../../../arm-eabi/lib/thumb\libm.a(lib_a-w_pow.o)
                              bios.o (pow)
c:/devkitpro/devkitarm/bin/../lib/gcc/arm-eabi/4.7.0/../../../../arm-eabi/lib/thumb\libm.a(lib_a-w_sqrt.o)
                              bios.o (sqrt)
c:/devkitpro/devkitarm/bin/../lib/gcc/arm-eabi/4.7.0/../../../../arm-eabi/lib/thumb\libm.a(lib_a-e_pow.o)
                              c:/devkitpro/devkitarm/bin/../lib/gcc/arm-eabi/4.7.0/../../../../arm-eabi/lib/thumb\libm.a(lib_a-w_pow.o) (__ieee754_pow)
c:/devkitpro/devkitarm/bin/../lib/gcc/arm-eabi/4.7.0/../../../../arm-eabi/lib/thumb\libm.a(lib_a-e_sqrt.o)
                              c:/devkitpro/devkitarm/bin/../lib/gcc/arm-eabi/4.7.0/../../../../arm-eabi/lib/thumb\libm.a(lib_a-w_sqrt.o) (__ieee754_sqrt)
c:/devkitpro/devkitarm/bin/../lib/gcc/arm-eabi/4.7.0/../../../../arm-eabi/lib/thumb\libm.a(lib_a-s_fabs.o)
                              c:/devkitpro/devkitarm/bin/../lib/gcc/arm-eabi/4.7.0/../../../../arm-eabi/lib/thumb\libm.a(lib_a-e_pow.o) (fabs)
c:/devkitpro/devkitarm/bin/../lib/gcc/arm-eabi/4.7.0/../../../../arm-eabi/lib/thumb\libm.a(lib_a-s_finite.o)
                              c:/devkitpro/devkitarm/bin/../lib/gcc/arm-eabi/4.7.0/../../../../arm-eabi/lib/thumb\libm.a(lib_a-w_pow.o) (finite)
c:/devkitpro/devkitarm/bin/../lib/gcc/arm-eabi/4.7.0/../../../../arm-eabi/lib/thumb\libm.a(lib_a-s_fpclassify.o)
                              c:/devkitpro/devkitarm/bin/../lib/gcc/arm-eabi/4.7.0/../../../../arm-eabi/lib/thumb\libm.a(lib_a-w_pow.o) (__fpclassifyd)
c:/devkitpro/devkitarm/bin/../lib/gcc/arm-eabi/4.7.0/../../../../arm-eabi/lib/thumb\libm.a(lib_a-s_lib_ver.o)
                              c:/devkitpro/devkitarm/bin/../lib/gcc/arm-eabi/4.7.0/../../../../arm-eabi/lib/thumb\libm.a(lib_a-w_pow.o) (__fdlib_version)
c:/devkitpro/devkitarm/bin/../lib/gcc/arm-eabi/4.7.0/../../../../arm-eabi/lib/thumb\libm.a(lib_a-s_matherr.o)
                              c:/devkitpro/devkitarm/bin/../lib/gcc/arm-eabi/4.7.0/../../../../arm-eabi/lib/thumb\libm.a(lib_a-w_pow.o) (matherr)
c:/devkitpro/devkitarm/bin/../lib/gcc/arm-eabi/4.7.0/../../../../arm-eabi/lib/thumb\libm.a(lib_a-s_nan.o)
                              c:/devkitpro/devkitarm/bin/../lib/gcc/arm-eabi/4.7.0/../../../../arm-eabi/lib/thumb\libm.a(lib_a-e_pow.o) (nan)
c:/devkitpro/devkitarm/bin/../lib/gcc/arm-eabi/4.7.0/../../../../arm-eabi/lib/thumb\libm.a(lib_a-s_rint.o)
                              c:/devkitpro/devkitarm/bin/../lib/gcc/arm-eabi/4.7.0/../../../../arm-eabi/lib/thumb\libm.a(lib_a-w_pow.o) (rint)
c:/devkitpro/devkitarm/bin/../lib/gcc/arm-eabi/4.7.0/../../../../arm-eabi/lib/thumb\libm.a(lib_a-s_scalbn.o)
                              c:/devkitpro/devkitarm/bin/../lib/gcc/arm-eabi/4.7.0/../../../../arm-eabi/lib/thumb\libm.a(lib_a-e_pow.o) (scalbn)
c:/devkitpro/devkitarm/bin/../lib/gcc/arm-eabi/4.7.0/../../../../arm-eabi/lib/thumb\libm.a(lib_a-s_copysign.o)
                              c:/devkitpro/devkitarm/bin/../lib/gcc/arm-eabi/4.7.0/../../../../arm-eabi/lib/thumb\libm.a(lib_a-s_scalbn.o) (copysign)
c:/devkitpro/devkitarm/bin/../lib/gcc/arm-eabi/4.7.0/thumb\libgcc.a(_udivsi3.o)
                              RTC.o (__aeabi_uidiv)
c:/devkitpro/devkitarm/bin/../lib/gcc/arm-eabi/4.7.0/thumb\libgcc.a(_divsi3.o)
                              bios.o (__aeabi_idiv)
c:/devkitpro/devkitarm/bin/../lib/gcc/arm-eabi/4.7.0/thumb\libgcc.a(_dvmd_tls.o)
                              c:/devkitpro/devkitarm/bin/../lib/gcc/arm-eabi/4.7.0/thumb\libgcc.a(_udivsi3.o) (__aeabi_idiv0)
c:/devkitpro/devkitarm/bin/../lib/gcc/arm-eabi/4.7.0/thumb\libgcc.a(_arm_addsubdf3.o)
                              bios.o (__aeabi_dsub)
c:/devkitpro/devkitarm/bin/../lib/gcc/arm-eabi/4.7.0/thumb\libgcc.a(_arm_muldivdf3.o)
                              GBA.o (__aeabi_dmul)
c:/devkitpro/devkitarm/bin/../lib/gcc/arm-eabi/4.7.0/thumb\libgcc.a(_arm_cmpdf2.o)
                              c:/devkitpro/devkitarm/bin/../lib/gcc/arm-eabi/4.7.0/../../../../arm-eabi/lib/thumb\libm.a(lib_a-w_pow.o) (__aeabi_dcmpeq)
c:/devkitpro/devkitarm/bin/../lib/gcc/arm-eabi/4.7.0/thumb\libgcc.a(_arm_fixdfsi.o)
                              bios.o (__aeabi_d2iz)
c:/devkitpro/devkitarm/bin/../lib/gcc/arm-eabi/4.7.0/thumb\libgcc.a(_arm_fixunsdfsi.o)
                              GBA.o (__aeabi_d2uiz)
c:/devkitpro/devkitarm/bin/../lib/gcc/arm-eabi/4.7.0/thumb\libgcc.a(_arm_addsubsf3.o)
                              GBA.o (__aeabi_fsub)
c:/devkitpro/devkitarm/bin/../lib/gcc/arm-eabi/4.7.0/thumb\libgcc.a(_clzsi2.o)
                              file_browse.o (__clzsi2)
c:/devkitpro/devkitarm/bin/../lib/gcc/arm-eabi/4.7.0/thumb\libgcc.a(_muldi3.o)
                              c:/devkitPro/libnds/lib\libfat.a(partition.o) (__aeabi_lmul)
c:/devkitpro/devkitarm/bin/../lib/gcc/arm-eabi/4.7.0/thumb\libgcc.a(unwind-arm.o)
                              c:/devkitpro/devkitarm/bin/../lib/gcc/arm-eabi/4.7.0/../../../../arm-eabi/lib/thumb\libstdc++.a(eh_personality.o) (__aeabi_unwind_cpp_pr0)
c:/devkitpro/devkitarm/bin/../lib/gcc/arm-eabi/4.7.0/thumb\libgcc.a(libunwind.o)
                              c:/devkitpro/devkitarm/bin/../lib/gcc/arm-eabi/4.7.0/thumb\libgcc.a(unwind-arm.o) (restore_core_regs)
c:/devkitpro/devkitarm/bin/../lib/gcc/arm-eabi/4.7.0/thumb\libgcc.a(pr-support.o)
                              c:/devkitpro/devkitarm/bin/../lib/gcc/arm-eabi/4.7.0/thumb\libgcc.a(unwind-arm.o) (__gnu_unwind_execute)
c:/devkitpro/devkitarm/bin/../lib/gcc/arm-eabi/4.7.0/../../../../arm-eabi/lib/thumb\libc.a(lib_a-abort.o)
                              c:/devkitpro/devkitarm/bin/../lib/gcc/arm-eabi/4.7.0/../../../../arm-eabi/lib/thumb\libstdc++.a(eh_personality.o) (abort)
c:/devkitpro/devkitarm/bin/../lib/gcc/arm-eabi/4.7.0/../../../../arm-eabi/lib/thumb\libc.a(lib_a-bsearch.o)
                              trig.o (bsearch)
c:/devkitpro/devkitarm/bin/../lib/gcc/arm-eabi/4.7.0/../../../../arm-eabi/lib/thumb\libc.a(lib_a-calloc.o)
                              GBA.o (calloc)
c:/devkitpro/devkitarm/bin/../lib/gcc/arm-eabi/4.7.0/../../../../arm-eabi/lib/thumb\libc.a(lib_a-callocr.o)
                              c:/devkitpro/devkitarm/bin/../lib/gcc/arm-eabi/4.7.0/../../../../arm-eabi/lib/thumb\libc.a(lib_a-calloc.o) (_calloc_r)
c:/devkitpro/devkitarm/bin/../lib/gcc/arm-eabi/4.7.0/../../../../arm-eabi/lib/thumb\libc.a(lib_a-ctype_.o)
                              c:/devkitPro/libnds/lib\libfat.a(directory.o) (__ctype_ptr__)
c:/devkitpro/devkitarm/bin/../lib/gcc/arm-eabi/4.7.0/../../../../arm-eabi/lib/thumb\libc.a(lib_a-cxa_atexit.o)
                              c:/devkitpro/devkitarm/bin/../lib/gcc/arm-eabi/4.7.0/../../../../arm-eabi/lib/thumb\libstdc++.a(atexit_arm.o) (__cxa_atexit)
c:/devkitpro/devkitarm/bin/../lib/gcc/arm-eabi/4.7.0/../../../../arm-eabi/lib/thumb\libc.a(lib_a-errno.o)
                              c:/devkitpro/devkitarm/bin/../lib/gcc/arm-eabi/4.7.0/../../../../arm-eabi/lib/thumb\libm.a(lib_a-w_pow.o) (__errno)
c:/devkitpro/devkitarm/bin/../lib/gcc/arm-eabi/4.7.0/../../../../arm-eabi/lib/thumb\libc.a(lib_a-fclose.o)
                              GBA.o (fclose)
c:/devkitpro/devkitarm/bin/../lib/gcc/arm-eabi/4.7.0/../../../../arm-eabi/lib/thumb\libc.a(lib_a-fflush.o)
                              c:/devkitpro/devkitarm/bin/../lib/gcc/arm-eabi/4.7.0/../../../../arm-eabi/lib/thumb\libc.a(lib_a-fclose.o) (_fflush_r)
c:/devkitpro/devkitarm/bin/../lib/gcc/arm-eabi/4.7.0/../../../../arm-eabi/lib/thumb\libc.a(lib_a-fgetc.o)
                              Util.o (fgetc)
c:/devkitpro/devkitarm/bin/../lib/gcc/arm-eabi/4.7.0/../../../../arm-eabi/lib/thumb\libc.a(lib_a-findfp.o)
                              c:/devkitpro/devkitarm/bin/../lib/gcc/arm-eabi/4.7.0/../../../../arm-eabi/lib/thumb\libc.a(lib_a-fclose.o) (__sinit)
c:/devkitpro/devkitarm/bin/../lib/gcc/arm-eabi/4.7.0/../../../../arm-eabi/lib/thumb\libc.a(lib_a-fopen.o)
                              GBA.o (fopen)
c:/devkitpro/devkitarm/bin/../lib/gcc/arm-eabi/4.7.0/../../../../arm-eabi/lib/thumb\libc.a(lib_a-fputc.o)
                              c:/devkitpro/devkitarm/bin/../lib/gcc/arm-eabi/4.7.0/../../../../arm-eabi/lib/thumb\libstdc++.a(vterminate.o) (fputc)
c:/devkitpro/devkitarm/bin/../lib/gcc/arm-eabi/4.7.0/../../../../arm-eabi/lib/thumb\libc.a(lib_a-fputs.o)
                              c:/devkitpro/devkitarm/bin/../lib/gcc/arm-eabi/4.7.0/../../../../arm-eabi/lib/thumb\libstdc++.a(vterminate.o) (fputs)
c:/devkitpro/devkitarm/bin/../lib/gcc/arm-eabi/4.7.0/../../../../arm-eabi/lib/thumb\libc.a(lib_a-fread.o)
                              GBA.o (fread)
c:/devkitpro/devkitarm/bin/../lib/gcc/arm-eabi/4.7.0/../../../../arm-eabi/lib/thumb\libc.a(lib_a-freer.o)
                              c:/devkitpro/devkitarm/bin/../lib/gcc/arm-eabi/4.7.0/../../../../arm-eabi/lib/thumb\libc.a(lib_a-fclose.o) (_free_r)
c:/devkitpro/devkitarm/bin/../lib/gcc/arm-eabi/4.7.0/../../../../arm-eabi/lib/thumb\libc.a(lib_a-fseek.o)
                              c:/devkitpro/devkitarm/bin/../lib/gcc/arm-eabi/4.7.0/../../../../arm-eabi/lib/thumb\libc.a(lib_a-fopen.o) (_fseek_r)
c:/devkitpro/devkitarm/bin/../lib/gcc/arm-eabi/4.7.0/../../../../arm-eabi/lib/thumb\libc.a(lib_a-ftell.o)
                              GBA.o (ftell)
c:/devkitpro/devkitarm/bin/../lib/gcc/arm-eabi/4.7.0/../../../../arm-eabi/lib/thumb\libc.a(lib_a-fvwrite.o)
                              c:/devkitpro/devkitarm/bin/../lib/gcc/arm-eabi/4.7.0/../../../../arm-eabi/lib/thumb\libc.a(lib_a-fputs.o) (__sfvwrite_r)
c:/devkitpro/devkitarm/bin/../lib/gcc/arm-eabi/4.7.0/../../../../arm-eabi/lib/thumb\libc.a(lib_a-fwalk.o)
                              c:/devkitpro/devkitarm/bin/../lib/gcc/arm-eabi/4.7.0/../../../../arm-eabi/lib/thumb\libc.a(lib_a-findfp.o) (_fwalk)
c:/devkitpro/devkitarm/bin/../lib/gcc/arm-eabi/4.7.0/../../../../arm-eabi/lib/thumb\libc.a(lib_a-fwrite.o)
                              GBA.o (fwrite)
c:/devkitpro/devkitarm/bin/../lib/gcc/arm-eabi/4.7.0/../../../../arm-eabi/lib/thumb\libc.a(lib_a-impure.o)
                              c:/devkitpro/devkitarm/bin/../lib/gcc/arm-eabi/4.7.0/../../../../arm-eabi/lib/thumb\libc.a(lib_a-fflush.o) (_global_impure_ptr)
c:/devkitpro/devkitarm/bin/../lib/gcc/arm-eabi/4.7.0/../../../../arm-eabi/lib/thumb\libc.a(lib_a-init.o)
                              c:/devkitpro/devkitarm/bin/../lib/gcc/arm-eabi/4.7.0/../../../../arm-eabi/lib/thumb/ds_arm9_crt0.o (__libc_init_array)
c:/devkitpro/devkitarm/bin/../lib/gcc/arm-eabi/4.7.0/../../../../arm-eabi/lib/thumb\libc.a(lib_a-iprintf.o)
                              cpumg.o (iprintf)
c:/devkitpro/devkitarm/bin/../lib/gcc/arm-eabi/4.7.0/../../../../arm-eabi/lib/thumb\libc.a(lib_a-lcltime.o)
                              RTC.o (localtime)
c:/devkitpro/devkitarm/bin/../lib/gcc/arm-eabi/4.7.0/../../../../arm-eabi/lib/thumb\libc.a(lib_a-lcltime_r.o)
                              c:/devkitPro/libnds/lib\libfat.a(filetime.o) (localtime_r)
c:/devkitpro/devkitarm/bin/../lib/gcc/arm-eabi/4.7.0/../../../../arm-eabi/lib/thumb\libc.a(lib_a-locale.o)
                              c:/devkitPro/libnds/lib\libfat.a(directory.o) (__locale_mb_cur_max)
c:/devkitpro/devkitarm/bin/../lib/gcc/arm-eabi/4.7.0/../../../../arm-eabi/lib/thumb\libc.a(lib_a-makebuf.o)
                              c:/devkitpro/devkitarm/bin/../lib/gcc/arm-eabi/4.7.0/../../../../arm-eabi/lib/thumb\libc.a(lib_a-fseek.o) (__smakebuf_r)
c:/devkitpro/devkitarm/bin/../lib/gcc/arm-eabi/4.7.0/../../../../arm-eabi/lib/thumb\libc.a(lib_a-malloc.o)
                              dldi.o (malloc)
c:/devkitpro/devkitarm/bin/../lib/gcc/arm-eabi/4.7.0/../../../../arm-eabi/lib/thumb\libc.a(lib_a-mallocr.o)
                              c:/devkitpro/devkitarm/bin/../lib/gcc/arm-eabi/4.7.0/../../../../arm-eabi/lib/thumb\libc.a(lib_a-callocr.o) (_malloc_r)
c:/devkitpro/devkitarm/bin/../lib/gcc/arm-eabi/4.7.0/../../../../arm-eabi/lib/thumb\libc.a(lib_a-mbrtowc.o)
                              c:/devkitPro/libnds/lib\libfat.a(directory.o) (mbrtowc)
c:/devkitpro/devkitarm/bin/../lib/gcc/arm-eabi/4.7.0/../../../../arm-eabi/lib/thumb\libc.a(lib_a-mbsrtowcs.o)
                              c:/devkitPro/libnds/lib\libfat.a(directory.o) (mbsrtowcs)
c:/devkitpro/devkitarm/bin/../lib/gcc/arm-eabi/4.7.0/../../../../arm-eabi/lib/thumb\libc.a(lib_a-mbtowc_r.o)
                              c:/devkitpro/devkitarm/bin/../lib/gcc/arm-eabi/4.7.0/../../../../arm-eabi/lib/thumb\libc.a(lib_a-locale.o) (__utf8_mbtowc)
c:/devkitpro/devkitarm/bin/../lib/gcc/arm-eabi/4.7.0/../../../../arm-eabi/lib/thumb\libc.a(lib_a-memchr-stub.o)
                              c:/devkitpro/devkitarm/bin/../lib/gcc/arm-eabi/4.7.0/../../../../arm-eabi/lib/thumb\libstdc++.a(string-inst.o) (memchr)
c:/devkitpro/devkitarm/bin/../lib/gcc/arm-eabi/4.7.0/../../../../arm-eabi/lib/thumb\libc.a(lib_a-memcmp.o)
                              GBA.o (memcmp)
c:/devkitpro/devkitarm/bin/../lib/gcc/arm-eabi/4.7.0/../../../../arm-eabi/lib/thumb\libc.a(lib_a-memcpy-stub.o)
                              Flash.o (memcpy)
c:/devkitpro/devkitarm/bin/../lib/gcc/arm-eabi/4.7.0/../../../../arm-eabi/lib/thumb\libc.a(lib_a-memmove.o)
                              c:/devkitPro/libnds/lib\libfat.a(directory.o) (memmove)
c:/devkitpro/devkitarm/bin/../lib/gcc/arm-eabi/4.7.0/../../../../arm-eabi/lib/thumb\libc.a(lib_a-memset.o)
                              EEprom.o (memset)
c:/devkitpro/devkitarm/bin/../lib/gcc/arm-eabi/4.7.0/../../../../arm-eabi/lib/thumb\libc.a(lib_a-mktime.o)
                              c:/devkitPro/libnds/lib\libfat.a(filetime.o) (mktime)
c:/devkitpro/devkitarm/bin/../lib/gcc/arm-eabi/4.7.0/../../../../arm-eabi/lib/thumb\libc.a(lib_a-mktm_r.o)
                              c:/devkitpro/devkitarm/bin/../lib/gcc/arm-eabi/4.7.0/../../../../arm-eabi/lib/thumb\libc.a(lib_a-mktime.o) (__tzcalc_limits)
c:/devkitpro/devkitarm/bin/../lib/gcc/arm-eabi/4.7.0/../../../../arm-eabi/lib/thumb\libc.a(lib_a-mlock.o)
                              c:/devkitpro/devkitarm/bin/../lib/gcc/arm-eabi/4.7.0/../../../../arm-eabi/lib/thumb\libc.a(lib_a-freer.o) (__malloc_lock)
c:/devkitpro/devkitarm/bin/../lib/gcc/arm-eabi/4.7.0/../../../../arm-eabi/lib/thumb\libc.a(lib_a-printf.o)
                              main.o (printf)
c:/devkitpro/devkitarm/bin/../lib/gcc/arm-eabi/4.7.0/../../../../arm-eabi/lib/thumb\libc.a(lib_a-putc.o)
                              c:/devkitpro/devkitarm/bin/../lib/gcc/arm-eabi/4.7.0/../../../../arm-eabi/lib/thumb\libc.a(lib_a-fputc.o) (_putc_r)
c:/devkitpro/devkitarm/bin/../lib/gcc/arm-eabi/4.7.0/../../../../arm-eabi/lib/thumb\libc.a(lib_a-puts.o)
                              cpumg.o (puts)
c:/devkitpro/devkitarm/bin/../lib/gcc/arm-eabi/4.7.0/../../../../arm-eabi/lib/thumb\libc.a(lib_a-realloc.o)
                              Util.o (realloc)
c:/devkitpro/devkitarm/bin/../lib/gcc/arm-eabi/4.7.0/../../../../arm-eabi/lib/thumb\libc.a(lib_a-reallocr.o)
                              c:/devkitpro/devkitarm/bin/../lib/gcc/arm-eabi/4.7.0/../../../../arm-eabi/lib/thumb\libc.a(lib_a-fvwrite.o) (_realloc_r)
c:/devkitpro/devkitarm/bin/../lib/gcc/arm-eabi/4.7.0/../../../../arm-eabi/lib/thumb\libc.a(lib_a-refill.o)
                              c:/devkitpro/devkitarm/bin/../lib/gcc/arm-eabi/4.7.0/../../../../arm-eabi/lib/thumb\libc.a(lib_a-fread.o) (__srefill_r)
c:/devkitpro/devkitarm/bin/../lib/gcc/arm-eabi/4.7.0/../../../../arm-eabi/lib/thumb\libc.a(lib_a-rget.o)
                              c:/devkitpro/devkitarm/bin/../lib/gcc/arm-eabi/4.7.0/../../../../arm-eabi/lib/thumb\libc.a(lib_a-fgetc.o) (__srget_r)
c:/devkitpro/devkitarm/bin/../lib/gcc/arm-eabi/4.7.0/../../../../arm-eabi/lib/thumb\libc.a(lib_a-setvbuf.o)
                              console.o (setvbuf)
c:/devkitpro/devkitarm/bin/../lib/gcc/arm-eabi/4.7.0/../../../../arm-eabi/lib/thumb\libc.a(lib_a-signal.o)
                              c:/devkitpro/devkitarm/bin/../lib/gcc/arm-eabi/4.7.0/../../../../arm-eabi/lib/thumb\libc.a(lib_a-abort.o) (raise)
c:/devkitpro/devkitarm/bin/../lib/gcc/arm-eabi/4.7.0/../../../../arm-eabi/lib/thumb\libc.a(lib_a-siscanf.o)
                              console.o (siscanf)
c:/devkitpro/devkitarm/bin/../lib/gcc/arm-eabi/4.7.0/../../../../arm-eabi/lib/thumb\libc.a(lib_a-sprintf.o)
                              main.o (sprintf)
c:/devkitpro/devkitarm/bin/../lib/gcc/arm-eabi/4.7.0/../../../../arm-eabi/lib/thumb\libc.a(lib_a-stdio.o)
                              c:/devkitpro/devkitarm/bin/../lib/gcc/arm-eabi/4.7.0/../../../../arm-eabi/lib/thumb\libc.a(lib_a-findfp.o) (__sread)
c:/devkitpro/devkitarm/bin/../lib/gcc/arm-eabi/4.7.0/../../../../arm-eabi/lib/thumb\libc.a(lib_a-strcasecmp.o)
                              GBA.o (strcasecmp)
c:/devkitpro/devkitarm/bin/../lib/gcc/arm-eabi/4.7.0/../../../../arm-eabi/lib/thumb\libc.a(lib_a-strcat.o)
                              c:/devkitpro/devkitarm/bin/../lib/gcc/arm-eabi/4.7.0/../../../../arm-eabi/lib/thumb\libc.a(lib_a-locale.o) (strcat)
c:/devkitpro/devkitarm/bin/../lib/gcc/arm-eabi/4.7.0/../../../../arm-eabi/lib/thumb\libc.a(lib_a-strchr.o)
                              c:/devkitPro/libnds/lib\libfat.a(directory.o) (strchr)
c:/devkitpro/devkitarm/bin/../lib/gcc/arm-eabi/4.7.0/../../../../arm-eabi/lib/thumb\libc.a(lib_a-strcmp.o)
                              c:/devkitPro/libnds/lib\libfat.a(directory.o) (strcmp)
c:/devkitpro/devkitarm/bin/../lib/gcc/arm-eabi/4.7.0/../../../../arm-eabi/lib/thumb\libc.a(lib_a-strcpy.o)
                              Util.o (strcpy)
c:/devkitpro/devkitarm/bin/../lib/gcc/arm-eabi/4.7.0/../../../../arm-eabi/lib/thumb\libc.a(lib_a-strerror.o)
                              c:/devkitpro/devkitarm/bin/../lib/gcc/arm-eabi/4.7.0/../../../../arm-eabi/lib/thumb\libstdc++.a(system_error.o) (strerror)
c:/devkitpro/devkitarm/bin/../lib/gcc/arm-eabi/4.7.0/../../../../arm-eabi/lib/thumb\libc.a(lib_a-strlcpy.o)
                              c:/devkitpro/devkitarm/bin/../lib/gcc/arm-eabi/4.7.0/../../../../arm-eabi/lib/thumb\libc.a(lib_a-locale.o) (strlcpy)
c:/devkitpro/devkitarm/bin/../lib/gcc/arm-eabi/4.7.0/../../../../arm-eabi/lib/thumb\libc.a(lib_a-strlen.o)
                              GBA.o (strlen)
c:/devkitpro/devkitarm/bin/../lib/gcc/arm-eabi/4.7.0/../../../../arm-eabi/lib/thumb\libc.a(lib_a-strncasecmp.o)
                              c:/devkitPro/libnds/lib\libfat.a(libfat.o) (strncasecmp)
c:/devkitpro/devkitarm/bin/../lib/gcc/arm-eabi/4.7.0/../../../../arm-eabi/lib/thumb\libc.a(lib_a-strncmp.o)
                              c:/devkitPro/libnds/lib\libfat.a(libfat.o) (strncmp)
c:/devkitpro/devkitarm/bin/../lib/gcc/arm-eabi/4.7.0/../../../../arm-eabi/lib/thumb\libc.a(lib_a-strncpy.o)
                              file_browse.o (strncpy)
c:/devkitpro/devkitarm/bin/../lib/gcc/arm-eabi/4.7.0/../../../../arm-eabi/lib/thumb\libc.a(lib_a-strnlen.o)
                              c:/devkitPro/libnds/lib\libfat.a(directory.o) (strnlen)
c:/devkitpro/devkitarm/bin/../lib/gcc/arm-eabi/4.7.0/../../../../arm-eabi/lib/thumb\libc.a(lib_a-strpbrk.o)
                              c:/devkitPro/libnds/lib\libfat.a(directory.o) (strpbrk)
c:/devkitpro/devkitarm/bin/../lib/gcc/arm-eabi/4.7.0/../../../../arm-eabi/lib/thumb\libc.a(lib_a-strrchr.o)
                              GBA.o (strrchr)
c:/devkitpro/devkitarm/bin/../lib/gcc/arm-eabi/4.7.0/../../../../arm-eabi/lib/thumb\libc.a(lib_a-strtol.o)
                              c:/devkitpro/devkitarm/bin/../lib/gcc/arm-eabi/4.7.0/../../../../arm-eabi/lib/thumb\libc.a(lib_a-locale.o) (_strtol_r)
c:/devkitpro/devkitarm/bin/../lib/gcc/arm-eabi/4.7.0/../../../../arm-eabi/lib/thumb\libc.a(lib_a-svfiscanf.o)
                              c:/devkitpro/devkitarm/bin/../lib/gcc/arm-eabi/4.7.0/../../../../arm-eabi/lib/thumb\libc.a(lib_a-siscanf.o) (__ssvfiscanf_r)
c:/devkitpro/devkitarm/bin/../lib/gcc/arm-eabi/4.7.0/../../../../arm-eabi/lib/thumb\libc.a(lib_a-svfprintf.o)
                              c:/devkitpro/devkitarm/bin/../lib/gcc/arm-eabi/4.7.0/../../../../arm-eabi/lib/thumb\libc.a(lib_a-sprintf.o) (_svfprintf_r)
c:/devkitpro/devkitarm/bin/../lib/gcc/arm-eabi/4.7.0/../../../../arm-eabi/lib/thumb\libc.a(lib_a-sysclose.o)
                              dldi.o (close)
c:/devkitpro/devkitarm/bin/../lib/gcc/arm-eabi/4.7.0/../../../../arm-eabi/lib/thumb\libc.a(lib_a-syslseek.o)
                              dldi.o (lseek)
c:/devkitpro/devkitarm/bin/../lib/gcc/arm-eabi/4.7.0/../../../../arm-eabi/lib/thumb\libc.a(lib_a-sysopen.o)
                              dldi.o (open)
c:/devkitpro/devkitarm/bin/../lib/gcc/arm-eabi/4.7.0/../../../../arm-eabi/lib/thumb\libc.a(lib_a-sysread.o)
                              dldi.o (read)
c:/devkitpro/devkitarm/bin/../lib/gcc/arm-eabi/4.7.0/../../../../arm-eabi/lib/thumb\libc.a(lib_a-syssbrk.o)
                              heapfuncs.o (sbrk)
c:/devkitpro/devkitarm/bin/../lib/gcc/arm-eabi/4.7.0/../../../../arm-eabi/lib/thumb\libc.a(lib_a-sysstat.o)
                              file_browse.o (stat)
c:/devkitpro/devkitarm/bin/../lib/gcc/arm-eabi/4.7.0/../../../../arm-eabi/lib/thumb\libc.a(lib_a-syswrite.o)
                              c:/devkitpro/devkitarm/bin/../lib/gcc/arm-eabi/4.7.0/../../../../arm-eabi/lib/thumb\libstdc++.a(pure.o) (write)
c:/devkitpro/devkitarm/bin/../lib/gcc/arm-eabi/4.7.0/../../../../arm-eabi/lib/thumb\libc.a(lib_a-time.o)
                              RTC.o (time)
c:/devkitpro/devkitarm/bin/../lib/gcc/arm-eabi/4.7.0/../../../../arm-eabi/lib/thumb\libc.a(lib_a-towlower.o)
                              c:/devkitPro/libnds/lib\libfat.a(directory.o) (towlower)
c:/devkitpro/devkitarm/bin/../lib/gcc/arm-eabi/4.7.0/../../../../arm-eabi/lib/thumb\libc.a(lib_a-towupper.o)
                              c:/devkitPro/libnds/lib\libfat.a(directory.o) (towupper)
c:/devkitpro/devkitarm/bin/../lib/gcc/arm-eabi/4.7.0/../../../../arm-eabi/lib/thumb\libc.a(lib_a-tzlock.o)
                              c:/devkitpro/devkitarm/bin/../lib/gcc/arm-eabi/4.7.0/../../../../arm-eabi/lib/thumb\libc.a(lib_a-mktime.o) (__tz_lock)
c:/devkitpro/devkitarm/bin/../lib/gcc/arm-eabi/4.7.0/../../../../arm-eabi/lib/thumb\libc.a(lib_a-tzvars.o)
                              c:/devkitpro/devkitarm/bin/../lib/gcc/arm-eabi/4.7.0/../../../../arm-eabi/lib/thumb\libc.a(lib_a-mktime.o) (_daylight)
c:/devkitpro/devkitarm/bin/../lib/gcc/arm-eabi/4.7.0/../../../../arm-eabi/lib/thumb\libc.a(lib_a-ungetc.o)
                              c:/devkitpro/devkitarm/bin/../lib/gcc/arm-eabi/4.7.0/../../../../arm-eabi/lib/thumb\libc.a(lib_a-svfiscanf.o) (__submore)
c:/devkitpro/devkitarm/bin/../lib/gcc/arm-eabi/4.7.0/../../../../arm-eabi/lib/thumb\libc.a(lib_a-u_strerr.o)
                              c:/devkitpro/devkitarm/bin/../lib/gcc/arm-eabi/4.7.0/../../../../arm-eabi/lib/thumb\libc.a(lib_a-strerror.o) (_user_strerror)
c:/devkitpro/devkitarm/bin/../lib/gcc/arm-eabi/4.7.0/../../../../arm-eabi/lib/thumb\libc.a(lib_a-vfiprintf.o)
                              c:/devkitpro/devkitarm/bin/../lib/gcc/arm-eabi/4.7.0/../../../../arm-eabi/lib/thumb\libc.a(lib_a-iprintf.o) (_vfiprintf_r)
c:/devkitpro/devkitarm/bin/../lib/gcc/arm-eabi/4.7.0/../../../../arm-eabi/lib/thumb\libc.a(lib_a-vfprintf.o)
                              c:/devkitpro/devkitarm/bin/../lib/gcc/arm-eabi/4.7.0/../../../../arm-eabi/lib/thumb\libc.a(lib_a-printf.o) (_vfprintf_r)
c:/devkitpro/devkitarm/bin/../lib/gcc/arm-eabi/4.7.0/../../../../arm-eabi/lib/thumb\libc.a(lib_a-vsnprintf.o)
                              system.o (vsnprintf)
c:/devkitpro/devkitarm/bin/../lib/gcc/arm-eabi/4.7.0/../../../../arm-eabi/lib/thumb\libc.a(lib_a-wbuf.o)
                              c:/devkitpro/devkitarm/bin/../lib/gcc/arm-eabi/4.7.0/../../../../arm-eabi/lib/thumb\libc.a(lib_a-putc.o) (__swbuf_r)
c:/devkitpro/devkitarm/bin/../lib/gcc/arm-eabi/4.7.0/../../../../arm-eabi/lib/thumb\libc.a(lib_a-wcrtomb.o)
                              c:/devkitpro/devkitarm/bin/../lib/gcc/arm-eabi/4.7.0/../../../../arm-eabi/lib/thumb\libc.a(lib_a-svfprintf.o) (_wcrtomb_r)
c:/devkitpro/devkitarm/bin/../lib/gcc/arm-eabi/4.7.0/../../../../arm-eabi/lib/thumb\libc.a(lib_a-wcsrtombs.o)
                              c:/devkitpro/devkitarm/bin/../lib/gcc/arm-eabi/4.7.0/../../../../arm-eabi/lib/thumb\libc.a(lib_a-svfprintf.o) (_wcsrtombs_r)
c:/devkitpro/devkitarm/bin/../lib/gcc/arm-eabi/4.7.0/../../../../arm-eabi/lib/thumb\libc.a(lib_a-wctob.o)
                              c:/devkitPro/libnds/lib\libfat.a(directory.o) (wctob)
c:/devkitpro/devkitarm/bin/../lib/gcc/arm-eabi/4.7.0/../../../../arm-eabi/lib/thumb\libc.a(lib_a-wctomb_r.o)
                              c:/devkitpro/devkitarm/bin/../lib/gcc/arm-eabi/4.7.0/../../../../arm-eabi/lib/thumb\libc.a(lib_a-locale.o) (__utf8_wctomb)
c:/devkitpro/devkitarm/bin/../lib/gcc/arm-eabi/4.7.0/../../../../arm-eabi/lib/thumb\libc.a(lib_a-wsetup.o)
                              c:/devkitpro/devkitarm/bin/../lib/gcc/arm-eabi/4.7.0/../../../../arm-eabi/lib/thumb\libc.a(lib_a-fvwrite.o) (__swsetup_r)
c:/devkitpro/devkitarm/bin/../lib/gcc/arm-eabi/4.7.0/../../../../arm-eabi/lib/thumb\libc.a(lib_a-__atexit.o)
                              c:/devkitpro/devkitarm/bin/../lib/gcc/arm-eabi/4.7.0/../../../../arm-eabi/lib/thumb\libc.a(lib_a-cxa_atexit.o) (__register_exitproc)
c:/devkitpro/devkitarm/bin/../lib/gcc/arm-eabi/4.7.0/../../../../arm-eabi/lib/thumb\libc.a(lib_a-div.o)
                              c:/devkitpro/devkitarm/bin/../lib/gcc/arm-eabi/4.7.0/../../../../arm-eabi/lib/thumb\libc.a(lib_a-mktime.o) (div)
c:/devkitpro/devkitarm/bin/../lib/gcc/arm-eabi/4.7.0/../../../../arm-eabi/lib/thumb\libc.a(lib_a-dtoa.o)
                              c:/devkitpro/devkitarm/bin/../lib/gcc/arm-eabi/4.7.0/../../../../arm-eabi/lib/thumb\libc.a(lib_a-svfprintf.o) (_dtoa_r)
c:/devkitpro/devkitarm/bin/../lib/gcc/arm-eabi/4.7.0/../../../../arm-eabi/lib/thumb\libc.a(lib_a-flags.o)
                              c:/devkitpro/devkitarm/bin/../lib/gcc/arm-eabi/4.7.0/../../../../arm-eabi/lib/thumb\libc.a(lib_a-fopen.o) (__sflags)
c:/devkitpro/devkitarm/bin/../lib/gcc/arm-eabi/4.7.0/../../../../arm-eabi/lib/thumb\libc.a(lib_a-fputwc.o)
                              c:/devkitpro/devkitarm/bin/../lib/gcc/arm-eabi/4.7.0/../../../../arm-eabi/lib/thumb\libc.a(lib_a-vfiprintf.o) (_fputwc_r)
c:/devkitpro/devkitarm/bin/../lib/gcc/arm-eabi/4.7.0/../../../../arm-eabi/lib/thumb\libc.a(lib_a-getenv_r.o)
                              c:/devkitpro/devkitarm/bin/../lib/gcc/arm-eabi/4.7.0/../../../../arm-eabi/lib/thumb\libc.a(lib_a-locale.o) (_getenv_r)
c:/devkitpro/devkitarm/bin/../lib/gcc/arm-eabi/4.7.0/../../../../arm-eabi/lib/thumb\libc.a(lib_a-gettzinfo.o)
                              c:/devkitpro/devkitarm/bin/../lib/gcc/arm-eabi/4.7.0/../../../../arm-eabi/lib/thumb\libc.a(lib_a-mktime.o) (__gettzinfo)
c:/devkitpro/devkitarm/bin/../lib/gcc/arm-eabi/4.7.0/../../../../arm-eabi/lib/thumb\libc.a(lib_a-iswspace.o)
                              c:/devkitpro/devkitarm/bin/../lib/gcc/arm-eabi/4.7.0/../../../../arm-eabi/lib/thumb\libc.a(lib_a-svfiscanf.o) (iswspace)
c:/devkitpro/devkitarm/bin/../lib/gcc/arm-eabi/4.7.0/../../../../arm-eabi/lib/thumb\libc.a(lib_a-jp2uc.o)
                              c:/devkitpro/devkitarm/bin/../lib/gcc/arm-eabi/4.7.0/../../../../arm-eabi/lib/thumb\libc.a(lib_a-towlower.o) (_jp2uc)
c:/devkitpro/devkitarm/bin/../lib/gcc/arm-eabi/4.7.0/../../../../arm-eabi/lib/thumb\libc.a(lib_a-mbsnrtowcs.o)
                              c:/devkitpro/devkitarm/bin/../lib/gcc/arm-eabi/4.7.0/../../../../arm-eabi/lib/thumb\libc.a(lib_a-mbsrtowcs.o) (_mbsnrtowcs_r)
c:/devkitpro/devkitarm/bin/../lib/gcc/arm-eabi/4.7.0/../../../../arm-eabi/lib/thumb\libc.a(lib_a-mprec.o)
                              c:/devkitpro/devkitarm/bin/../lib/gcc/arm-eabi/4.7.0/../../../../arm-eabi/lib/thumb\libc.a(lib_a-dtoa.o) (_Balloc)
c:/devkitpro/devkitarm/bin/../lib/gcc/arm-eabi/4.7.0/../../../../arm-eabi/lib/thumb\libc.a(lib_a-sccl.o)
                              c:/devkitpro/devkitarm/bin/../lib/gcc/arm-eabi/4.7.0/../../../../arm-eabi/lib/thumb\libc.a(lib_a-svfiscanf.o) (__sccl)
c:/devkitpro/devkitarm/bin/../lib/gcc/arm-eabi/4.7.0/../../../../arm-eabi/lib/thumb\libc.a(lib_a-strtoll_r.o)
                              c:/devkitpro/devkitarm/bin/../lib/gcc/arm-eabi/4.7.0/../../../../arm-eabi/lib/thumb\libc.a(lib_a-svfiscanf.o) (_strtoll_r)
c:/devkitpro/devkitarm/bin/../lib/gcc/arm-eabi/4.7.0/../../../../arm-eabi/lib/thumb\libc.a(lib_a-strtoull_r.o)
                              c:/devkitpro/devkitarm/bin/../lib/gcc/arm-eabi/4.7.0/../../../../arm-eabi/lib/thumb\libc.a(lib_a-svfiscanf.o) (_strtoull_r)
c:/devkitpro/devkitarm/bin/../lib/gcc/arm-eabi/4.7.0/../../../../arm-eabi/lib/thumb\libc.a(lib_a-strtoul.o)
                              c:/devkitpro/devkitarm/bin/../lib/gcc/arm-eabi/4.7.0/../../../../arm-eabi/lib/thumb\libc.a(lib_a-svfiscanf.o) (_strtoul_r)
c:/devkitpro/devkitarm/bin/../lib/gcc/arm-eabi/4.7.0/../../../../arm-eabi/lib/thumb\libc.a(lib_a-svfiprintf.o)
                              c:/devkitpro/devkitarm/bin/../lib/gcc/arm-eabi/4.7.0/../../../../arm-eabi/lib/thumb\libc.a(lib_a-svfprintf.o) (__ssprint_r)
c:/devkitpro/devkitarm/bin/../lib/gcc/arm-eabi/4.7.0/../../../../arm-eabi/lib/thumb\libc.a(lib_a-wcsnrtombs.o)
                              c:/devkitpro/devkitarm/bin/../lib/gcc/arm-eabi/4.7.0/../../../../arm-eabi/lib/thumb\libc.a(lib_a-wcsrtombs.o) (_wcsnrtombs_r)
c:/devkitpro/devkitarm/bin/../lib/gcc/arm-eabi/4.7.0/../../../../arm-eabi/lib/thumb\libc.a(lib_a-environ.o)
                              c:/devkitpro/devkitarm/bin/../lib/gcc/arm-eabi/4.7.0/../../../../arm-eabi/lib/thumb\libc.a(lib_a-getenv_r.o) (environ)
c:/devkitpro/devkitarm/bin/../lib/gcc/arm-eabi/4.7.0/../../../../arm-eabi/lib/thumb\libc.a(lib_a-envlock.o)
                              c:/devkitpro/devkitarm/bin/../lib/gcc/arm-eabi/4.7.0/../../../../arm-eabi/lib/thumb\libc.a(lib_a-getenv_r.o) (__env_lock)
c:/devkitpro/devkitarm/bin/../lib/gcc/arm-eabi/4.7.0/../../../../arm-eabi/lib/thumb\libsysbase.a(iosupport.o)
                              c:/devkitPro/libnds/lib\libfat.a(libfat.o) (FindDevice)
c:/devkitpro/devkitarm/bin/../lib/gcc/arm-eabi/4.7.0/../../../../arm-eabi/lib/thumb\libsysbase.a(close.o)
                              c:/devkitpro/devkitarm/bin/../lib/gcc/arm-eabi/4.7.0/../../../../arm-eabi/lib/thumb\libc.a(lib_a-stdio.o) (_close_r)
c:/devkitpro/devkitarm/bin/../lib/gcc/arm-eabi/4.7.0/../../../../arm-eabi/lib/thumb\libsysbase.a(fstat.o)
                              c:/devkitpro/devkitarm/bin/../lib/gcc/arm-eabi/4.7.0/../../../../arm-eabi/lib/thumb\libc.a(lib_a-fseek.o) (_fstat_r)
c:/devkitpro/devkitarm/bin/../lib/gcc/arm-eabi/4.7.0/../../../../arm-eabi/lib/thumb\libsysbase.a(getpid.o)
                              c:/devkitpro/devkitarm/bin/../lib/gcc/arm-eabi/4.7.0/../../../../arm-eabi/lib/thumb\libc.a(lib_a-signal.o) (_getpid_r)
c:/devkitpro/devkitarm/bin/../lib/gcc/arm-eabi/4.7.0/../../../../arm-eabi/lib/thumb\libsysbase.a(isatty.o)
                              c:/devkitpro/devkitarm/bin/../lib/gcc/arm-eabi/4.7.0/../../../../arm-eabi/lib/thumb\libc.a(lib_a-makebuf.o) (_isatty_r)
c:/devkitpro/devkitarm/bin/../lib/gcc/arm-eabi/4.7.0/../../../../arm-eabi/lib/thumb\libsysbase.a(kill.o)
                              c:/devkitpro/devkitarm/bin/../lib/gcc/arm-eabi/4.7.0/../../../../arm-eabi/lib/thumb\libc.a(lib_a-signal.o) (_kill_r)
c:/devkitpro/devkitarm/bin/../lib/gcc/arm-eabi/4.7.0/../../../../arm-eabi/lib/thumb\libsysbase.a(lseek.o)
                              c:/devkitpro/devkitarm/bin/../lib/gcc/arm-eabi/4.7.0/../../../../arm-eabi/lib/thumb\libc.a(lib_a-stdio.o) (_lseek_r)
c:/devkitpro/devkitarm/bin/../lib/gcc/arm-eabi/4.7.0/../../../../arm-eabi/lib/thumb\libsysbase.a(open.o)
                              c:/devkitpro/devkitarm/bin/../lib/gcc/arm-eabi/4.7.0/../../../../arm-eabi/lib/thumb\libc.a(lib_a-fopen.o) (_open_r)
c:/devkitpro/devkitarm/bin/../lib/gcc/arm-eabi/4.7.0/../../../../arm-eabi/lib/thumb\libsysbase.a(read.o)
                              c:/devkitpro/devkitarm/bin/../lib/gcc/arm-eabi/4.7.0/../../../../arm-eabi/lib/thumb\libc.a(lib_a-stdio.o) (_read_r)
c:/devkitpro/devkitarm/bin/../lib/gcc/arm-eabi/4.7.0/../../../../arm-eabi/lib/thumb\libsysbase.a(sbrk.o)
                              c:/devkitpro/devkitarm/bin/../lib/gcc/arm-eabi/4.7.0/../../../../arm-eabi/lib/thumb\libc.a(lib_a-freer.o) (_sbrk_r)
c:/devkitpro/devkitarm/bin/../lib/gcc/arm-eabi/4.7.0/../../../../arm-eabi/lib/thumb\libsysbase.a(stat.o)
                              c:/devkitpro/devkitarm/bin/../lib/gcc/arm-eabi/4.7.0/../../../../arm-eabi/lib/thumb\libc.a(lib_a-sysstat.o) (_stat_r)
c:/devkitpro/devkitarm/bin/../lib/gcc/arm-eabi/4.7.0/../../../../arm-eabi/lib/thumb\libsysbase.a(times.o)
                              c:/devkitpro/devkitarm/bin/../lib/gcc/arm-eabi/4.7.0/../../../../arm-eabi/lib/thumb\libc.a(lib_a-time.o) (_gettimeofday_r)
c:/devkitpro/devkitarm/bin/../lib/gcc/arm-eabi/4.7.0/../../../../arm-eabi/lib/thumb\libsysbase.a(write.o)
                              c:/devkitpro/devkitarm/bin/../lib/gcc/arm-eabi/4.7.0/../../../../arm-eabi/lib/thumb\libc.a(lib_a-stdio.o) (_write_r)
c:/devkitpro/devkitarm/bin/../lib/gcc/arm-eabi/4.7.0/../../../../arm-eabi/lib/thumb\libsysbase.a(_exit.o)
                              c:/devkitpro/devkitarm/bin/../lib/gcc/arm-eabi/4.7.0/../../../../arm-eabi/lib/thumb\libc.a(lib_a-abort.o) (_exit)
c:/devkitpro/devkitarm/bin/../lib/gcc/arm-eabi/4.7.0/../../../../arm-eabi/lib/thumb\libsysbase.a(malloc_vars.o)
                              c:/devkitpro/devkitarm/bin/../lib/gcc/arm-eabi/4.7.0/../../../../arm-eabi/lib/thumb/ds_arm9_crt0.o (fake_heap_start)
c:/devkitpro/devkitarm/bin/../lib/gcc/arm-eabi/4.7.0/../../../../arm-eabi/lib/thumb\libsysbase.a(chdir.o)
                              file_browse.o (chdir)
c:/devkitpro/devkitarm/bin/../lib/gcc/arm-eabi/4.7.0/../../../../arm-eabi/lib/thumb\libsysbase.a(build_argv.o)
                              c:/devkitpro/devkitarm/bin/../lib/gcc/arm-eabi/4.7.0/../../../../arm-eabi/lib/thumb/ds_arm9_crt0.o (build_argv)
c:/devkitpro/devkitarm/bin/../lib/gcc/arm-eabi/4.7.0/../../../../arm-eabi/lib/thumb\libsysbase.a(syscall_support.o)
                              c:/devkitpro/devkitarm/bin/../lib/gcc/arm-eabi/4.7.0/../../../../arm-eabi/lib/thumb\libsysbase.a(_exit.o) (__syscalls)
c:/devkitpro/devkitarm/bin/../lib/gcc/arm-eabi/4.7.0/../../../../arm-eabi/lib/thumb\libsysbase.a(handle_manager.o)
                              c:/devkitpro/devkitarm/bin/../lib/gcc/arm-eabi/4.7.0/../../../../arm-eabi/lib/thumb\libsysbase.a(close.o) (__release_handle)
c:/devkitpro/devkitarm/bin/../lib/gcc/arm-eabi/4.7.0/../../../../arm-eabi/lib/thumb\libsysbase.a(dirent.o)
                              file_browse.o (opendir)
c:/devkitpro/devkitarm/bin/../lib/gcc/arm-eabi/4.7.0/thumb\libgcc.a(_aeabi_uldivmod.o)
                              c:/devkitpro/devkitarm/bin/../lib/gcc/arm-eabi/4.7.0/../../../../arm-eabi/lib/thumb\libc.a(lib_a-svfprintf.o) (__aeabi_uldivmod)
c:/devkitpro/devkitarm/bin/../lib/gcc/arm-eabi/4.7.0/thumb\libgcc.a(bpabi.o)
                              c:/devkitpro/devkitarm/bin/../lib/gcc/arm-eabi/4.7.0/thumb\libgcc.a(_aeabi_uldivmod.o) (__gnu_uldivmod_helper)
c:/devkitpro/devkitarm/bin/../lib/gcc/arm-eabi/4.7.0/thumb\libgcc.a(_divdi3.o)
                              c:/devkitpro/devkitarm/bin/../lib/gcc/arm-eabi/4.7.0/thumb\libgcc.a(bpabi.o) (__divdi3)
c:/devkitpro/devkitarm/bin/../lib/gcc/arm-eabi/4.7.0/thumb\libgcc.a(_udivdi3.o)
                              c:/devkitpro/devkitarm/bin/../lib/gcc/arm-eabi/4.7.0/thumb\libgcc.a(bpabi.o) (__udivdi3)

Allocating common symbols
Common symbol       size              file

currentCopy         0x5c              console.o
bgState             0x140             background.o
bgIsTextLut         0x8               background.o
punixTime           0x4               c:/devkitpro/devkitarm/bin/../lib/gcc/arm-eabi/4.7.0/../../../../arm-eabi/lib/thumb\libsysbase.a(times.o)

Discarded input sections

 .group         0x00000000        0xc cpumg.o
 .group         0x00000000        0xc cpumg.o
 .group         0x00000000        0x8 file_browse.o
 .group         0x00000000        0x8 file_browse.o
 .group         0x00000000        0x8 file_browse.o
 .group         0x00000000        0x8 file_browse.o
 .group         0x00000000        0x8 file_browse.o
 .group         0x00000000        0x8 file_browse.o
 .group         0x00000000        0x8 file_browse.o
 .group         0x00000000        0x8 file_browse.o
 .group         0x00000000        0x8 file_browse.o
 .group         0x00000000        0x8 file_browse.o
 .group         0x00000000       0x10 c:/devkitpro/devkitarm/bin/../lib/gcc/arm-eabi/4.7.0/../../../../arm-eabi/lib/thumb\libstdc++.a(string-inst.o)
 .group         0x00000000       0x10 c:/devkitpro/devkitarm/bin/../lib/gcc/arm-eabi/4.7.0/../../../../arm-eabi/lib/thumb\libstdc++.a(string-inst.o)
 .group         0x00000000       0x10 c:/devkitpro/devkitarm/bin/../lib/gcc/arm-eabi/4.7.0/../../../../arm-eabi/lib/thumb\libstdc++.a(string-inst.o)
 .group         0x00000000       0x10 c:/devkitpro/devkitarm/bin/../lib/gcc/arm-eabi/4.7.0/../../../../arm-eabi/lib/thumb\libstdc++.a(string-inst.o)
 .group         0x00000000       0x10 c:/devkitpro/devkitarm/bin/../lib/gcc/arm-eabi/4.7.0/../../../../arm-eabi/lib/thumb\libstdc++.a(string-inst.o)
 .group         0x00000000       0x10 c:/devkitpro/devkitarm/bin/../lib/gcc/arm-eabi/4.7.0/../../../../arm-eabi/lib/thumb\libstdc++.a(string-inst.o)
 .group         0x00000000       0x10 c:/devkitpro/devkitarm/bin/../lib/gcc/arm-eabi/4.7.0/../../../../arm-eabi/lib/thumb\libstdc++.a(string-inst.o)
 .group         0x00000000       0x10 c:/devkitpro/devkitarm/bin/../lib/gcc/arm-eabi/4.7.0/../../../../arm-eabi/lib/thumb\libstdc++.a(string-inst.o)
 .group         0x00000000       0x10 c:/devkitpro/devkitarm/bin/../lib/gcc/arm-eabi/4.7.0/../../../../arm-eabi/lib/thumb\libstdc++.a(string-inst.o)
 .group         0x00000000       0x10 c:/devkitpro/devkitarm/bin/../lib/gcc/arm-eabi/4.7.0/../../../../arm-eabi/lib/thumb\libstdc++.a(string-inst.o)
 .group         0x00000000       0x10 c:/devkitpro/devkitarm/bin/../lib/gcc/arm-eabi/4.7.0/../../../../arm-eabi/lib/thumb\libstdc++.a(string-inst.o)
 .group         0x00000000       0x10 c:/devkitpro/devkitarm/bin/../lib/gcc/arm-eabi/4.7.0/../../../../arm-eabi/lib/thumb\libstdc++.a(string-inst.o)
 .group         0x00000000       0x10 c:/devkitpro/devkitarm/bin/../lib/gcc/arm-eabi/4.7.0/../../../../arm-eabi/lib/thumb\libstdc++.a(string-inst.o)
 .group         0x00000000       0x10 c:/devkitpro/devkitarm/bin/../lib/gcc/arm-eabi/4.7.0/../../../../arm-eabi/lib/thumb\libstdc++.a(string-inst.o)
 .group         0x00000000       0x10 c:/devkitpro/devkitarm/bin/../lib/gcc/arm-eabi/4.7.0/../../../../arm-eabi/lib/thumb\libstdc++.a(string-inst.o)
 .group         0x00000000       0x10 c:/devkitpro/devkitarm/bin/../lib/gcc/arm-eabi/4.7.0/../../../../arm-eabi/lib/thumb\libstdc++.a(string-inst.o)
 .group         0x00000000       0x10 c:/devkitpro/devkitarm/bin/../lib/gcc/arm-eabi/4.7.0/../../../../arm-eabi/lib/thumb\libstdc++.a(string-inst.o)
 .group         0x00000000       0x10 c:/devkitpro/devkitarm/bin/../lib/gcc/arm-eabi/4.7.0/../../../../arm-eabi/lib/thumb\libstdc++.a(string-inst.o)
 .group         0x00000000       0x10 c:/devkitpro/devkitarm/bin/../lib/gcc/arm-eabi/4.7.0/../../../../arm-eabi/lib/thumb\libstdc++.a(string-inst.o)
 .group         0x00000000       0x10 c:/devkitpro/devkitarm/bin/../lib/gcc/arm-eabi/4.7.0/../../../../arm-eabi/lib/thumb\libstdc++.a(string-inst.o)
 .group         0x00000000       0x10 c:/devkitpro/devkitarm/bin/../lib/gcc/arm-eabi/4.7.0/../../../../arm-eabi/lib/thumb\libstdc++.a(string-inst.o)
 .group         0x00000000       0x10 c:/devkitpro/devkitarm/bin/../lib/gcc/arm-eabi/4.7.0/../../../../arm-eabi/lib/thumb\libstdc++.a(string-inst.o)
 .group         0x00000000       0x10 c:/devkitpro/devkitarm/bin/../lib/gcc/arm-eabi/4.7.0/../../../../arm-eabi/lib/thumb\libstdc++.a(string-inst.o)
 .group         0x00000000       0x10 c:/devkitpro/devkitarm/bin/../lib/gcc/arm-eabi/4.7.0/../../../../arm-eabi/lib/thumb\libstdc++.a(string-inst.o)
 .group         0x00000000       0x10 c:/devkitpro/devkitarm/bin/../lib/gcc/arm-eabi/4.7.0/../../../../arm-eabi/lib/thumb\libstdc++.a(string-inst.o)
 .group         0x00000000       0x10 c:/devkitpro/devkitarm/bin/../lib/gcc/arm-eabi/4.7.0/../../../../arm-eabi/lib/thumb\libstdc++.a(string-inst.o)
 .group         0x00000000       0x10 c:/devkitpro/devkitarm/bin/../lib/gcc/arm-eabi/4.7.0/../../../../arm-eabi/lib/thumb\libstdc++.a(string-inst.o)
 .group         0x00000000       0x10 c:/devkitpro/devkitarm/bin/../lib/gcc/arm-eabi/4.7.0/../../../../arm-eabi/lib/thumb\libstdc++.a(string-inst.o)
 .group         0x00000000       0x10 c:/devkitpro/devkitarm/bin/../lib/gcc/arm-eabi/4.7.0/../../../../arm-eabi/lib/thumb\libstdc++.a(string-inst.o)
 .group         0x00000000       0x10 c:/devkitpro/devkitarm/bin/../lib/gcc/arm-eabi/4.7.0/../../../../arm-eabi/lib/thumb\libstdc++.a(string-inst.o)
 .group         0x00000000       0x10 c:/devkitpro/devkitarm/bin/../lib/gcc/arm-eabi/4.7.0/../../../../arm-eabi/lib/thumb\libstdc++.a(string-inst.o)
 .group         0x00000000       0x10 c:/devkitpro/devkitarm/bin/../lib/gcc/arm-eabi/4.7.0/../../../../arm-eabi/lib/thumb\libstdc++.a(string-inst.o)
 .group         0x00000000       0x10 c:/devkitpro/devkitarm/bin/../lib/gcc/arm-eabi/4.7.0/../../../../arm-eabi/lib/thumb\libstdc++.a(string-inst.o)
 .group         0x00000000       0x10 c:/devkitpro/devkitarm/bin/../lib/gcc/arm-eabi/4.7.0/../../../../arm-eabi/lib/thumb\libstdc++.a(string-inst.o)
 .group         0x00000000       0x10 c:/devkitpro/devkitarm/bin/../lib/gcc/arm-eabi/4.7.0/../../../../arm-eabi/lib/thumb\libstdc++.a(string-inst.o)
 .group         0x00000000       0x10 c:/devkitpro/devkitarm/bin/../lib/gcc/arm-eabi/4.7.0/../../../../arm-eabi/lib/thumb\libstdc++.a(string-inst.o)
 .group         0x00000000       0x10 c:/devkitpro/devkitarm/bin/../lib/gcc/arm-eabi/4.7.0/../../../../arm-eabi/lib/thumb\libstdc++.a(string-inst.o)
 .group         0x00000000       0x10 c:/devkitpro/devkitarm/bin/../lib/gcc/arm-eabi/4.7.0/../../../../arm-eabi/lib/thumb\libstdc++.a(string-inst.o)
 .group         0x00000000       0x10 c:/devkitpro/devkitarm/bin/../lib/gcc/arm-eabi/4.7.0/../../../../arm-eabi/lib/thumb\libstdc++.a(string-inst.o)
 .group         0x00000000       0x10 c:/devkitpro/devkitarm/bin/../lib/gcc/arm-eabi/4.7.0/../../../../arm-eabi/lib/thumb\libstdc++.a(string-inst.o)
 .group         0x00000000       0x10 c:/devkitpro/devkitarm/bin/../lib/gcc/arm-eabi/4.7.0/../../../../arm-eabi/lib/thumb\libstdc++.a(string-inst.o)
 .group         0x00000000       0x10 c:/devkitpro/devkitarm/bin/../lib/gcc/arm-eabi/4.7.0/../../../../arm-eabi/lib/thumb\libstdc++.a(string-inst.o)
 .group         0x00000000       0x10 c:/devkitpro/devkitarm/bin/../lib/gcc/arm-eabi/4.7.0/../../../../arm-eabi/lib/thumb\libstdc++.a(string-inst.o)
 .group         0x00000000       0x10 c:/devkitpro/devkitarm/bin/../lib/gcc/arm-eabi/4.7.0/../../../../arm-eabi/lib/thumb\libstdc++.a(string-inst.o)
 .group         0x00000000       0x10 c:/devkitpro/devkitarm/bin/../lib/gcc/arm-eabi/4.7.0/../../../../arm-eabi/lib/thumb\libstdc++.a(string-inst.o)
 .group         0x00000000       0x10 c:/devkitpro/devkitarm/bin/../lib/gcc/arm-eabi/4.7.0/../../../../arm-eabi/lib/thumb\libstdc++.a(string-inst.o)
 .group         0x00000000       0x10 c:/devkitpro/devkitarm/bin/../lib/gcc/arm-eabi/4.7.0/../../../../arm-eabi/lib/thumb\libstdc++.a(string-inst.o)
 .group         0x00000000       0x10 c:/devkitpro/devkitarm/bin/../lib/gcc/arm-eabi/4.7.0/../../../../arm-eabi/lib/thumb\libstdc++.a(string-inst.o)
 .group         0x00000000       0x10 c:/devkitpro/devkitarm/bin/../lib/gcc/arm-eabi/4.7.0/../../../../arm-eabi/lib/thumb\libstdc++.a(string-inst.o)
 .group         0x00000000       0x10 c:/devkitpro/devkitarm/bin/../lib/gcc/arm-eabi/4.7.0/../../../../arm-eabi/lib/thumb\libstdc++.a(string-inst.o)
 .group         0x00000000       0x10 c:/devkitpro/devkitarm/bin/../lib/gcc/arm-eabi/4.7.0/../../../../arm-eabi/lib/thumb\libstdc++.a(string-inst.o)
 .group         0x00000000       0x10 c:/devkitpro/devkitarm/bin/../lib/gcc/arm-eabi/4.7.0/../../../../arm-eabi/lib/thumb\libstdc++.a(string-inst.o)
 .group         0x00000000       0x10 c:/devkitpro/devkitarm/bin/../lib/gcc/arm-eabi/4.7.0/../../../../arm-eabi/lib/thumb\libstdc++.a(string-inst.o)
 .group         0x00000000       0x10 c:/devkitpro/devkitarm/bin/../lib/gcc/arm-eabi/4.7.0/../../../../arm-eabi/lib/thumb\libstdc++.a(string-inst.o)
 .group         0x00000000       0x10 c:/devkitpro/devkitarm/bin/../lib/gcc/arm-eabi/4.7.0/../../../../arm-eabi/lib/thumb\libstdc++.a(string-inst.o)
 .group         0x00000000       0x10 c:/devkitpro/devkitarm/bin/../lib/gcc/arm-eabi/4.7.0/../../../../arm-eabi/lib/thumb\libstdc++.a(string-inst.o)
 .group         0x00000000       0x10 c:/devkitpro/devkitarm/bin/../lib/gcc/arm-eabi/4.7.0/../../../../arm-eabi/lib/thumb\libstdc++.a(string-inst.o)
 .group         0x00000000       0x10 c:/devkitpro/devkitarm/bin/../lib/gcc/arm-eabi/4.7.0/../../../../arm-eabi/lib/thumb\libstdc++.a(string-inst.o)
 .group         0x00000000       0x10 c:/devkitpro/devkitarm/bin/../lib/gcc/arm-eabi/4.7.0/../../../../arm-eabi/lib/thumb\libstdc++.a(string-inst.o)
 .group         0x00000000       0x10 c:/devkitpro/devkitarm/bin/../lib/gcc/arm-eabi/4.7.0/../../../../arm-eabi/lib/thumb\libstdc++.a(string-inst.o)
 .group         0x00000000       0x10 c:/devkitpro/devkitarm/bin/../lib/gcc/arm-eabi/4.7.0/../../../../arm-eabi/lib/thumb\libstdc++.a(string-inst.o)
 .group         0x00000000       0x10 c:/devkitpro/devkitarm/bin/../lib/gcc/arm-eabi/4.7.0/../../../../arm-eabi/lib/thumb\libstdc++.a(string-inst.o)
 .group         0x00000000       0x10 c:/devkitpro/devkitarm/bin/../lib/gcc/arm-eabi/4.7.0/../../../../arm-eabi/lib/thumb\libstdc++.a(string-inst.o)
 .group         0x00000000       0x10 c:/devkitpro/devkitarm/bin/../lib/gcc/arm-eabi/4.7.0/../../../../arm-eabi/lib/thumb\libstdc++.a(string-inst.o)
 .group         0x00000000       0x10 c:/devkitpro/devkitarm/bin/../lib/gcc/arm-eabi/4.7.0/../../../../arm-eabi/lib/thumb\libstdc++.a(string-inst.o)
 .group         0x00000000       0x10 c:/devkitpro/devkitarm/bin/../lib/gcc/arm-eabi/4.7.0/../../../../arm-eabi/lib/thumb\libstdc++.a(string-inst.o)
 .group         0x00000000       0x10 c:/devkitpro/devkitarm/bin/../lib/gcc/arm-eabi/4.7.0/../../../../arm-eabi/lib/thumb\libstdc++.a(string-inst.o)
 .group         0x00000000       0x10 c:/devkitpro/devkitarm/bin/../lib/gcc/arm-eabi/4.7.0/../../../../arm-eabi/lib/thumb\libstdc++.a(string-inst.o)
 .group         0x00000000       0x10 c:/devkitpro/devkitarm/bin/../lib/gcc/arm-eabi/4.7.0/../../../../arm-eabi/lib/thumb\libstdc++.a(string-inst.o)
 .group         0x00000000       0x10 c:/devkitpro/devkitarm/bin/../lib/gcc/arm-eabi/4.7.0/../../../../arm-eabi/lib/thumb\libstdc++.a(string-inst.o)
 .group         0x00000000       0x10 c:/devkitpro/devkitarm/bin/../lib/gcc/arm-eabi/4.7.0/../../../../arm-eabi/lib/thumb\libstdc++.a(string-inst.o)
 .group         0x00000000       0x10 c:/devkitpro/devkitarm/bin/../lib/gcc/arm-eabi/4.7.0/../../../../arm-eabi/lib/thumb\libstdc++.a(string-inst.o)
 .group         0x00000000       0x10 c:/devkitpro/devkitarm/bin/../lib/gcc/arm-eabi/4.7.0/../../../../arm-eabi/lib/thumb\libstdc++.a(string-inst.o)
 .group         0x00000000       0x10 c:/devkitpro/devkitarm/bin/../lib/gcc/arm-eabi/4.7.0/../../../../arm-eabi/lib/thumb\libstdc++.a(string-inst.o)
 .group         0x00000000       0x10 c:/devkitpro/devkitarm/bin/../lib/gcc/arm-eabi/4.7.0/../../../../arm-eabi/lib/thumb\libstdc++.a(string-inst.o)
 .group         0x00000000       0x10 c:/devkitpro/devkitarm/bin/../lib/gcc/arm-eabi/4.7.0/../../../../arm-eabi/lib/thumb\libstdc++.a(string-inst.o)
 .group         0x00000000       0x10 c:/devkitpro/devkitarm/bin/../lib/gcc/arm-eabi/4.7.0/../../../../arm-eabi/lib/thumb\libstdc++.a(string-inst.o)
 .group         0x00000000       0x10 c:/devkitpro/devkitarm/bin/../lib/gcc/arm-eabi/4.7.0/../../../../arm-eabi/lib/thumb\libstdc++.a(string-inst.o)
 .group         0x00000000       0x10 c:/devkitpro/devkitarm/bin/../lib/gcc/arm-eabi/4.7.0/../../../../arm-eabi/lib/thumb\libstdc++.a(string-inst.o)
 .group         0x00000000       0x10 c:/devkitpro/devkitarm/bin/../lib/gcc/arm-eabi/4.7.0/../../../../arm-eabi/lib/thumb\libstdc++.a(string-inst.o)
 .group         0x00000000       0x10 c:/devkitpro/devkitarm/bin/../lib/gcc/arm-eabi/4.7.0/../../../../arm-eabi/lib/thumb\libstdc++.a(string-inst.o)
 .group         0x00000000       0x10 c:/devkitpro/devkitarm/bin/../lib/gcc/arm-eabi/4.7.0/../../../../arm-eabi/lib/thumb\libstdc++.a(string-inst.o)
 .group         0x00000000       0x10 c:/devkitpro/devkitarm/bin/../lib/gcc/arm-eabi/4.7.0/../../../../arm-eabi/lib/thumb\libstdc++.a(string-inst.o)
 .group         0x00000000       0x10 c:/devkitpro/devkitarm/bin/../lib/gcc/arm-eabi/4.7.0/../../../../arm-eabi/lib/thumb\libstdc++.a(string-inst.o)
 .group         0x00000000       0x10 c:/devkitpro/devkitarm/bin/../lib/gcc/arm-eabi/4.7.0/../../../../arm-eabi/lib/thumb\libstdc++.a(string-inst.o)
 .group         0x00000000       0x10 c:/devkitpro/devkitarm/bin/../lib/gcc/arm-eabi/4.7.0/../../../../arm-eabi/lib/thumb\libstdc++.a(string-inst.o)
 .group         0x00000000       0x10 c:/devkitpro/devkitarm/bin/../lib/gcc/arm-eabi/4.7.0/../../../../arm-eabi/lib/thumb\libstdc++.a(string-inst.o)
 .group         0x00000000       0x10 c:/devkitpro/devkitarm/bin/../lib/gcc/arm-eabi/4.7.0/../../../../arm-eabi/lib/thumb\libstdc++.a(string-inst.o)
 .group         0x00000000       0x10 c:/devkitpro/devkitarm/bin/../lib/gcc/arm-eabi/4.7.0/../../../../arm-eabi/lib/thumb\libstdc++.a(string-inst.o)
 .group         0x00000000       0x10 c:/devkitpro/devkitarm/bin/../lib/gcc/arm-eabi/4.7.0/../../../../arm-eabi/lib/thumb\libstdc++.a(string-inst.o)
 .group         0x00000000       0x10 c:/devkitpro/devkitarm/bin/../lib/gcc/arm-eabi/4.7.0/../../../../arm-eabi/lib/thumb\libstdc++.a(string-inst.o)
 .group         0x00000000       0x10 c:/devkitpro/devkitarm/bin/../lib/gcc/arm-eabi/4.7.0/../../../../arm-eabi/lib/thumb\libstdc++.a(string-inst.o)
 .group         0x00000000       0x10 c:/devkitpro/devkitarm/bin/../lib/gcc/arm-eabi/4.7.0/../../../../arm-eabi/lib/thumb\libstdc++.a(string-inst.o)
 .group         0x00000000       0x10 c:/devkitpro/devkitarm/bin/../lib/gcc/arm-eabi/4.7.0/../../../../arm-eabi/lib/thumb\libstdc++.a(string-inst.o)
 .group         0x00000000       0x10 c:/devkitpro/devkitarm/bin/../lib/gcc/arm-eabi/4.7.0/../../../../arm-eabi/lib/thumb\libstdc++.a(string-inst.o)
 .group         0x00000000       0x10 c:/devkitpro/devkitarm/bin/../lib/gcc/arm-eabi/4.7.0/../../../../arm-eabi/lib/thumb\libstdc++.a(string-inst.o)
 .group         0x00000000       0x10 c:/devkitpro/devkitarm/bin/../lib/gcc/arm-eabi/4.7.0/../../../../arm-eabi/lib/thumb\libstdc++.a(string-inst.o)
 .group         0x00000000       0x10 c:/devkitpro/devkitarm/bin/../lib/gcc/arm-eabi/4.7.0/../../../../arm-eabi/lib/thumb\libstdc++.a(string-inst.o)
 .group         0x00000000       0x10 c:/devkitpro/devkitarm/bin/../lib/gcc/arm-eabi/4.7.0/../../../../arm-eabi/lib/thumb\libstdc++.a(string-inst.o)
 .group         0x00000000       0x10 c:/devkitpro/devkitarm/bin/../lib/gcc/arm-eabi/4.7.0/../../../../arm-eabi/lib/thumb\libstdc++.a(string-inst.o)
 .group         0x00000000       0x10 c:/devkitpro/devkitarm/bin/../lib/gcc/arm-eabi/4.7.0/../../../../arm-eabi/lib/thumb\libstdc++.a(string-inst.o)
 .group         0x00000000       0x10 c:/devkitpro/devkitarm/bin/../lib/gcc/arm-eabi/4.7.0/../../../../arm-eabi/lib/thumb\libstdc++.a(string-inst.o)
 .group         0x00000000       0x10 c:/devkitpro/devkitarm/bin/../lib/gcc/arm-eabi/4.7.0/../../../../arm-eabi/lib/thumb\libstdc++.a(string-inst.o)
 .group         0x00000000       0x10 c:/devkitpro/devkitarm/bin/../lib/gcc/arm-eabi/4.7.0/../../../../arm-eabi/lib/thumb\libstdc++.a(string-inst.o)
 .group         0x00000000       0x10 c:/devkitpro/devkitarm/bin/../lib/gcc/arm-eabi/4.7.0/../../../../arm-eabi/lib/thumb\libstdc++.a(string-inst.o)
 .group         0x00000000       0x10 c:/devkitpro/devkitarm/bin/../lib/gcc/arm-eabi/4.7.0/../../../../arm-eabi/lib/thumb\libstdc++.a(string-inst.o)
 .group         0x00000000       0x10 c:/devkitpro/devkitarm/bin/../lib/gcc/arm-eabi/4.7.0/../../../../arm-eabi/lib/thumb\libstdc++.a(string-inst.o)
 .group         0x00000000       0x10 c:/devkitpro/devkitarm/bin/../lib/gcc/arm-eabi/4.7.0/../../../../arm-eabi/lib/thumb\libstdc++.a(string-inst.o)
 .group         0x00000000       0x10 c:/devkitpro/devkitarm/bin/../lib/gcc/arm-eabi/4.7.0/../../../../arm-eabi/lib/thumb\libstdc++.a(string-inst.o)
 .group         0x00000000       0x10 c:/devkitpro/devkitarm/bin/../lib/gcc/arm-eabi/4.7.0/../../../../arm-eabi/lib/thumb\libstdc++.a(string-inst.o)
 .group         0x00000000       0x10 c:/devkitpro/devkitarm/bin/../lib/gcc/arm-eabi/4.7.0/../../../../arm-eabi/lib/thumb\libstdc++.a(string-inst.o)
 .group         0x00000000       0x10 c:/devkitpro/devkitarm/bin/../lib/gcc/arm-eabi/4.7.0/../../../../arm-eabi/lib/thumb\libstdc++.a(string-inst.o)
 .group         0x00000000       0x10 c:/devkitpro/devkitarm/bin/../lib/gcc/arm-eabi/4.7.0/../../../../arm-eabi/lib/thumb\libstdc++.a(string-inst.o)
 .group         0x00000000       0x10 c:/devkitpro/devkitarm/bin/../lib/gcc/arm-eabi/4.7.0/../../../../arm-eabi/lib/thumb\libstdc++.a(string-inst.o)
 .group         0x00000000       0x10 c:/devkitpro/devkitarm/bin/../lib/gcc/arm-eabi/4.7.0/../../../../arm-eabi/lib/thumb\libstdc++.a(string-inst.o)
 .group         0x00000000       0x10 c:/devkitpro/devkitarm/bin/../lib/gcc/arm-eabi/4.7.0/../../../../arm-eabi/lib/thumb\libstdc++.a(string-inst.o)
 .group         0x00000000       0x10 c:/devkitpro/devkitarm/bin/../lib/gcc/arm-eabi/4.7.0/../../../../arm-eabi/lib/thumb\libstdc++.a(string-inst.o)
 .group         0x00000000       0x10 c:/devkitpro/devkitarm/bin/../lib/gcc/arm-eabi/4.7.0/../../../../arm-eabi/lib/thumb\libstdc++.a(string-inst.o)
 .group         0x00000000       0x10 c:/devkitpro/devkitarm/bin/../lib/gcc/arm-eabi/4.7.0/../../../../arm-eabi/lib/thumb\libstdc++.a(string-inst.o)
 .group         0x00000000       0x10 c:/devkitpro/devkitarm/bin/../lib/gcc/arm-eabi/4.7.0/../../../../arm-eabi/lib/thumb\libstdc++.a(string-inst.o)
 .group         0x00000000       0x10 c:/devkitpro/devkitarm/bin/../lib/gcc/arm-eabi/4.7.0/../../../../arm-eabi/lib/thumb\libstdc++.a(string-inst.o)
 .group         0x00000000       0x10 c:/devkitpro/devkitarm/bin/../lib/gcc/arm-eabi/4.7.0/../../../../arm-eabi/lib/thumb\libstdc++.a(string-inst.o)
 .group         0x00000000       0x10 c:/devkitpro/devkitarm/bin/../lib/gcc/arm-eabi/4.7.0/../../../../arm-eabi/lib/thumb\libstdc++.a(string-inst.o)
 .group         0x00000000       0x10 c:/devkitpro/devkitarm/bin/../lib/gcc/arm-eabi/4.7.0/../../../../arm-eabi/lib/thumb\libstdc++.a(string-inst.o)
 .group         0x00000000       0x10 c:/devkitpro/devkitarm/bin/../lib/gcc/arm-eabi/4.7.0/../../../../arm-eabi/lib/thumb\libstdc++.a(string-inst.o)
 .group         0x00000000       0x10 c:/devkitpro/devkitarm/bin/../lib/gcc/arm-eabi/4.7.0/../../../../arm-eabi/lib/thumb\libstdc++.a(string-inst.o)
 .group         0x00000000       0x10 c:/devkitpro/devkitarm/bin/../lib/gcc/arm-eabi/4.7.0/../../../../arm-eabi/lib/thumb\libstdc++.a(string-inst.o)
 .group         0x00000000       0x10 c:/devkitpro/devkitarm/bin/../lib/gcc/arm-eabi/4.7.0/../../../../arm-eabi/lib/thumb\libstdc++.a(string-inst.o)
 .group         0x00000000       0x10 c:/devkitpro/devkitarm/bin/../lib/gcc/arm-eabi/4.7.0/../../../../arm-eabi/lib/thumb\libstdc++.a(string-inst.o)
 .group         0x00000000       0x10 c:/devkitpro/devkitarm/bin/../lib/gcc/arm-eabi/4.7.0/../../../../arm-eabi/lib/thumb\libstdc++.a(string-inst.o)
 .group         0x00000000       0x10 c:/devkitpro/devkitarm/bin/../lib/gcc/arm-eabi/4.7.0/../../../../arm-eabi/lib/thumb\libstdc++.a(string-inst.o)
 .group         0x00000000       0x10 c:/devkitpro/devkitarm/bin/../lib/gcc/arm-eabi/4.7.0/../../../../arm-eabi/lib/thumb\libstdc++.a(string-inst.o)
 .group         0x00000000       0x10 c:/devkitpro/devkitarm/bin/../lib/gcc/arm-eabi/4.7.0/../../../../arm-eabi/lib/thumb\libstdc++.a(string-inst.o)
 .group         0x00000000       0x10 c:/devkitpro/devkitarm/bin/../lib/gcc/arm-eabi/4.7.0/../../../../arm-eabi/lib/thumb\libstdc++.a(string-inst.o)
 .group         0x00000000       0x10 c:/devkitpro/devkitarm/bin/../lib/gcc/arm-eabi/4.7.0/../../../../arm-eabi/lib/thumb\libstdc++.a(string-inst.o)
 .group         0x00000000       0x10 c:/devkitpro/devkitarm/bin/../lib/gcc/arm-eabi/4.7.0/../../../../arm-eabi/lib/thumb\libstdc++.a(string-inst.o)
 .group         0x00000000       0x10 c:/devkitpro/devkitarm/bin/../lib/gcc/arm-eabi/4.7.0/../../../../arm-eabi/lib/thumb\libstdc++.a(string-inst.o)
 .group         0x00000000       0x10 c:/devkitpro/devkitarm/bin/../lib/gcc/arm-eabi/4.7.0/../../../../arm-eabi/lib/thumb\libstdc++.a(string-inst.o)
 .group         0x00000000       0x10 c:/devkitpro/devkitarm/bin/../lib/gcc/arm-eabi/4.7.0/../../../../arm-eabi/lib/thumb\libstdc++.a(string-inst.o)
 .group         0x00000000       0x10 c:/devkitpro/devkitarm/bin/../lib/gcc/arm-eabi/4.7.0/../../../../arm-eabi/lib/thumb\libstdc++.a(string-inst.o)
 .group         0x00000000       0x10 c:/devkitpro/devkitarm/bin/../lib/gcc/arm-eabi/4.7.0/../../../../arm-eabi/lib/thumb\libstdc++.a(string-inst.o)
 .group         0x00000000       0x10 c:/devkitpro/devkitarm/bin/../lib/gcc/arm-eabi/4.7.0/../../../../arm-eabi/lib/thumb\libstdc++.a(string-inst.o)
 .group         0x00000000       0x10 c:/devkitpro/devkitarm/bin/../lib/gcc/arm-eabi/4.7.0/../../../../arm-eabi/lib/thumb\libstdc++.a(string-inst.o)
 .group         0x00000000       0x10 c:/devkitpro/devkitarm/bin/../lib/gcc/arm-eabi/4.7.0/../../../../arm-eabi/lib/thumb\libstdc++.a(string-inst.o)
 .group         0x00000000       0x10 c:/devkitpro/devkitarm/bin/../lib/gcc/arm-eabi/4.7.0/../../../../arm-eabi/lib/thumb\libstdc++.a(string-inst.o)
 .group         0x00000000       0x10 c:/devkitpro/devkitarm/bin/../lib/gcc/arm-eabi/4.7.0/../../../../arm-eabi/lib/thumb\libstdc++.a(string-inst.o)
 .group         0x00000000       0x10 c:/devkitpro/devkitarm/bin/../lib/gcc/arm-eabi/4.7.0/../../../../arm-eabi/lib/thumb\libstdc++.a(string-inst.o)
 .group         0x00000000       0x10 c:/devkitpro/devkitarm/bin/../lib/gcc/arm-eabi/4.7.0/../../../../arm-eabi/lib/thumb\libstdc++.a(string-inst.o)
 .group         0x00000000       0x10 c:/devkitpro/devkitarm/bin/../lib/gcc/arm-eabi/4.7.0/../../../../arm-eabi/lib/thumb\libstdc++.a(string-inst.o)
 .group         0x00000000       0x10 c:/devkitpro/devkitarm/bin/../lib/gcc/arm-eabi/4.7.0/../../../../arm-eabi/lib/thumb\libstdc++.a(string-inst.o)
 .group         0x00000000       0x10 c:/devkitpro/devkitarm/bin/../lib/gcc/arm-eabi/4.7.0/../../../../arm-eabi/lib/thumb\libstdc++.a(string-inst.o)
 .group         0x00000000       0x10 c:/devkitpro/devkitarm/bin/../lib/gcc/arm-eabi/4.7.0/../../../../arm-eabi/lib/thumb\libstdc++.a(string-inst.o)
 .group         0x00000000       0x10 c:/devkitpro/devkitarm/bin/../lib/gcc/arm-eabi/4.7.0/../../../../arm-eabi/lib/thumb\libstdc++.a(string-inst.o)
 .group         0x00000000       0x10 c:/devkitpro/devkitarm/bin/../lib/gcc/arm-eabi/4.7.0/../../../../arm-eabi/lib/thumb\libstdc++.a(string-inst.o)
 .group         0x00000000       0x10 c:/devkitpro/devkitarm/bin/../lib/gcc/arm-eabi/4.7.0/../../../../arm-eabi/lib/thumb\libstdc++.a(string-inst.o)
 .group         0x00000000       0x10 c:/devkitpro/devkitarm/bin/../lib/gcc/arm-eabi/4.7.0/../../../../arm-eabi/lib/thumb\libstdc++.a(string-inst.o)
 .group         0x00000000       0x10 c:/devkitpro/devkitarm/bin/../lib/gcc/arm-eabi/4.7.0/../../../../arm-eabi/lib/thumb\libstdc++.a(string-inst.o)
 .group         0x00000000       0x10 c:/devkitpro/devkitarm/bin/../lib/gcc/arm-eabi/4.7.0/../../../../arm-eabi/lib/thumb\libstdc++.a(string-inst.o)
 .group         0x00000000       0x10 c:/devkitpro/devkitarm/bin/../lib/gcc/arm-eabi/4.7.0/../../../../arm-eabi/lib/thumb\libstdc++.a(string-inst.o)
 .group         0x00000000       0x10 c:/devkitpro/devkitarm/bin/../lib/gcc/arm-eabi/4.7.0/../../../../arm-eabi/lib/thumb\libstdc++.a(string-inst.o)
 .group         0x00000000       0x10 c:/devkitpro/devkitarm/bin/../lib/gcc/arm-eabi/4.7.0/../../../../arm-eabi/lib/thumb\libstdc++.a(string-inst.o)
 .group         0x00000000       0x10 c:/devkitpro/devkitarm/bin/../lib/gcc/arm-eabi/4.7.0/../../../../arm-eabi/lib/thumb\libstdc++.a(string-inst.o)
 .group         0x00000000       0x10 c:/devkitpro/devkitarm/bin/../lib/gcc/arm-eabi/4.7.0/../../../../arm-eabi/lib/thumb\libstdc++.a(string-inst.o)
 .group         0x00000000       0x10 c:/devkitpro/devkitarm/bin/../lib/gcc/arm-eabi/4.7.0/../../../../arm-eabi/lib/thumb\libstdc++.a(string-inst.o)
 .group         0x00000000       0x10 c:/devkitpro/devkitarm/bin/../lib/gcc/arm-eabi/4.7.0/../../../../arm-eabi/lib/thumb\libstdc++.a(string-inst.o)
 .group         0x00000000       0x10 c:/devkitpro/devkitarm/bin/../lib/gcc/arm-eabi/4.7.0/../../../../arm-eabi/lib/thumb\libstdc++.a(string-inst.o)
 .group         0x00000000       0x10 c:/devkitpro/devkitarm/bin/../lib/gcc/arm-eabi/4.7.0/../../../../arm-eabi/lib/thumb\libstdc++.a(string-inst.o)
 .group         0x00000000       0x10 c:/devkitpro/devkitarm/bin/../lib/gcc/arm-eabi/4.7.0/../../../../arm-eabi/lib/thumb\libstdc++.a(string-inst.o)
 .group         0x00000000       0x10 c:/devkitpro/devkitarm/bin/../lib/gcc/arm-eabi/4.7.0/../../../../arm-eabi/lib/thumb\libstdc++.a(string-inst.o)
 .group         0x00000000       0x10 c:/devkitpro/devkitarm/bin/../lib/gcc/arm-eabi/4.7.0/../../../../arm-eabi/lib/thumb\libstdc++.a(string-inst.o)
 .group         0x00000000       0x10 c:/devkitpro/devkitarm/bin/../lib/gcc/arm-eabi/4.7.0/../../../../arm-eabi/lib/thumb\libstdc++.a(string-inst.o)
 .group         0x00000000       0x10 c:/devkitpro/devkitarm/bin/../lib/gcc/arm-eabi/4.7.0/../../../../arm-eabi/lib/thumb\libstdc++.a(string-inst.o)
 .group         0x00000000       0x10 c:/devkitpro/devkitarm/bin/../lib/gcc/arm-eabi/4.7.0/../../../../arm-eabi/lib/thumb\libstdc++.a(string-inst.o)
 .group         0x00000000       0x10 c:/devkitpro/devkitarm/bin/../lib/gcc/arm-eabi/4.7.0/../../../../arm-eabi/lib/thumb\libstdc++.a(string-inst.o)
 .group         0x00000000       0x10 c:/devkitpro/devkitarm/bin/../lib/gcc/arm-eabi/4.7.0/../../../../arm-eabi/lib/thumb\libstdc++.a(string-inst.o)
 .group         0x00000000       0x10 c:/devkitpro/devkitarm/bin/../lib/gcc/arm-eabi/4.7.0/../../../../arm-eabi/lib/thumb\libstdc++.a(string-inst.o)
 .group         0x00000000        0x8 c:/devkitpro/devkitarm/bin/../lib/gcc/arm-eabi/4.7.0/../../../../arm-eabi/lib/thumb\libstdc++.a(string-inst.o)
 .group         0x00000000        0x8 c:/devkitpro/devkitarm/bin/../lib/gcc/arm-eabi/4.7.0/../../../../arm-eabi/lib/thumb\libstdc++.a(string-inst.o)
 .group         0x00000000        0x8 c:/devkitpro/devkitarm/bin/../lib/gcc/arm-eabi/4.7.0/../../../../arm-eabi/lib/thumb\libstdc++.a(string-inst.o)
 .group         0x00000000        0x8 c:/devkitpro/devkitarm/bin/../lib/gcc/arm-eabi/4.7.0/../../../../arm-eabi/lib/thumb\libstdc++.a(string-inst.o)

Memory Configuration

Name             Origin             Length             Attributes
rom              0x08000000         0x02000000
gbarom           0x02180000         0x00280000
gbaew            0x02000000         0x00040000
ewram            0x02040000         0x00140000
dtcm             0x0b000000         0x00004000
vectors          0x01000000         0x00000300
itcm             0x01000300         0x00007d00
*default*        0x00000000         0xffffffff

Linker script and memory map

                0x01000000                __vectors_start = ORIGIN (vectors)
                0x01000300                __itcm_start = ORIGIN (itcm)
                0x02180000                __ewram_end = (ORIGIN (ewram) + 0x140000)
                0x02180000                __eheap_end = (ORIGIN (ewram) + 0x140000)
                0x0b000000                __dtcm_start = ORIGIN (dtcm)
                0x0b004000                __dtcm_top = (ORIGIN (dtcm) + 0x4000)
                0x0b003ff8                __irq_flags = (__dtcm_top - 0x8)
                0x0b003ffc                __irq_vector = (__dtcm_top - 0x4)
                0x0b003f00                __sp_svc = (__dtcm_top - 0x100)
                0x0b003e00                __sp_irq = (__sp_svc - 0x100)
                0x0b003600                __sp_usr = (__sp_irq - 0x800)

.init           0x02040000      0x23c
                0x02040000                __text_start = .
 *(.init)
 .init          0x02040000      0x230 c:/devkitpro/devkitarm/bin/../lib/gcc/arm-eabi/4.7.0/../../../../arm-eabi/lib/thumb/ds_arm9_crt0.o
                0x02040000                _start
 .init          0x02040230        0x4 c:/devkitpro/devkitarm/bin/../lib/gcc/arm-eabi/4.7.0/thumb/crti.o
                0x02040230                _init
 .init          0x02040234        0x8 c:/devkitpro/devkitarm/bin/../lib/gcc/arm-eabi/4.7.0/thumb/crtn.o
                0x0204023c                . = ALIGN (0x4)

.plt
 *(.plt)

.text           0x02040240    0x4c6a8
 *(EXCLUDE_FILE(*.itcm*) .text)
 .text          0x02040240        0x0 c:/devkitpro/devkitarm/bin/../lib/gcc/arm-eabi/4.7.0/../../../../arm-eabi/lib/thumb/ds_arm9_crt0.o
 .text          0x02040240        0x0 c:/devkitpro/devkitarm/bin/../lib/gcc/arm-eabi/4.7.0/thumb/crti.o
 .text          0x02040240       0xd0 c:/devkitpro/devkitarm/bin/../lib/gcc/arm-eabi/4.7.0/thumb/crtbegin.o
 .text          0x02040310        0x0 default_font.bin.o
 .text          0x02040310      0x234 EEprom.o
                0x02040310                _Z10eepromInitv
                0x02040324                _Z11eepromResetv
                0x02040344                _Z14eepromSaveGamePv
                0x02040370                _Z14eepromReadGamePvi
                0x020403a8                _Z10eepromReadj
                0x02040418                _Z11eepromWritejh
 .text          0x02040544      0x2f0 Flash.o
                0x02040544                _Z10flashWritejh
                0x0204068c                _Z9flashInitv
                0x020406a4                _Z10flashResetv
                0x020406bc                _Z13flashSaveGamePv
                0x020406cc                _Z13flashReadGamePvi
                0x0204072c                _Z12flashSetSizei
                0x02040784                _Z9flashReadj
                0x020407e0                _Z15flashSaveDecidejh
                0x02040814                _Z17flashDelayedWritejh
 *fill*         0x02040834        0x4 ff
 .text          0x02040838     0x3cd0 GBA.o
                0x02040838                _Z15CPUWritePNGFilePKc
                0x0204083c                _Z15CPUWriteBMPFilePKc
                0x02040840                _Z13CPUUpdateCPSRv
                0x020408c8                _Z10CPUCleanUpv
                0x02040994                _Z12CPUIsGBABiosPKc
                0x020409f8                _Z18CPUReadBatteryFilePKc
                0x02040b7c                _Z16CPUWriteMemStatePci
                0x02040bb4                _Z19CPUWriteBatteryFilePKc
                0x02040c74                _Z13CPUWriteStatePKc
                0x02040cac                _Z8CPUResetv
                0x02041310                _Z19CPUExportEepromFilePKc
                0x02041404                _Z19CPUImportEepromFilePKc
                0x020414a8                _Z12CPUIsZipFilePKc
                0x020414d4                _Z8CPUIsELFPKc
                0x02041500                _Z10CPULoadRomPKcb
                0x02041608                _Z14CPUUpdateFlagsb
                0x02041694                _Z14CPUUpdateFlagsv
                0x0204171c                _Z13CPUSwitchModeibb
                0x02041a1c                _Z13CPUSwitchModeib
                0x02041a28                _Z16CPUWriteHalfWordjt
                0x02041b40                _Z9doDMAslowRjS_jjji
                0x02042508                _Z5doDMARjS_jjji
                0x0204262c                _Z11CPUCheckDMAii
                0x02042a48                _Z17CPUUpdateRegisterjt
                0x02043b40                _Z12CPUReadStatePKc
                0x02043b68                _Z15CPUReadMemStatePci
                0x02043b88                _Z12CPUWriteBytejh
                0x02043d30                _Z7CPUInitPKcbb
                0x020444fc                _Z14systemGetClockv
                0x02044500                _Z6winLogPKcz
 .text          0x02044508        0x0 Globals.o
 .text          0x02044508      0x388 RTC.o
                0x02044508                _Z9rtcEnableb
                0x02044514                _Z12rtcIsEnabledv
                0x02044520                _Z7rtcReadj
                0x0204456c                _Z8rtcWritejt
                0x02044844                _Z8rtcResetv
                0x02044868                _Z11rtcSaveGamePv
                0x0204487c                _Z11rtcReadGamePv
 .text          0x02044890       0x58 Sram.o
                0x02044890                _Z9sramWritejh
                0x020448a8                _Z8sramReadj
                0x020448b8                _Z16sramDelayedWritejh
 .text          0x020448e8      0x884 Util.o
                0x020448e8                _Z12utilPutDwordPhj
                0x020448f8                _Z11utilPutWordPht
                0x02044900                _Z12utilWriteBMPPciiPh
                0x020449a4                _Z16utilWriteBMPFilePKciiPh
                0x02044b4c                _Z12utilApplyIPSPKcPPhPi
                0x02044d3c                _Z9utilIsSAVPKc
                0x02044d74                _Z14utilIsGBAImagePKc
                0x02044de8                _Z13utilIsGBImagePKc
                0x02044e4c                _Z13utilIsZipFilePKc
                0x02044e78                _Z14utilIsGzipFilePKc
                0x02044ebc                _Z15utilGetBaseNamePKcPc
                0x02044f14                _Z8utilLoadPKcPFbS0_EPhRib
                0x02044f7c                _Z12utilWriteIntPvi
                0x02044f94                _Z11utilReadIntPv
                0x02044fb0                _Z12utilReadDataPvP13variable_desc
                0x02044fd0                _Z13utilWriteDataPvP13variable_desc
                0x02044ff0                _Z10utilGzOpenPKcS0_
                0x02044ff8                _Z13utilMemGzOpenPciS_
                0x02045004                _Z11utilGzWritePvPKvj
                0x02045014                _Z10utilGzReadPvS_j
                0x02045024                _Z11utilGzClosePv
                0x0204502c                _Z13utilGzMemTellPv
                0x02045034                _Z15utilGBAFindSavePKhi
 .text          0x0204516c      0x18c agbprint.o
                0x0204516c                _Z13agbPrintWritejt
                0x020451f4                _Z13agbPrintResetv
                0x02045200                _Z14agbPrintEnableb
                0x0204520c                _Z17agbPrintIsEnabledv
                0x02045218                _Z13agbPrintFlushv
 .text          0x020452f8     0x1660 armdis.o
                0x020452f8                _Z6addStrPcPKc
                0x02045310                _Z6addHexPcij
                0x0204539c                _Z6disArmjPci
                0x02046244                _Z8disThumbjPci
 .text          0x02046958     0xba78 bios.o
                0x02047304                _Z11BIOS_ArcTanv
                0x02047374                _Z12BIOS_ArcTan2v
                0x020474dc                _Z14BIOS_BitUnPackv
                0x02047d54                _Z20BIOS_GetBiosChecksumv
                0x02047d64                _Z16BIOS_BgAffineSetv
                0x02049978                _Z11BIOS_CpuSetv
                0x02049cb4                _Z15BIOS_CpuFastSetv
                0x0204a5d4                _Z25BIOS_Diff8bitUnFilterWramv
                0x0204abf8                _Z25BIOS_Diff8bitUnFilterVramv
                0x0204b240                _Z22BIOS_Diff16bitUnFilterv
                0x0204b878                _Z8BIOS_Divv
                0x0204b8a8                _Z11BIOS_DivARMv
                0x0204b8dc                _Z15BIOS_HuffUnCompv
                0x0204c914                _Z19BIOS_LZ77UnCompVramv
                0x0204e14c                _Z19BIOS_LZ77UnCompWramv
                0x0204f974                _Z17BIOS_ObjAffineSetv
                0x0205043c                _Z21BIOS_RegisterRamResetj
                0x02050834                _Z21BIOS_RegisterRamResetv
                0x02050844                _Z17BIOS_RLUnCompVramv
                0x0205135c                _Z17BIOS_RLUnCompWramv
                0x02051db8                _Z14BIOS_SoftResetv
                0x02051e68                _Z9BIOS_Sqrtv
                0x02051e84                _Z17BIOS_MidiKey2Freqv
                0x02052234                _Z26BIOS_SndDriverJmpTableCopyv
 .text          0x020523d0     0x15c0 cpumg.o
                0x02052e94                _Z9debugDumpv
                0x0205313c                _Z17undifinedresolverv
                0x02053184                _Z17unknowndebugprintP8reg_pair
                0x0205320c                _Z15gbaExceptionHdlv
                0x020532b4                failcpphandler
                0x020532ec                _Z21exInitundifinedsystemPFvvE
                0x020532f8                _Z15exInitswisystemPFvvE
                0x02053304                _Z6exInitPFvvE
                0x02053310                _Z7gbaInitv
                0x020533cc                _Z8BIOScalliPi
                0x02053524                _Z17gbaswieulatedbiosv
                0x02053570                _Z27switch_to_unprivileged_modev
                0x02053584                _Z18emulateedbiosstartv
                0x02053598                _Z12downgreadcpuv
                0x020535ac                _Z7ndsModev
                0x020535c4                _Z8gbaMode2v
                0x020535dc                _Z19getExceptionAddressjj
                0x02053864                _Z15ndsExceptionHdlv
                0x02053924                _Z8ARMShiftmh
 .text          0x02053990      0xc10 file_browse.o
                0x02053990                _Z17dirEntryPredicateRK8DirEntryS1_
                0x020539b8                _Z12nameEndsWithRKSsS0_
                0x020539e8                _Z21showDirectoryContentsRKSt6vectorI8DirEntrySaIS0_EEi
                0x02053af0                _Z12printgbainfoPKc
                0x02053d68                _Z20getDirectoryContentsRSt6vectorI8DirEntrySaIS0_EERKSs
                0x02053f7c                _Z13browseForFileRKSs
                0x0205455c                _Z20getDirectoryContentsRSt6vectorI8DirEntrySaIS0_EE
 .text          0x020545a0      0xaa0 main.o
                0x020545a0                _Z9speedtestv
                0x020545a4                _Z13HblankHandlerv
                0x020545b0                _Z14frameasyncsyncv
                0x020549e0                _Z10pausemenuev
                0x02054b60                _Z13VblankHandlerv
 .text          0x02055040      0x4c4 mydebuger.o
                0x02055040                _Z8show_memv
 .text          0x02055504        0x0 sound.o
 .text          0x02055504       0x5c system.o
                0x02055504                _Z12debuggerMainv
                0x02055508                _Z14debuggerSignalii
                0x0205550c                _Z14debuggerOutputPcj
                0x02055510                _Z13systemMessageiPKcz
                0x0205553c                _Z24systemUpdateMotionSensorv
                0x02055540                _Z16systemGetSensorXv
                0x02055544                _Z16systemGetSensorYv
                0x02055548                _Z13systemGbPrintPhiiii
                0x0205554c                _Z19systemScreenMessagePKc
                0x02055550                _Z27systemCanChangeSoundQualityv
                0x02055554                _Z18systemPauseOnFramev
                0x02055558                _Z16systemGbBorderOnv
                0x0205555c                _Z20debuggerBreakOnWritejjjii
 .text          0x02055560      0x830 background.o
                0x02055560                bgIsText
                0x0205556c                checkIfText
                0x020555c4                bgUpdate
                0x02055a4c                bgInit_call
                0x02055bec                bgInitSub_call
 .text          0x02055d90     0x1354 console.o
                0x02056254                con_write
                0x02056994                consoleGetDefault
                0x020569a0                consoleLoadFont
                0x02056c58                consoleInit
                0x02056fd8                consoleSelect
                0x02056fe8                consoleSetFont
                0x02057008                consoleDebugInit
                0x02057040                consoleDemoInit
                0x02057084                consolePrintChar
                0x020570b0                consoleClear
                0x020570c0                consoleSetWindow
 .text          0x020570e4      0x168 devkitpatcher.o
                0x020570e4                initSystem
                0x02057238                ichflyfifoinit
 .text          0x0205724c      0x25c dldi.o
                0x0205724c                dldiGetInternal
                0x02057284                dldiIsValid
                0x020572cc                dldiFixDriverAddresses
                0x020573a4                dldiLoadFromFile
                0x0205749c                dldiFree
 .text          0x020574a8       0x24 heapfuncs.o
                0x020574a8                getHeapStart
                0x020574b4                getHeapEnd
                0x020574c0                getHeapLimit
 .text          0x020574cc      0x244 interrupts.o
                0x020574cc                irqDummy
                0x020574d0                irqSet
                0x0205753c                irqInit
                0x02057588                irqInitHandler
                0x020575b8                irqEnable
                0x0205761c                irqDisable
                0x02057680                irqClear
 .text          0x02057710       0xac keys.o
                0x02057710                scanKeys
                0x02057758                keysHeld
                0x02057764                keysDown
                0x02057774                keysDownRepeat
                0x02057784                keysSetRepeat
                0x0205779c                keysUp
                0x020577ac                keysCurrent
 .text          0x020577bc        0x8 libnds_exit.o
                0x020577bc                systemErrorExit
                0x020577c0                __libnds_exit
 .text          0x020577c4       0x24 sassert.o
                0x020577c4                __sassert
 .text          0x020577e8      0x30c trig.o
                0x020577e8                asinComp
                0x02057810                sinLutLookup
                0x0205784c                sinLerp
                0x020578e4                cosLerp
                0x020578f8                tanLutLookup
                0x02057930                tanLerp
                0x020579d4                asinLerp
                0x02057a50                acosLerp
                0x02057acc                atanComp
 .text          0x02057af4      0x1f8 video.o
                0x02057af4                vramSetPrimaryBanks
                0x02057b38                vramSetMainBanks
                0x02057b7c                vramSetBanks_EFG
                0x02057bb4                vramRestorePrimaryBanks
                0x02057bc0                vramRestoreMainBanks
                0x02057bcc                vramRestoreBanks_EFG
                0x02057bd8                setBrightness
                0x02057c18                vramDefault
 *fill*         0x02057cec        0x4 ff
 .text          0x02057cf0      0x250 cpu_s.o
                0x02057cf0                readbankedsp
                0x02057d20                readbankedlr
                0x02057d50                cpuSetCPSR
                0x02057d58                puSetGbaIWRAM
                0x02057d64                cpu_GetMemPrem
                0x02057d6c                puSetMemPerm
                0x02057d74                pu_Enable
                0x02057d84                cpu_SetCP15Cnt
                0x02057d8c                cpu_GetCP15Cnt
                0x02057d94                cpu_ArmJump
                0x02057d9c                cpu_ArmJumpforstackinit
                0x02057dc8                cpuGetSPSR
                0x02057dd0                cpuGetCPSR
                0x02057dd8                pu_SetRegion
                0x02057e24                pu_SetDataPermissions
                0x02057e2c                pu_SetCodePermissions
                0x02057e34                pu_SetDataCachability
                0x02057e3c                pu_SetCodeCachability
                0x02057e44                pu_GetWriteBufferability
                0x02057e4c                ichflyswiWaitForVBlank
                0x02057e58                ichflyswiIntrWait
                0x02057f00                ichflyswiHalt
 .text          0x02057f40       0x70 dcache.o
                0x02057f40                DC_FlushAll
                0x02057f6c                DC_FlushRange
                0x02057f88                DC_InvalidateAll
                0x02057f94                DC_InvalidateRange
 *fill*         0x02057fb0       0x10 ff
 .text          0x02057fc0     0x8000 dldi_stub.o
                0x02057fc0                _io_dldi_stub
 .text          0x0205ffc0        0x0 ex_s.o
 .text          0x0205ffc0       0x28 icache.o
                0x0205ffc0                IC_InvalidateAll
                0x0205ffcc                IC_InvalidateRange
 .text          0x0205ffe8        0x0 interruptDispatcher.o
 .text          0x0205ffe8      0x1b4 mpu_setup.o
                0x0205ffe8                __libnds_mpu_setup
                0x02060128                memCached
                0x02060140                memUncached
 .text          0x0206019c      0x350 c:/devkitPro/libnds/lib\libfat.a(libfat.o)
                0x0206019c                fatMount
                0x02060260                fatMountSimple
                0x02060274                fatUnmount
                0x020602ac                fatInit
                0x02060404                fatInitDefault
                0x02060410                fatGetVolumeLabel
 .text          0x020604ec      0x754 c:/devkitPro/libnds/lib\libfat.a(partition.o)
                0x020604ec                FindFirstValidPartition_buf
                0x02060690                FindFirstValidPartition
                0x020606b8                _FAT_partition_getPartitionFromPath
                0x020606cc                _FAT_partition_createFSinfo
                0x0206078c                _FAT_partition_readFSinfo
                0x0206084c                _FAT_partition_constructor_buf
                0x02060b04                _FAT_partition_constructor
                0x02060b48                _FAT_partition_writeFSinfo
                0x02060c00                _FAT_partition_destructor
 .text          0x02060c40      0x4c8 c:/devkitPro/libnds/lib\libfat.a(cache.o)
                0x02060d30                _FAT_cache_constructor
                0x02060dcc                _FAT_cache_readSectors
                0x02060e28                _FAT_cache_readPartialSector
                0x02060e74                _FAT_cache_readLittleEndianValue
                0x02060ed4                _FAT_cache_writePartialSector
                0x02060f2c                _FAT_cache_writeLittleEndianValue
                0x02060f74                _FAT_cache_eraseWritePartialSector
                0x02060fdc                _FAT_cache_writeSectors
                0x02061044                _FAT_cache_flush
                0x020610a8                _FAT_cache_destructor
                0x020610dc                _FAT_cache_invalidate
 .text          0x02061108     0x1328 c:/devkitPro/libnds/lib\libfat.a(directory.o)
                0x02061380                _FAT_directory_entryGetCluster
                0x020613a8                _FAT_directory_getNextEntry
                0x02061590                _FAT_directory_getFirstEntry
                0x02061640                _FAT_directory_getRootEntry
                0x0206169c                _FAT_directory_getVolumeLabel
                0x0206174c                _FAT_directory_entryFromPosition
                0x0206188c                _FAT_directory_entryFromPath
                0x02061a44                _FAT_directory_removeEntry
                0x02061b18                _FAT_directory_addEntry
                0x0206232c                _FAT_directory_chdir
                0x02062368                _FAT_directory_entryStat
 .text          0x02062430        0x0 c:/devkitPro/libnds/lib\libfat.a(disc.o)
 .text          0x02062430      0x900 c:/devkitPro/libnds/lib\libfat.a(fatdir.o)
                0x02062430                _FAT_stat_r
                0x020624c4                _FAT_link_r
                0x020624d0                _FAT_unlink_r
                0x02062644                _FAT_chdir_r
                0x020626b4                _FAT_rename_r
                0x02062880                _FAT_mkdir_r
                0x02062af8                _FAT_statvfs_r
                0x02062b80                _FAT_diropen_r
                0x02062c40                _FAT_dirreset_r
                0x02062c8c                _FAT_dirnext_r
                0x02062d10                _FAT_dirclose_r
 .text          0x02062d30     0x12ec c:/devkitPro/libnds/lib\libfat.a(fatfile.o)
                0x02062fa4                _FAT_findEntry
                0x02062fe0                FAT_getAttr
                0x02063008                FAT_setAttr
                0x02063028                _FAT_open_r
                0x02063358                _FAT_syncToDisc
                0x02063438                _FAT_close_r
                0x020634a4                _FAT_read_r
                0x02063804                _FAT_write_r
                0x02063c80                _FAT_seek_r
                0x02063dd0                _FAT_fstat_r
                0x02063e6c                _FAT_ftruncate_r
                0x02063fdc                _FAT_fsync_r
 .text          0x0206401c      0x4b0 c:/devkitPro/libnds/lib\libfat.a(file_allocation_table.o)
                0x0206416c                _FAT_fat_nextCluster
                0x02064288                _FAT_fat_linkFreeCluster
                0x02064320                _FAT_fat_linkFreeClusterCleared
                0x02064390                _FAT_fat_clearLinks
                0x020643ec                _FAT_fat_trimChain
                0x02064470                _FAT_fat_lastCluster
                0x020644a4                _FAT_fat_freeClusterCount
 .text          0x020644cc       0xb8 c:/devkitPro/libnds/lib\libfat.a(filetime.o)
                0x020644cc                _FAT_filetime_getTimeFromRTC
                0x0206450c                _FAT_filetime_getDateFromRTC
                0x0206454c                _FAT_filetime_to_time_t
 .text          0x02064584       0x10 c:/devkitPro/libnds/lib\libfat.a(lock.o)
                0x02064584                _FAT_lock_init
                0x02064588                _FAT_lock_deinit
                0x0206458c                _FAT_lock
                0x02064590                _FAT_unlock
 .text          0x02064594        0x0 c:/devkitpro/devkitarm/bin/../lib/gcc/arm-eabi/4.7.0/../../../../arm-eabi/lib/thumb\libstdc++.a(new_op.o)
 .text          0x02064594        0x0 c:/devkitpro/devkitarm/bin/../lib/gcc/arm-eabi/4.7.0/../../../../arm-eabi/lib/thumb\libstdc++.a(eh_call.o)
 .text          0x02064594        0x0 c:/devkitpro/devkitarm/bin/../lib/gcc/arm-eabi/4.7.0/../../../../arm-eabi/lib/thumb\libstdc++.a(eh_personality.o)
 .text          0x02064594        0x0 c:/devkitpro/devkitarm/bin/../lib/gcc/arm-eabi/4.7.0/../../../../arm-eabi/lib/thumb\libstdc++.a(del_op.o)
 .text          0x02064594        0x0 c:/devkitpro/devkitarm/bin/../lib/gcc/arm-eabi/4.7.0/../../../../arm-eabi/lib/thumb\libstdc++.a(eh_terminate.o)
 .text          0x02064594        0x0 c:/devkitpro/devkitarm/bin/../lib/gcc/arm-eabi/4.7.0/../../../../arm-eabi/lib/thumb\libstdc++.a(eh_exception.o)
 .text          0x02064594        0x0 c:/devkitpro/devkitarm/bin/../lib/gcc/arm-eabi/4.7.0/../../../../arm-eabi/lib/thumb\libstdc++.a(eh_alloc.o)
 .text          0x02064594        0x0 c:/devkitpro/devkitarm/bin/../lib/gcc/arm-eabi/4.7.0/../../../../arm-eabi/lib/thumb\libstdc++.a(bad_alloc.o)
 .text          0x02064594        0x0 c:/devkitpro/devkitarm/bin/../lib/gcc/arm-eabi/4.7.0/../../../../arm-eabi/lib/thumb\libstdc++.a(class_type_info.o)
 .text          0x02064594        0x0 c:/devkitpro/devkitarm/bin/../lib/gcc/arm-eabi/4.7.0/../../../../arm-eabi/lib/thumb\libstdc++.a(new_handler.o)
 .text          0x02064594        0x0 c:/devkitpro/devkitarm/bin/../lib/gcc/arm-eabi/4.7.0/../../../../arm-eabi/lib/thumb\libstdc++.a(string-inst.o)
 .text          0x02064594        0x0 c:/devkitpro/devkitarm/bin/../lib/gcc/arm-eabi/4.7.0/../../../../arm-eabi/lib/thumb\libstdc++.a(functexcept.o)
 .text          0x02064594        0x0 c:/devkitpro/devkitarm/bin/../lib/gcc/arm-eabi/4.7.0/../../../../arm-eabi/lib/thumb\libstdc++.a(eh_arm.o)
 .text          0x02064594        0x0 c:/devkitpro/devkitarm/bin/../lib/gcc/arm-eabi/4.7.0/../../../../arm-eabi/lib/thumb\libstdc++.a(eh_throw.o)
 .text          0x02064594        0x0 c:/devkitpro/devkitarm/bin/../lib/gcc/arm-eabi/4.7.0/../../../../arm-eabi/lib/thumb\libstdc++.a(pure.o)
 .text          0x02064594        0x0 c:/devkitpro/devkitarm/bin/../lib/gcc/arm-eabi/4.7.0/../../../../arm-eabi/lib/thumb\libstdc++.a(bad_cast.o)
 .text          0x02064594        0x0 c:/devkitpro/devkitarm/bin/../lib/gcc/arm-eabi/4.7.0/../../../../arm-eabi/lib/thumb\libstdc++.a(eh_globals.o)
 .text          0x02064594        0x0 c:/devkitpro/devkitarm/bin/../lib/gcc/arm-eabi/4.7.0/../../../../arm-eabi/lib/thumb\libstdc++.a(eh_catch.o)
 .text          0x02064594        0x0 c:/devkitpro/devkitarm/bin/../lib/gcc/arm-eabi/4.7.0/../../../../arm-eabi/lib/thumb\libstdc++.a(si_class_type_info.o)
 .text          0x02064594        0x0 c:/devkitpro/devkitarm/bin/../lib/gcc/arm-eabi/4.7.0/../../../../arm-eabi/lib/thumb\libstdc++.a(eh_unex_handler.o)
 .text          0x02064594        0x0 c:/devkitpro/devkitarm/bin/../lib/gcc/arm-eabi/4.7.0/../../../../arm-eabi/lib/thumb\libstdc++.a(tinfo.o)
 .text          0x02064594        0x0 c:/devkitpro/devkitarm/bin/../lib/gcc/arm-eabi/4.7.0/../../../../arm-eabi/lib/thumb\libstdc++.a(bad_typeid.o)
 .text          0x02064594        0x0 c:/devkitpro/devkitarm/bin/../lib/gcc/arm-eabi/4.7.0/../../../../arm-eabi/lib/thumb\libstdc++.a(eh_term_handler.o)
 .text          0x02064594        0x0 c:/devkitpro/devkitarm/bin/../lib/gcc/arm-eabi/4.7.0/../../../../arm-eabi/lib/thumb\libstdc++.a(ios_failure.o)
 .text          0x02064594        0x0 c:/devkitpro/devkitarm/bin/../lib/gcc/arm-eabi/4.7.0/../../../../arm-eabi/lib/thumb\libstdc++.a(stdexcept.o)
 .text          0x02064594        0x0 c:/devkitpro/devkitarm/bin/../lib/gcc/arm-eabi/4.7.0/../../../../arm-eabi/lib/thumb\libstdc++.a(functional.o)
 .text          0x02064594        0x0 c:/devkitpro/devkitarm/bin/../lib/gcc/arm-eabi/4.7.0/../../../../arm-eabi/lib/thumb\libstdc++.a(future.o)
 .text          0x02064594        0x0 c:/devkitpro/devkitarm/bin/../lib/gcc/arm-eabi/4.7.0/../../../../arm-eabi/lib/thumb\libstdc++.a(regex.o)
 .text          0x02064594        0x0 c:/devkitpro/devkitarm/bin/../lib/gcc/arm-eabi/4.7.0/../../../../arm-eabi/lib/thumb\libstdc++.a(system_error.o)
 .text          0x02064594        0x0 c:/devkitpro/devkitarm/bin/../lib/gcc/arm-eabi/4.7.0/../../../../arm-eabi/lib/thumb\libstdc++.a(guard.o)
 .text          0x02064594        0x0 c:/devkitpro/devkitarm/bin/../lib/gcc/arm-eabi/4.7.0/../../../../arm-eabi/lib/thumb\libstdc++.a(vterminate.o)
 .text          0x02064594        0x0 c:/devkitpro/devkitarm/bin/../lib/gcc/arm-eabi/4.7.0/../../../../arm-eabi/lib/thumb\libstdc++.a(guard_error.o)
 .text          0x02064594        0x0 c:/devkitpro/devkitarm/bin/../lib/gcc/arm-eabi/4.7.0/../../../../arm-eabi/lib/thumb\libstdc++.a(atexit_arm.o)
 .text          0x02064594        0x0 c:/devkitpro/devkitarm/bin/../lib/gcc/arm-eabi/4.7.0/../../../../arm-eabi/lib/thumb\libstdc++.a(eh_type.o)
 .text          0x02064594     0x5950 c:/devkitpro/devkitarm/bin/../lib/gcc/arm-eabi/4.7.0/../../../../arm-eabi/lib/thumb\libstdc++.a(cp-demangle.o)
                0x02069df0                __cxa_demangle
                0x02069eb8                __gcclibcxx_demangle_callback
 *fill*         0x02069ee4        0x4 ff
 .text          0x02069ee8      0x408 c:/devkitpro/devkitarm/bin/../lib/gcc/arm-eabi/4.7.0/../../../../arm-eabi/lib/thumb\libm.a(lib_a-w_pow.o)
                0x02069ee8                pow
 .text          0x0206a2f0       0xc0 c:/devkitpro/devkitarm/bin/../lib/gcc/arm-eabi/4.7.0/../../../../arm-eabi/lib/thumb\libm.a(lib_a-w_sqrt.o)
                0x0206a2f0                sqrt
 .text          0x0206a3b0      0xb48 c:/devkitpro/devkitarm/bin/../lib/gcc/arm-eabi/4.7.0/../../../../arm-eabi/lib/thumb\libm.a(lib_a-e_pow.o)
                0x0206a3b0                __ieee754_pow
 .text          0x0206aef8      0x1c4 c:/devkitpro/devkitarm/bin/../lib/gcc/arm-eabi/4.7.0/../../../../arm-eabi/lib/thumb\libm.a(lib_a-e_sqrt.o)
                0x0206aef8                __ieee754_sqrt
 .text          0x0206b0bc        0x8 c:/devkitpro/devkitarm/bin/../lib/gcc/arm-eabi/4.7.0/../../../../arm-eabi/lib/thumb\libm.a(lib_a-s_fabs.o)
                0x0206b0bc                fabs
 .text          0x0206b0c4       0x10 c:/devkitpro/devkitarm/bin/../lib/gcc/arm-eabi/4.7.0/../../../../arm-eabi/lib/thumb\libm.a(lib_a-s_finite.o)
                0x0206b0c4                finite
 .text          0x0206b0d4       0x5c c:/devkitpro/devkitarm/bin/../lib/gcc/arm-eabi/4.7.0/../../../../arm-eabi/lib/thumb\libm.a(lib_a-s_fpclassify.o)
                0x0206b0d4                __fpclassifyd
 .text          0x0206b130        0x0 c:/devkitpro/devkitarm/bin/../lib/gcc/arm-eabi/4.7.0/../../../../arm-eabi/lib/thumb\libm.a(lib_a-s_lib_ver.o)
 .text          0x0206b130        0x4 c:/devkitpro/devkitarm/bin/../lib/gcc/arm-eabi/4.7.0/../../../../arm-eabi/lib/thumb\libm.a(lib_a-s_matherr.o)
                0x0206b130                matherr
 *fill*         0x0206b134        0x4 ff
 .text          0x0206b138       0x10 c:/devkitpro/devkitarm/bin/../lib/gcc/arm-eabi/4.7.0/../../../../arm-eabi/lib/thumb\libm.a(lib_a-s_nan.o)
                0x0206b138                nan
 .text          0x0206b148      0x128 c:/devkitpro/devkitarm/bin/../lib/gcc/arm-eabi/4.7.0/../../../../arm-eabi/lib/thumb\libm.a(lib_a-s_rint.o)
                0x0206b148                rint
 .text          0x0206b270      0x118 c:/devkitpro/devkitarm/bin/../lib/gcc/arm-eabi/4.7.0/../../../../arm-eabi/lib/thumb\libm.a(lib_a-s_scalbn.o)
                0x0206b270                scalbn
 .text          0x0206b388       0x14 c:/devkitpro/devkitarm/bin/../lib/gcc/arm-eabi/4.7.0/../../../../arm-eabi/lib/thumb\libm.a(lib_a-s_copysign.o)
                0x0206b388                copysign
 .text          0x0206b39c      0x11c c:/devkitpro/devkitarm/bin/../lib/gcc/arm-eabi/4.7.0/thumb\libgcc.a(_udivsi3.o)
                0x0206b39c                __aeabi_uidiv
                0x0206b39c                __udivsi3
                0x0206b498                __aeabi_uidivmod
 .text          0x0206b4b8      0x150 c:/devkitpro/devkitarm/bin/../lib/gcc/arm-eabi/4.7.0/thumb\libgcc.a(_divsi3.o)
                0x0206b4b8                __divsi3
                0x0206b4b8                __aeabi_idiv
                0x0206b5e8                __aeabi_idivmod
 .text          0x0206b608        0x4 c:/devkitpro/devkitarm/bin/../lib/gcc/arm-eabi/4.7.0/thumb\libgcc.a(_dvmd_tls.o)
                0x0206b608                __aeabi_idiv0
                0x0206b608                __aeabi_ldiv0
 .text          0x0206b60c      0x41c c:/devkitpro/devkitarm/bin/../lib/gcc/arm-eabi/4.7.0/thumb\libgcc.a(_arm_addsubdf3.o)
                0x0206b60c                __aeabi_drsub
                0x0206b614                __aeabi_dsub
                0x0206b614                __subdf3
                0x0206b618                __aeabi_dadd
                0x0206b618                __adddf3
                0x0206b928                __floatunsidf
                0x0206b928                __aeabi_ui2d
                0x0206b94c                __floatsidf
                0x0206b94c                __aeabi_i2d
                0x0206b974                __aeabi_f2d
                0x0206b974                __extendsfdf2
                0x0206b9b4                __floatundidf
                0x0206b9b4                __aeabi_ul2d
                0x0206b9c8                __floatdidf
                0x0206b9c8                __aeabi_l2d
 .text          0x0206ba28      0x49c c:/devkitpro/devkitarm/bin/../lib/gcc/arm-eabi/4.7.0/thumb\libgcc.a(_arm_muldivdf3.o)
                0x0206ba28                __aeabi_dmul
                0x0206ba28                __muldf3
                0x0206bcb8                __divdf3
                0x0206bcb8                __aeabi_ddiv
 .text          0x0206bec4      0x144 c:/devkitpro/devkitarm/bin/../lib/gcc/arm-eabi/4.7.0/thumb\libgcc.a(_arm_cmpdf2.o)
                0x0206bec4                __gtdf2
                0x0206bec4                __gedf2
                0x0206becc                __ltdf2
                0x0206becc                __ledf2
                0x0206bed4                __nedf2
                0x0206bed4                __eqdf2
                0x0206bed4                __cmpdf2
                0x0206bf5c                __aeabi_cdrcmple
                0x0206bf78                __aeabi_cdcmpeq
                0x0206bf78                __aeabi_cdcmple
                0x0206bf90                __aeabi_dcmpeq
                0x0206bfa8                __aeabi_dcmplt
                0x0206bfc0                __aeabi_dcmple
                0x0206bfd8                __aeabi_dcmpge
                0x0206bff0                __aeabi_dcmpgt
 .text          0x0206c008       0x5c c:/devkitpro/devkitarm/bin/../lib/gcc/arm-eabi/4.7.0/thumb\libgcc.a(_arm_fixdfsi.o)
                0x0206c008                __aeabi_d2iz
                0x0206c008                __fixdfsi
 .text          0x0206c064       0x54 c:/devkitpro/devkitarm/bin/../lib/gcc/arm-eabi/4.7.0/thumb\libgcc.a(_arm_fixunsdfsi.o)
                0x0206c064                __aeabi_d2uiz
                0x0206c064                __fixunsdfsi
 .text          0x0206c0b8      0x2ac c:/devkitpro/devkitarm/bin/../lib/gcc/arm-eabi/4.7.0/thumb\libgcc.a(_arm_addsubsf3.o)
                0x0206c0b8                __aeabi_frsub
                0x0206c0c0                __subsf3
                0x0206c0c0                __aeabi_fsub
                0x0206c0c4                __aeabi_fadd
                0x0206c0c4                __addsf3
                0x0206c280                __aeabi_ui2f
                0x0206c280                __floatunsisf
                0x0206c288                __aeabi_i2f
                0x0206c288                __floatsisf
                0x0206c2a8                __aeabi_ul2f
                0x0206c2a8                __floatundisf
                0x0206c2b8                __aeabi_l2f
                0x0206c2b8                __floatdisf
 .text          0x0206c364       0x48 c:/devkitpro/devkitarm/bin/../lib/gcc/arm-eabi/4.7.0/thumb\libgcc.a(_clzsi2.o)
                0x0206c364                __clzsi2
 .text          0x0206c3ac       0x4c c:/devkitpro/devkitarm/bin/../lib/gcc/arm-eabi/4.7.0/thumb\libgcc.a(_muldi3.o)
                0x0206c3ac                __muldi3
                0x0206c3ac                __aeabi_lmul
 .text          0x0206c3f8      0xab4 c:/devkitpro/devkitarm/bin/../lib/gcc/arm-eabi/4.7.0/thumb\libgcc.a(unwind-arm.o)
                0x0206c6f4                _Unwind_GetCFA
                0x0206c6f8                __gnu_Unwind_RaiseException
                0x0206c758                __gnu_Unwind_ForcedUnwind
                0x0206c770                __gnu_Unwind_Resume
                0x0206c7b8                __gnu_Unwind_Resume_or_Rethrow
                0x0206c7d8                _Unwind_Complete
                0x0206c7dc                _Unwind_DeleteException
                0x0206c7f4                _Unwind_VRS_Get
                0x0206c840                _Unwind_VRS_Set
                0x0206cb9c                __aeabi_unwind_cpp_pr2
                0x0206cbac                __aeabi_unwind_cpp_pr1
                0x0206cbbc                __aeabi_unwind_cpp_pr0
                0x0206cbcc                __gnu_Unwind_Backtrace
                0x0206cc40                _Unwind_VRS_Pop
 .text          0x0206ceac      0x1d8 c:/devkitpro/devkitarm/bin/../lib/gcc/arm-eabi/4.7.0/thumb\libgcc.a(libunwind.o)
                0x0206ceac                __restore_core_regs
                0x0206ceac                restore_core_regs
                0x0206cec8                __gnu_Unwind_Restore_VFP
                0x0206ced0                __gnu_Unwind_Save_VFP
                0x0206ced8                __gnu_Unwind_Restore_VFP_D
                0x0206cee0                __gnu_Unwind_Save_VFP_D
                0x0206cee8                __gnu_Unwind_Restore_VFP_D_16_to_31
                0x0206cef0                __gnu_Unwind_Save_VFP_D_16_to_31
                0x0206cef8                __gnu_Unwind_Restore_WMMXD
                0x0206cf3c                __gnu_Unwind_Save_WMMXD
                0x0206cf80                __gnu_Unwind_Restore_WMMXC
                0x0206cf94                __gnu_Unwind_Save_WMMXC
                0x0206cfa8                ___Unwind_RaiseException
                0x0206cfa8                _Unwind_RaiseException
                0x0206cfd4                _Unwind_Resume
                0x0206cfd4                ___Unwind_Resume
                0x0206d000                _Unwind_Resume_or_Rethrow
                0x0206d000                ___Unwind_Resume_or_Rethrow
                0x0206d02c                _Unwind_ForcedUnwind
                0x0206d02c                ___Unwind_ForcedUnwind
                0x0206d058                ___Unwind_Backtrace
                0x0206d058                _Unwind_Backtrace
 .text          0x0206d084      0x3e0 c:/devkitpro/devkitarm/bin/../lib/gcc/arm-eabi/4.7.0/thumb\libgcc.a(pr-support.o)
                0x0206d0e0                __gnu_unwind_execute
                0x0206d400                __gnu_unwind_frame
                0x0206d42c                _Unwind_GetRegionStart
                0x0206d43c                _Unwind_GetLanguageSpecificData
                0x0206d454                _Unwind_GetDataRelBase
                0x0206d45c                _Unwind_GetTextRelBase
 .text          0x0206d464       0x10 c:/devkitpro/devkitarm/bin/../lib/gcc/arm-eabi/4.7.0/../../../../arm-eabi/lib/thumb\libc.a(lib_a-abort.o)
                0x0206d464                abort
 .text          0x0206d474       0x64 c:/devkitpro/devkitarm/bin/../lib/gcc/arm-eabi/4.7.0/../../../../arm-eabi/lib/thumb\libc.a(lib_a-bsearch.o)
                0x0206d474                bsearch
 .text          0x0206d4d8       0x1c c:/devkitpro/devkitarm/bin/../lib/gcc/arm-eabi/4.7.0/../../../../arm-eabi/lib/thumb\libc.a(lib_a-calloc.o)
                0x0206d4d8                calloc
 .text          0x0206d4f4       0x64 c:/devkitpro/devkitarm/bin/../lib/gcc/arm-eabi/4.7.0/../../../../arm-eabi/lib/thumb\libc.a(lib_a-callocr.o)
                0x0206d4f4                _calloc_r
 .text          0x0206d558       0x10 c:/devkitpro/devkitarm/bin/../lib/gcc/arm-eabi/4.7.0/../../../../arm-eabi/lib/thumb\libc.a(lib_a-ctype_.o)
                0x0206d558                __set_ctype
 .text          0x0206d568       0x18 c:/devkitpro/devkitarm/bin/../lib/gcc/arm-eabi/4.7.0/../../../../arm-eabi/lib/thumb\libc.a(lib_a-cxa_atexit.o)
                0x0206d568                __cxa_atexit
 .text          0x0206d580        0xc c:/devkitpro/devkitarm/bin/../lib/gcc/arm-eabi/4.7.0/../../../../arm-eabi/lib/thumb\libc.a(lib_a-errno.o)
                0x0206d580                __errno
 .text          0x0206d58c       0xb0 c:/devkitpro/devkitarm/bin/../lib/gcc/arm-eabi/4.7.0/../../../../arm-eabi/lib/thumb\libc.a(lib_a-fclose.o)
                0x0206d58c                _fclose_r
                0x0206d620                fclose
 .text          0x0206d63c      0x1b8 c:/devkitpro/devkitarm/bin/../lib/gcc/arm-eabi/4.7.0/../../../../arm-eabi/lib/thumb\libc.a(lib_a-fflush.o)
                0x0206d63c                __sflush_r
                0x0206d794                _fflush_r
                0x0206d7c4                fflush
 .text          0x0206d7f4       0x78 c:/devkitpro/devkitarm/bin/../lib/gcc/arm-eabi/4.7.0/../../../../arm-eabi/lib/thumb\libc.a(lib_a-fgetc.o)
                0x0206d7f4                _fgetc_r
                0x0206d82c                fgetc
 .text          0x0206d86c      0x1d8 c:/devkitpro/devkitarm/bin/../lib/gcc/arm-eabi/4.7.0/../../../../arm-eabi/lib/thumb\libc.a(lib_a-findfp.o)
                0x0206d874                _cleanup_r
                0x0206d8d4                __sfmoreglue
                0x0206d904                _cleanup
                0x0206d918                __sinit
                0x0206d96c                __sfp
                0x0206d9fc                __sfp_lock_acquire
                0x0206da00                __sfp_lock_release
                0x0206da04                __sinit_lock_acquire
                0x0206da08                __sinit_lock_release
                0x0206da0c                __fp_lock_all
                0x0206da28                __fp_unlock_all
 .text          0x0206da44       0xa8 c:/devkitpro/devkitarm/bin/../lib/gcc/arm-eabi/4.7.0/../../../../arm-eabi/lib/thumb\libc.a(lib_a-fopen.o)
                0x0206da44                _fopen_r
                0x0206dad0                fopen
 .text          0x0206daec       0x54 c:/devkitpro/devkitarm/bin/../lib/gcc/arm-eabi/4.7.0/../../../../arm-eabi/lib/thumb\libc.a(lib_a-fputc.o)
                0x0206daec                _fputc_r
                0x0206db14                fputc
 .text          0x0206db40       0x78 c:/devkitpro/devkitarm/bin/../lib/gcc/arm-eabi/4.7.0/../../../../arm-eabi/lib/thumb\libc.a(lib_a-fputs.o)
                0x0206db40                _fputs_r
                0x0206db9c                fputs
 .text          0x0206dbb8      0x190 c:/devkitpro/devkitarm/bin/../lib/gcc/arm-eabi/4.7.0/../../../../arm-eabi/lib/thumb\libc.a(lib_a-fread.o)
                0x0206dbb8                _fread_r
                0x0206dd20                fread
 .text          0x0206dd48      0x238 c:/devkitpro/devkitarm/bin/../lib/gcc/arm-eabi/4.7.0/../../../../arm-eabi/lib/thumb\libc.a(lib_a-freer.o)
                0x0206dd48                _malloc_trim_r
                0x0206ddec                _free_r
 .text          0x0206df80      0x328 c:/devkitpro/devkitarm/bin/../lib/gcc/arm-eabi/4.7.0/../../../../arm-eabi/lib/thumb\libc.a(lib_a-fseek.o)
                0x0206df80                _fseek_r
                0x0206e284                fseek
 .text          0x0206e2a8       0x9c c:/devkitpro/devkitarm/bin/../lib/gcc/arm-eabi/4.7.0/../../../../arm-eabi/lib/thumb\libc.a(lib_a-ftell.o)
                0x0206e2a8                _ftell_r
                0x0206e328                ftell
 .text          0x0206e344      0x2fc c:/devkitpro/devkitarm/bin/../lib/gcc/arm-eabi/4.7.0/../../../../arm-eabi/lib/thumb\libc.a(lib_a-fvwrite.o)
                0x0206e344                __sfvwrite_r
 .text          0x0206e640       0xb4 c:/devkitpro/devkitarm/bin/../lib/gcc/arm-eabi/4.7.0/../../../../arm-eabi/lib/thumb\libc.a(lib_a-fwalk.o)
                0x0206e640                _fwalk
                0x0206e694                _fwalk_reent
 .text          0x0206e6f4       0x9c c:/devkitpro/devkitarm/bin/../lib/gcc/arm-eabi/4.7.0/../../../../arm-eabi/lib/thumb\libc.a(lib_a-fwrite.o)
                0x0206e6f4                _fwrite_r
                0x0206e768                fwrite
 .text          0x0206e790        0x0 c:/devkitpro/devkitarm/bin/../lib/gcc/arm-eabi/4.7.0/../../../../arm-eabi/lib/thumb\libc.a(lib_a-impure.o)
 .text          0x0206e790       0x54 c:/devkitpro/devkitarm/bin/../lib/gcc/arm-eabi/4.7.0/../../../../arm-eabi/lib/thumb\libc.a(lib_a-init.o)
                0x0206e790                __libc_init_array
 .text          0x0206e7e4       0x40 c:/devkitpro/devkitarm/bin/../lib/gcc/arm-eabi/4.7.0/../../../../arm-eabi/lib/thumb\libc.a(lib_a-iprintf.o)
                0x0206e7e4                iprintf
                0x0206e808                _iprintf_r
 .text          0x0206e824       0x18 c:/devkitpro/devkitarm/bin/../lib/gcc/arm-eabi/4.7.0/../../../../arm-eabi/lib/thumb\libc.a(lib_a-lcltime.o)
                0x0206e824                localtime
 .text          0x0206e83c       0x10 c:/devkitpro/devkitarm/bin/../lib/gcc/arm-eabi/4.7.0/../../../../arm-eabi/lib/thumb\libc.a(lib_a-lcltime_r.o)
                0x0206e83c                localtime_r
 .text          0x0206e84c      0x950 c:/devkitpro/devkitarm/bin/../lib/gcc/arm-eabi/4.7.0/../../../../arm-eabi/lib/thumb\libc.a(lib_a-locale.o)
                0x0206ef40                _setlocale_r
                0x0206f13c                __locale_charset
                0x0206f144                __locale_mb_cur_max
                0x0206f150                __locale_msgcharset
                0x0206f15c                __locale_cjk_lang
                0x0206f168                _localeconv_r
                0x0206f174                setlocale
                0x0206f190                localeconv
 .text          0x0206f19c       0xe0 c:/devkitpro/devkitarm/bin/../lib/gcc/arm-eabi/4.7.0/../../../../arm-eabi/lib/thumb\libc.a(lib_a-makebuf.o)
                0x0206f19c                __smakebuf_r
 .text          0x0206f27c       0x30 c:/devkitpro/devkitarm/bin/../lib/gcc/arm-eabi/4.7.0/../../../../arm-eabi/lib/thumb\libc.a(lib_a-malloc.o)
                0x0206f27c                malloc
                0x0206f294                free
 .text          0x0206f2ac      0x51c c:/devkitpro/devkitarm/bin/../lib/gcc/arm-eabi/4.7.0/../../../../arm-eabi/lib/thumb\libc.a(lib_a-mallocr.o)
                0x0206f2ac                _malloc_r
 .text          0x0206f7c8      0x104 c:/devkitpro/devkitarm/bin/../lib/gcc/arm-eabi/4.7.0/../../../../arm-eabi/lib/thumb\libc.a(lib_a-mbrtowc.o)
                0x0206f7c8                _mbrtowc_r
                0x0206f840                mbrtowc
 .text          0x0206f8cc       0x40 c:/devkitpro/devkitarm/bin/../lib/gcc/arm-eabi/4.7.0/../../../../arm-eabi/lib/thumb\libc.a(lib_a-mbsrtowcs.o)
                0x0206f8cc                _mbsrtowcs_r
                0x0206f8e4                mbsrtowcs
 .text          0x0206f90c      0x584 c:/devkitpro/devkitarm/bin/../lib/gcc/arm-eabi/4.7.0/../../../../arm-eabi/lib/thumb\libc.a(lib_a-mbtowc_r.o)
                0x0206f90c                __utf8_mbtowc
                0x0206fb6c                _mbtowc_r
                0x0206fba8                __ascii_mbtowc
                0x0206fbd8                __sjis_mbtowc
                0x0206fc98                __eucjp_mbtowc
                0x0206fd60                __jis_mbtowc
 .text          0x0206fe90       0x98 c:/devkitpro/devkitarm/bin/../lib/gcc/arm-eabi/4.7.0/../../../../arm-eabi/lib/thumb\libc.a(lib_a-memchr-stub.o)
                0x0206fe90                memchr
 .text          0x0206ff28       0x60 c:/devkitpro/devkitarm/bin/../lib/gcc/arm-eabi/4.7.0/../../../../arm-eabi/lib/thumb\libc.a(lib_a-memcmp.o)
                0x0206ff28                memcmp
 .text          0x0206ff88       0x90 c:/devkitpro/devkitarm/bin/../lib/gcc/arm-eabi/4.7.0/../../../../arm-eabi/lib/thumb\libc.a(lib_a-memcpy-stub.o)
                0x0206ff88                memcpy
 .text          0x02070018       0xb0 c:/devkitpro/devkitarm/bin/../lib/gcc/arm-eabi/4.7.0/../../../../arm-eabi/lib/thumb\libc.a(lib_a-memmove.o)
                0x02070018                memmove
 .text          0x020700c8       0x98 c:/devkitpro/devkitarm/bin/../lib/gcc/arm-eabi/4.7.0/../../../../arm-eabi/lib/thumb\libc.a(lib_a-memset.o)
                0x020700c8                memset
 .text          0x02070160      0x508 c:/devkitpro/devkitarm/bin/../lib/gcc/arm-eabi/4.7.0/../../../../arm-eabi/lib/thumb\libc.a(lib_a-mktime.o)
                0x02070334                mktime
 .text          0x02070668      0x498 c:/devkitpro/devkitarm/bin/../lib/gcc/arm-eabi/4.7.0/../../../../arm-eabi/lib/thumb\libc.a(lib_a-mktm_r.o)
                0x02070668                __tzcalc_limits
                0x02070804                _mktm_r
 .text          0x02070b00        0x8 c:/devkitpro/devkitarm/bin/../lib/gcc/arm-eabi/4.7.0/../../../../arm-eabi/lib/thumb\libc.a(lib_a-mlock.o)
                0x02070b00                __malloc_lock
                0x02070b04                __malloc_unlock
 .text          0x02070b08       0x40 c:/devkitpro/devkitarm/bin/../lib/gcc/arm-eabi/4.7.0/../../../../arm-eabi/lib/thumb\libc.a(lib_a-printf.o)
                0x02070b08                _printf_r
                0x02070b24                printf
 .text          0x02070b48       0xc4 c:/devkitpro/devkitarm/bin/../lib/gcc/arm-eabi/4.7.0/../../../../arm-eabi/lib/thumb\libc.a(lib_a-putc.o)
                0x02070b48                _putc_r
                0x02070ba8                putc
 .text          0x02070c0c       0x84 c:/devkitpro/devkitarm/bin/../lib/gcc/arm-eabi/4.7.0/../../../../arm-eabi/lib/thumb\libc.a(lib_a-puts.o)
                0x02070c0c                _puts_r
                0x02070c78                puts
 .text          0x02070c90       0x1c c:/devkitpro/devkitarm/bin/../lib/gcc/arm-eabi/4.7.0/../../../../arm-eabi/lib/thumb\libc.a(lib_a-realloc.o)
                0x02070c90                realloc
 .text          0x02070cac      0x3e8 c:/devkitpro/devkitarm/bin/../lib/gcc/arm-eabi/4.7.0/../../../../arm-eabi/lib/thumb\libc.a(lib_a-reallocr.o)
                0x02070cac                _realloc_r
 .text          0x02071094      0x144 c:/devkitpro/devkitarm/bin/../lib/gcc/arm-eabi/4.7.0/../../../../arm-eabi/lib/thumb\libc.a(lib_a-refill.o)
                0x020710b4                __srefill_r
 .text          0x020711d8       0x54 c:/devkitpro/devkitarm/bin/../lib/gcc/arm-eabi/4.7.0/../../../../arm-eabi/lib/thumb\libc.a(lib_a-rget.o)
                0x020711d8                __srget_r
                0x02071214                __srget
 .text          0x0207122c      0x120 c:/devkitpro/devkitarm/bin/../lib/gcc/arm-eabi/4.7.0/../../../../arm-eabi/lib/thumb\libc.a(lib_a-setvbuf.o)
                0x0207122c                setvbuf
 .text          0x0207134c      0x198 c:/devkitpro/devkitarm/bin/../lib/gcc/arm-eabi/4.7.0/../../../../arm-eabi/lib/thumb\libc.a(lib_a-signal.o)
                0x0207134c                _init_signal_r
                0x0207138c                _signal_r
                0x020713cc                _raise_r
                0x0207142c                __sigtramp_r
                0x02071480                raise
                0x02071498                signal
                0x020714b4                _init_signal
                0x020714c8                __sigtramp
 .text          0x020714e4       0xa0 c:/devkitpro/devkitarm/bin/../lib/gcc/arm-eabi/4.7.0/../../../../arm-eabi/lib/thumb\libc.a(lib_a-siscanf.o)
                0x020714e4                siscanf
                0x02071534                _siscanf_r
 .text          0x02071584       0x84 c:/devkitpro/devkitarm/bin/../lib/gcc/arm-eabi/4.7.0/../../../../arm-eabi/lib/thumb\libc.a(lib_a-sprintf.o)
                0x02071584                _sprintf_r
                0x020715c4                sprintf
 .text          0x02071608       0xac c:/devkitpro/devkitarm/bin/../lib/gcc/arm-eabi/4.7.0/../../../../arm-eabi/lib/thumb\libc.a(lib_a-stdio.o)
                0x02071608                __sread
                0x02071634                __seofread
                0x02071638                __swrite
                0x02071674                __sseek
                0x020716a4                __sclose
 .text          0x020716b4       0x50 c:/devkitpro/devkitarm/bin/../lib/gcc/arm-eabi/4.7.0/../../../../arm-eabi/lib/thumb\libc.a(lib_a-strcasecmp.o)
                0x020716b4                strcasecmp
 .text          0x02071704       0x50 c:/devkitpro/devkitarm/bin/../lib/gcc/arm-eabi/4.7.0/../../../../arm-eabi/lib/thumb\libc.a(lib_a-strcat.o)
                0x02071704                strcat
 .text          0x02071754       0xd4 c:/devkitpro/devkitarm/bin/../lib/gcc/arm-eabi/4.7.0/../../../../arm-eabi/lib/thumb\libc.a(lib_a-strchr.o)
                0x02071754                strchr
 .text          0x02071828       0x14 c:/devkitpro/devkitarm/bin/../lib/gcc/arm-eabi/4.7.0/../../../../arm-eabi/lib/thumb\libc.a(lib_a-strcmp.o)
                0x02071828                strcmp
 .text          0x0207183c       0x10 c:/devkitpro/devkitarm/bin/../lib/gcc/arm-eabi/4.7.0/../../../../arm-eabi/lib/thumb\libc.a(lib_a-strcpy.o)
                0x0207183c                strcpy
 .text          0x0207184c      0x2a8 c:/devkitpro/devkitarm/bin/../lib/gcc/arm-eabi/4.7.0/../../../../arm-eabi/lib/thumb\libc.a(lib_a-strerror.o)
                0x0207184c                _strerror_r
                0x02071ad8                strerror
 .text          0x02071af4       0x48 c:/devkitpro/devkitarm/bin/../lib/gcc/arm-eabi/4.7.0/../../../../arm-eabi/lib/thumb\libc.a(lib_a-strlcpy.o)
                0x02071af4                strlcpy
 .text          0x02071b3c       0x10 c:/devkitpro/devkitarm/bin/../lib/gcc/arm-eabi/4.7.0/../../../../arm-eabi/lib/thumb\libc.a(lib_a-strlen.o)
                0x02071b3c                strlen
 .text          0x02071b4c       0x60 c:/devkitpro/devkitarm/bin/../lib/gcc/arm-eabi/4.7.0/../../../../arm-eabi/lib/thumb\libc.a(lib_a-strncasecmp.o)
                0x02071b4c                strncasecmp
 .text          0x02071bac       0xbc c:/devkitpro/devkitarm/bin/../lib/gcc/arm-eabi/4.7.0/../../../../arm-eabi/lib/thumb\libc.a(lib_a-strncmp.o)
                0x02071bac                strncmp
 .text          0x02071c68       0x60 c:/devkitpro/devkitarm/bin/../lib/gcc/arm-eabi/4.7.0/../../../../arm-eabi/lib/thumb\libc.a(lib_a-strncpy.o)
                0x02071c68                strncpy
 .text          0x02071cc8       0x34 c:/devkitpro/devkitarm/bin/../lib/gcc/arm-eabi/4.7.0/../../../../arm-eabi/lib/thumb\libc.a(lib_a-strnlen.o)
                0x02071cc8                strnlen
 .text          0x02071cfc       0x50 c:/devkitpro/devkitarm/bin/../lib/gcc/arm-eabi/4.7.0/../../../../arm-eabi/lib/thumb\libc.a(lib_a-strpbrk.o)
                0x02071cfc                strpbrk
 .text          0x02071d4c       0x2c c:/devkitpro/devkitarm/bin/../lib/gcc/arm-eabi/4.7.0/../../../../arm-eabi/lib/thumb\libc.a(lib_a-strrchr.o)
                0x02071d4c                strrchr
 .text          0x02071d78      0x190 c:/devkitpro/devkitarm/bin/../lib/gcc/arm-eabi/4.7.0/../../../../arm-eabi/lib/thumb\libc.a(lib_a-strtol.o)
                0x02071d78                _strtol_r
                0x02071ee8                strtol
 .text          0x02071f08      0xa98 c:/devkitpro/devkitarm/bin/../lib/gcc/arm-eabi/4.7.0/../../../../arm-eabi/lib/thumb\libc.a(lib_a-svfiscanf.o)
                0x02071f08                _sungetc_r
                0x02071f90                __ssrefill_r
                0x02071fd4                _sfread_r
                0x02072060                __ssvfiscanf_r
 .text          0x020729a0     0x1728 c:/devkitpro/devkitarm/bin/../lib/gcc/arm-eabi/4.7.0/../../../../arm-eabi/lib/thumb\libc.a(lib_a-svfprintf.o)
                0x020729a0                _svfprintf_r
 .text          0x020740c8       0x18 c:/devkitpro/devkitarm/bin/../lib/gcc/arm-eabi/4.7.0/../../../../arm-eabi/lib/thumb\libc.a(lib_a-sysclose.o)
                0x020740c8                close
 .text          0x020740e0       0x20 c:/devkitpro/devkitarm/bin/../lib/gcc/arm-eabi/4.7.0/../../../../arm-eabi/lib/thumb\libc.a(lib_a-syslseek.o)
                0x020740e0                lseek
 .text          0x02074100       0x24 c:/devkitpro/devkitarm/bin/../lib/gcc/arm-eabi/4.7.0/../../../../arm-eabi/lib/thumb\libc.a(lib_a-sysopen.o)
                0x02074100                open
 .text          0x02074124       0x20 c:/devkitpro/devkitarm/bin/../lib/gcc/arm-eabi/4.7.0/../../../../arm-eabi/lib/thumb\libc.a(lib_a-sysread.o)
                0x02074124                read
 .text          0x02074144       0x18 c:/devkitpro/devkitarm/bin/../lib/gcc/arm-eabi/4.7.0/../../../../arm-eabi/lib/thumb\libc.a(lib_a-syssbrk.o)
                0x02074144                sbrk
 .text          0x0207415c       0x1c c:/devkitpro/devkitarm/bin/../lib/gcc/arm-eabi/4.7.0/../../../../arm-eabi/lib/thumb\libc.a(lib_a-sysstat.o)
                0x0207415c                stat
 .text          0x02074178       0x20 c:/devkitpro/devkitarm/bin/../lib/gcc/arm-eabi/4.7.0/../../../../arm-eabi/lib/thumb\libc.a(lib_a-syswrite.o)
                0x02074178                write
 .text          0x02074198       0x30 c:/devkitpro/devkitarm/bin/../lib/gcc/arm-eabi/4.7.0/../../../../arm-eabi/lib/thumb\libc.a(lib_a-time.o)
                0x02074198                time
 .text          0x020741c8      0x730 c:/devkitpro/devkitarm/bin/../lib/gcc/arm-eabi/4.7.0/../../../../arm-eabi/lib/thumb\libc.a(lib_a-towlower.o)
                0x020741c8                towlower
 .text          0x020748f8      0x9dc c:/devkitpro/devkitarm/bin/../lib/gcc/arm-eabi/4.7.0/../../../../arm-eabi/lib/thumb\libc.a(lib_a-towupper.o)
                0x020748f8                towupper
 .text          0x020752d4        0x8 c:/devkitpro/devkitarm/bin/../lib/gcc/arm-eabi/4.7.0/../../../../arm-eabi/lib/thumb\libc.a(lib_a-tzlock.o)
                0x020752d4                __tz_lock
                0x020752d8                __tz_unlock
 .text          0x020752dc        0x0 c:/devkitpro/devkitarm/bin/../lib/gcc/arm-eabi/4.7.0/../../../../arm-eabi/lib/thumb\libc.a(lib_a-tzvars.o)
 .text          0x020752dc      0x188 c:/devkitpro/devkitarm/bin/../lib/gcc/arm-eabi/4.7.0/../../../../arm-eabi/lib/thumb\libc.a(lib_a-ungetc.o)
                0x020752dc                __submore
                0x02075364                _ungetc_r
                0x02075448                ungetc
 .text          0x02075464        0x4 c:/devkitpro/devkitarm/bin/../lib/gcc/arm-eabi/4.7.0/../../../../arm-eabi/lib/thumb\libc.a(lib_a-u_strerr.o)
                0x02075464                _user_strerror
 .text          0x02075468      0xed4 c:/devkitpro/devkitarm/bin/../lib/gcc/arm-eabi/4.7.0/../../../../arm-eabi/lib/thumb\libc.a(lib_a-vfiprintf.o)
                0x02075468                __sprint_r
                0x020754ec                _vfiprintf_r
                0x02076318                vfiprintf
 *fill*         0x0207633c        0x4 ff
 .text          0x02076340     0x17e0 c:/devkitpro/devkitarm/bin/../lib/gcc/arm-eabi/4.7.0/../../../../arm-eabi/lib/thumb\libc.a(lib_a-vfprintf.o)
                0x02076340                _vfprintf_r
                0x02077af8                vfprintf
 .text          0x02077b20       0x84 c:/devkitpro/devkitarm/bin/../lib/gcc/arm-eabi/4.7.0/../../../../arm-eabi/lib/thumb\libc.a(lib_a-vsnprintf.o)
                0x02077b20                _vsnprintf_r
                0x02077b7c                vsnprintf
 .text          0x02077ba4       0xd0 c:/devkitpro/devkitarm/bin/../lib/gcc/arm-eabi/4.7.0/../../../../arm-eabi/lib/thumb\libc.a(lib_a-wbuf.o)
                0x02077ba4                __swbuf_r
                0x02077c58                __swbuf
 .text          0x02077c74       0xe8 c:/devkitpro/devkitarm/bin/../lib/gcc/arm-eabi/4.7.0/../../../../arm-eabi/lib/thumb\libc.a(lib_a-wcrtomb.o)
                0x02077c74                _wcrtomb_r
                0x02077cdc                wcrtomb
 .text          0x02077d5c       0x40 c:/devkitpro/devkitarm/bin/../lib/gcc/arm-eabi/4.7.0/../../../../arm-eabi/lib/thumb\libc.a(lib_a-wcsrtombs.o)
                0x02077d5c                _wcsrtombs_r
                0x02077d74                wcsrtombs
 .text          0x02077d9c       0x54 c:/devkitpro/devkitarm/bin/../lib/gcc/arm-eabi/4.7.0/../../../../arm-eabi/lib/thumb\libc.a(lib_a-wctob.o)
                0x02077d9c                wctob
 .text          0x02077df0      0x2a4 c:/devkitpro/devkitarm/bin/../lib/gcc/arm-eabi/4.7.0/../../../../arm-eabi/lib/thumb\libc.a(lib_a-wctomb_r.o)
                0x02077df0                __utf8_wctomb
                0x02077ea4                _wctomb_r
                0x02077edc                __ascii_wctomb
                0x02077efc                __sjis_wctomb
                0x02077f78                __eucjp_wctomb
                0x02078014                __jis_wctomb
 .text          0x02078094       0xd0 c:/devkitpro/devkitarm/bin/../lib/gcc/arm-eabi/4.7.0/../../../../arm-eabi/lib/thumb\libc.a(lib_a-wsetup.o)
                0x02078094                __swsetup_r
 .text          0x02078164       0xc8 c:/devkitpro/devkitarm/bin/../lib/gcc/arm-eabi/4.7.0/../../../../arm-eabi/lib/thumb\libc.a(lib_a-__atexit.o)
                0x02078164                __register_exitproc
 .text          0x0207822c       0x40 c:/devkitpro/devkitarm/bin/../lib/gcc/arm-eabi/4.7.0/../../../../arm-eabi/lib/thumb\libc.a(lib_a-div.o)
                0x0207822c                div
 *fill*         0x0207826c        0x4 ff
 .text          0x02078270     0x10a8 c:/devkitpro/devkitarm/bin/../lib/gcc/arm-eabi/4.7.0/../../../../arm-eabi/lib/thumb\libc.a(lib_a-dtoa.o)
                0x020783d0                _dtoa_r
 .text          0x02079318       0x70 c:/devkitpro/devkitarm/bin/../lib/gcc/arm-eabi/4.7.0/../../../../arm-eabi/lib/thumb\libc.a(lib_a-flags.o)
                0x02079318                __sflags
 .text          0x02079388      0x104 c:/devkitpro/devkitarm/bin/../lib/gcc/arm-eabi/4.7.0/../../../../arm-eabi/lib/thumb\libc.a(lib_a-fputwc.o)
                0x02079388                _fputwc_r
                0x02079460                fputwc
 .text          0x0207948c       0xa8 c:/devkitpro/devkitarm/bin/../lib/gcc/arm-eabi/4.7.0/../../../../arm-eabi/lib/thumb\libc.a(lib_a-getenv_r.o)
                0x0207948c                _findenv_r
                0x02079524                _getenv_r
 .text          0x02079534        0x8 c:/devkitpro/devkitarm/bin/../lib/gcc/arm-eabi/4.7.0/../../../../arm-eabi/lib/thumb\libc.a(lib_a-gettzinfo.o)
                0x02079534                __gettzinfo
 .text          0x0207953c       0x78 c:/devkitpro/devkitarm/bin/../lib/gcc/arm-eabi/4.7.0/../../../../arm-eabi/lib/thumb\libc.a(lib_a-iswspace.o)
                0x0207953c                iswspace
 .text          0x020795b4      0x1f0 c:/devkitpro/devkitarm/bin/../lib/gcc/arm-eabi/4.7.0/../../../../arm-eabi/lib/thumb\libc.a(lib_a-jp2uc.o)
                0x02079740                _jp2uc
 .text          0x020797a4       0xe8 c:/devkitpro/devkitarm/bin/../lib/gcc/arm-eabi/4.7.0/../../../../arm-eabi/lib/thumb\libc.a(lib_a-mbsnrtowcs.o)
                0x020797a4                _mbsnrtowcs_r
                0x02079860                mbsnrtowcs
 *fill*         0x0207988c        0x4 ff
 .text          0x02079890      0x9a0 c:/devkitpro/devkitarm/bin/../lib/gcc/arm-eabi/4.7.0/../../../../arm-eabi/lib/thumb\libc.a(lib_a-mprec.o)
                0x02079890                _Balloc
                0x020798e4                _Bfree
                0x020798fc                __multadd
                0x020799a8                __s2b
                0x02079a44                __hi0bits
                0x02079a7c                __lo0bits
                0x02079adc                __i2b
                0x02079af4                __multiply
                0x02079c60                __pow5mult
                0x02079d10                __lshift
                0x02079de0                __mcmp
                0x02079e1c                __mdiff
                0x02079f0c                __ulp
                0x02079f54                __b2d
                0x0207a00c                __d2b
                0x0207a0c4                __ratio
                0x0207a140                _mprec_log10
                0x0207a184                __copybits
                0x0207a1cc                __any_on
 .text          0x0207a230       0x7c c:/devkitpro/devkitarm/bin/../lib/gcc/arm-eabi/4.7.0/../../../../arm-eabi/lib/thumb\libc.a(lib_a-sccl.o)
                0x0207a230                __sccl
 *fill*         0x0207a2ac        0x4 ff
 .text          0x0207a2b0      0x208 c:/devkitpro/devkitarm/bin/../lib/gcc/arm-eabi/4.7.0/../../../../arm-eabi/lib/thumb\libc.a(lib_a-strtoll_r.o)
                0x0207a2b0                _strtoll_r
 .text          0x0207a4b8      0x238 c:/devkitpro/devkitarm/bin/../lib/gcc/arm-eabi/4.7.0/../../../../arm-eabi/lib/thumb\libc.a(lib_a-strtoull_r.o)
                0x0207a4b8                _strtoull_r
 .text          0x0207a6f0      0x198 c:/devkitpro/devkitarm/bin/../lib/gcc/arm-eabi/4.7.0/../../../../arm-eabi/lib/thumb\libc.a(lib_a-strtoul.o)
                0x0207a6f0                _strtoul_r
                0x0207a868                strtoul
 .text          0x0207a888      0xeb4 c:/devkitpro/devkitarm/bin/../lib/gcc/arm-eabi/4.7.0/../../../../arm-eabi/lib/thumb\libc.a(lib_a-svfiprintf.o)
                0x0207a888                __ssprint_r
                0x0207a9b8                _svfiprintf_r
 .text          0x0207b73c      0x150 c:/devkitpro/devkitarm/bin/../lib/gcc/arm-eabi/4.7.0/../../../../arm-eabi/lib/thumb\libc.a(lib_a-wcsnrtombs.o)
                0x0207b73c                _wcsnrtombs_r
                0x0207b85c                wcsnrtombs
 .text          0x0207b88c        0x0 c:/devkitpro/devkitarm/bin/../lib/gcc/arm-eabi/4.7.0/../../../../arm-eabi/lib/thumb\libc.a(lib_a-environ.o)
 .text          0x0207b88c        0x8 c:/devkitpro/devkitarm/bin/../lib/gcc/arm-eabi/4.7.0/../../../../arm-eabi/lib/thumb\libc.a(lib_a-envlock.o)
                0x0207b88c                __env_lock
                0x0207b890                __env_unlock
 .text          0x0207b894      0x144 c:/devkitpro/devkitarm/bin/../lib/gcc/arm-eabi/4.7.0/../../../../arm-eabi/lib/thumb\libsysbase.a(iosupport.o)
                0x0207b894                setDefaultDevice
                0x0207b8a8                FindDevice
                0x0207b918                RemoveDevice
                0x0207b93c                AddDevice
                0x0207b9b8                GetDeviceOpTab
 .text          0x0207b9d8       0x50 c:/devkitpro/devkitarm/bin/../lib/gcc/arm-eabi/4.7.0/../../../../arm-eabi/lib/thumb\libsysbase.a(close.o)
                0x0207b9d8                _close_r
 .text          0x0207ba28       0x50 c:/devkitpro/devkitarm/bin/../lib/gcc/arm-eabi/4.7.0/../../../../arm-eabi/lib/thumb\libsysbase.a(fstat.o)
                0x0207ba28                _fstat_r
 .text          0x0207ba78        0xc c:/devkitpro/devkitarm/bin/../lib/gcc/arm-eabi/4.7.0/../../../../arm-eabi/lib/thumb\libsysbase.a(getpid.o)
                0x0207ba78                _getpid_r
 .text          0x0207ba84        0x4 c:/devkitpro/devkitarm/bin/../lib/gcc/arm-eabi/4.7.0/../../../../arm-eabi/lib/thumb\libsysbase.a(isatty.o)
                0x0207ba84                _isatty_r
 .text          0x0207ba88        0xc c:/devkitpro/devkitarm/bin/../lib/gcc/arm-eabi/4.7.0/../../../../arm-eabi/lib/thumb\libsysbase.a(kill.o)
                0x0207ba88                _kill_r
 .text          0x0207ba94       0x50 c:/devkitpro/devkitarm/bin/../lib/gcc/arm-eabi/4.7.0/../../../../arm-eabi/lib/thumb\libsysbase.a(lseek.o)
                0x0207ba94                _lseek_r
 .text          0x0207bae4       0xa0 c:/devkitpro/devkitarm/bin/../lib/gcc/arm-eabi/4.7.0/../../../../arm-eabi/lib/thumb\libsysbase.a(open.o)
                0x0207bae4                _open_r
 .text          0x0207bb84       0x50 c:/devkitpro/devkitarm/bin/../lib/gcc/arm-eabi/4.7.0/../../../../arm-eabi/lib/thumb\libsysbase.a(read.o)
                0x0207bb84                _read_r
 .text          0x0207bbd4       0x54 c:/devkitpro/devkitarm/bin/../lib/gcc/arm-eabi/4.7.0/../../../../arm-eabi/lib/thumb\libsysbase.a(sbrk.o)
                0x0207bbd4                _sbrk_r
 .text          0x0207bc28       0x40 c:/devkitpro/devkitarm/bin/../lib/gcc/arm-eabi/4.7.0/../../../../arm-eabi/lib/thumb\libsysbase.a(stat.o)
                0x0207bc28                _stat_r
 .text          0x0207bc68       0x44 c:/devkitpro/devkitarm/bin/../lib/gcc/arm-eabi/4.7.0/../../../../arm-eabi/lib/thumb\libsysbase.a(times.o)
                0x0207bc68                _times
                0x0207bc7c                _times_r
                0x0207bc84                _gettimeofday_r
 .text          0x0207bcac       0x58 c:/devkitpro/devkitarm/bin/../lib/gcc/arm-eabi/4.7.0/../../../../arm-eabi/lib/thumb\libsysbase.a(write.o)
                0x0207bcac                _write_r
 .text          0x0207bd04       0x18 c:/devkitpro/devkitarm/bin/../lib/gcc/arm-eabi/4.7.0/../../../../arm-eabi/lib/thumb\libsysbase.a(_exit.o)
                0x0207bd04                _exit
 .text          0x0207bd1c        0x0 c:/devkitpro/devkitarm/bin/../lib/gcc/arm-eabi/4.7.0/../../../../arm-eabi/lib/thumb\libsysbase.a(malloc_vars.o)
 .text          0x0207bd1c      0x24c c:/devkitpro/devkitarm/bin/../lib/gcc/arm-eabi/4.7.0/../../../../arm-eabi/lib/thumb\libsysbase.a(chdir.o)
                0x0207bd1c                _concatenate_path
                0x0207be38                chdir
                0x0207bf18                getcwd
 .text          0x0207bf68       0x4c c:/devkitpro/devkitarm/bin/../lib/gcc/arm-eabi/4.7.0/../../../../arm-eabi/lib/thumb\libsysbase.a(build_argv.o)
                0x0207bf68                build_argv
 .text          0x0207bfb4        0x0 c:/devkitpro/devkitarm/bin/../lib/gcc/arm-eabi/4.7.0/../../../../arm-eabi/lib/thumb\libsysbase.a(syscall_support.o)
 .text          0x0207bfb4       0x84 c:/devkitpro/devkitarm/bin/../lib/gcc/arm-eabi/4.7.0/../../../../arm-eabi/lib/thumb\libsysbase.a(handle_manager.o)
                0x0207bfb4                __release_handle
                0x0207bfe0                __alloc_handle
                0x0207c018                __get_handle
 .text          0x0207c038      0x340 c:/devkitpro/devkitarm/bin/../lib/gcc/arm-eabi/4.7.0/../../../../arm-eabi/lib/thumb\libsysbase.a(dirent.o)
                0x0207c0b8                opendir
                0x0207c164                closedir
                0x0207c1c4                readdir
                0x0207c268                readdir_r
                0x0207c2f4                rewinddir
                0x0207c30c                seekdir
                0x0207c360                telldir
 .text          0x0207c378       0x3c c:/devkitpro/devkitarm/bin/../lib/gcc/arm-eabi/4.7.0/thumb\libgcc.a(_aeabi_uldivmod.o)
                0x0207c378                __aeabi_uldivmod
 .text          0x0207c3b4       0x7c c:/devkitpro/devkitarm/bin/../lib/gcc/arm-eabi/4.7.0/thumb\libgcc.a(bpabi.o)
                0x0207c3b4                __gnu_ldivmod_helper
                0x0207c3f4                __gnu_uldivmod_helper
 .text          0x0207c430      0x3d4 c:/devkitpro/devkitarm/bin/../lib/gcc/arm-eabi/4.7.0/thumb\libgcc.a(_divdi3.o)
                0x0207c430                __divdi3
 .text          0x0207c804      0x3a0 c:/devkitpro/devkitarm/bin/../lib/gcc/arm-eabi/4.7.0/thumb\libgcc.a(_udivdi3.o)
                0x0207c804                __udivdi3
 .text          0x0207cba4        0x0 c:/devkitpro/devkitarm/bin/../lib/gcc/arm-eabi/4.7.0/thumb/crtend.o
 .text          0x0207cba4        0x0 c:/devkitpro/devkitarm/bin/../lib/gcc/arm-eabi/4.7.0/thumb/crtn.o
 *(.text.*)
 .text.startup  0x0207cba4       0x2c GBA.o
 .text._Z11emuInstrARMjPi
                0x0207cbd0     0x911c cpumg.o
                0x0207cbd0                _Z11emuInstrARMjPi
 .text._Z13emuInstrTHUMBtPi
                0x02085cec     0x1be8 cpumg.o
                0x02085cec                _Z13emuInstrTHUMBtPi
 .text._ZNSt6vectorI8DirEntrySaIS0_EE13_M_insert_auxEN9__gnu_cxx17__normal_iteratorIPS0_S2_EERKS0_
                0x020878d4      0x1b4 file_browse.o
                0x020878d4                _ZNSt6vectorI8DirEntrySaIS0_EE13_M_insert_auxEN9__gnu_cxx17__normal_iteratorIPS0_S2_EERKS0_
 .text._ZSt19__move_median_firstIN9__gnu_cxx17__normal_iteratorIP8DirEntrySt6vectorIS2_SaIS2_EEEEPFbRKS2_S9_EEvT_SC_SC_T0_
                0x02087a88       0xb0 file_browse.o
                0x02087a88                _ZSt19__move_median_firstIN9__gnu_cxx17__normal_iteratorIP8DirEntrySt6vectorIS2_SaIS2_EEEEPFbRKS2_S9_EEvT_SC_SC_T0_
 .text._ZSt21__unguarded_partitionIN9__gnu_cxx17__normal_iteratorIP8DirEntrySt6vectorIS2_SaIS2_EEEES2_PFbRKS2_S9_EET_SC_SC_RKT0_T1_
                0x02087b38       0x98 file_browse.o
                0x02087b38                _ZSt21__unguarded_partitionIN9__gnu_cxx17__normal_iteratorIP8DirEntrySt6vectorIS2_SaIS2_EEEES2_PFbRKS2_S9_EET_SC_SC_RKT0_T1_
 .text._ZSt25__unguarded_linear_insertIN9__gnu_cxx17__normal_iteratorIP8DirEntrySt6vectorIS2_SaIS2_EEEEPFbRKS2_S9_EEvT_T0_
                0x02087bd0       0x6c file_browse.o
                0x02087bd0                _ZSt25__unguarded_linear_insertIN9__gnu_cxx17__normal_iteratorIP8DirEntrySt6vectorIS2_SaIS2_EEEEPFbRKS2_S9_EEvT_T0_
 .text._ZSt16__insertion_sortIN9__gnu_cxx17__normal_iteratorIP8DirEntrySt6vectorIS2_SaIS2_EEEEPFbRKS2_S9_EEvT_SC_T0_
                0x02087c3c       0xc0 file_browse.o
                0x02087c3c                _ZSt16__insertion_sortIN9__gnu_cxx17__normal_iteratorIP8DirEntrySt6vectorIS2_SaIS2_EEEEPFbRKS2_S9_EEvT_SC_T0_
 .text._ZSt13__adjust_heapIN9__gnu_cxx17__normal_iteratorIP8DirEntrySt6vectorIS2_SaIS2_EEEEiS2_PFbRKS2_S9_EEvT_T0_SD_T1_T2_
                0x02087cfc      0x148 file_browse.o
                0x02087cfc                _ZSt13__adjust_heapIN9__gnu_cxx17__normal_iteratorIP8DirEntrySt6vectorIS2_SaIS2_EEEEiS2_PFbRKS2_S9_EEvT_T0_SD_T1_T2_
 .text._ZSt9make_heapIN9__gnu_cxx17__normal_iteratorIP8DirEntrySt6vectorIS2_SaIS2_EEEEPFbRKS2_S9_EEvT_SC_T0_
                0x02087e44       0xcc file_browse.o
                0x02087e44                _ZSt9make_heapIN9__gnu_cxx17__normal_iteratorIP8DirEntrySt6vectorIS2_SaIS2_EEEEPFbRKS2_S9_EEvT_SC_T0_
 .text._ZSt13__heap_selectIN9__gnu_cxx17__normal_iteratorIP8DirEntrySt6vectorIS2_SaIS2_EEEEPFbRKS2_S9_EEvT_SC_SC_T0_
                0x02087f10       0xc4 file_browse.o
                0x02087f10                _ZSt13__heap_selectIN9__gnu_cxx17__normal_iteratorIP8DirEntrySt6vectorIS2_SaIS2_EEEEPFbRKS2_S9_EEvT_SC_SC_T0_
 .text._ZSt9sort_heapIN9__gnu_cxx17__normal_iteratorIP8DirEntrySt6vectorIS2_SaIS2_EEEEPFbRKS2_S9_EEvT_SC_T0_
                0x02087fd4       0xb0 file_browse.o
                0x02087fd4                _ZSt9sort_heapIN9__gnu_cxx17__normal_iteratorIP8DirEntrySt6vectorIS2_SaIS2_EEEEPFbRKS2_S9_EEvT_SC_T0_
 .text._ZSt16__introsort_loopIN9__gnu_cxx17__normal_iteratorIP8DirEntrySt6vectorIS2_SaIS2_EEEEiPFbRKS2_S9_EEvT_SC_T0_T1_
                0x02088084      0x408 file_browse.o
                0x02088084                _ZSt16__introsort_loopIN9__gnu_cxx17__normal_iteratorIP8DirEntrySt6vectorIS2_SaIS2_EEEEiPFbRKS2_S9_EEvT_SC_T0_T1_
 .text.startup  0x0208848c      0x574 main.o
                0x0208848c                main
 .text._Znwj    0x02088a00       0x60 c:/devkitpro/devkitarm/bin/../lib/gcc/arm-eabi/4.7.0/../../../../arm-eabi/lib/thumb\libstdc++.a(new_op.o)
                0x02088a00                _Znwj
 .text._ZN10__cxxabiv1L24__is_gxx_exception_classEPc
                0x02088a60       0x40 c:/devkitpro/devkitarm/bin/../lib/gcc/arm-eabi/4.7.0/../../../../arm-eabi/lib/thumb\libstdc++.a(eh_call.o)
 .text.__cxa_call_terminate
                0x02088aa0       0x24 c:/devkitpro/devkitarm/bin/../lib/gcc/arm-eabi/4.7.0/../../../../arm-eabi/lib/thumb\libstdc++.a(eh_call.o)
                0x02088aa0                __cxa_call_terminate
 .text.__cxa_call_unexpected
                0x02088ac4       0xec c:/devkitpro/devkitarm/bin/../lib/gcc/arm-eabi/4.7.0/../../../../arm-eabi/lib/thumb\libstdc++.a(eh_call.o)
                0x02088ac4                __cxa_call_unexpected
 .text._ZL12read_sleb128PKhPl
                0x02088bb0       0x34 c:/devkitpro/devkitarm/bin/../lib/gcc/arm-eabi/4.7.0/../../../../arm-eabi/lib/thumb\libstdc++.a(eh_personality.o)
 .text._ZL28read_encoded_value_with_basehjPKhPj
                0x02088be4       0xd8 c:/devkitpro/devkitarm/bin/../lib/gcc/arm-eabi/4.7.0/../../../../arm-eabi/lib/thumb\libstdc++.a(eh_personality.o)
 .text._ZL21base_of_encoded_valuehP15_Unwind_Context
                0x02088cbc       0x4c c:/devkitpro/devkitarm/bin/../lib/gcc/arm-eabi/4.7.0/../../../../arm-eabi/lib/thumb\libstdc++.a(eh_personality.o)
 .text._ZL17parse_lsda_headerP15_Unwind_ContextPKhP16lsda_header_info
                0x02088d08       0x98 c:/devkitpro/devkitarm/bin/../lib/gcc/arm-eabi/4.7.0/../../../../arm-eabi/lib/thumb\libstdc++.a(eh_personality.o)
 .text.__gxx_personality_v0
                0x02088da0      0x3ec c:/devkitpro/devkitarm/bin/../lib/gcc/arm-eabi/4.7.0/../../../../arm-eabi/lib/thumb\libstdc++.a(eh_personality.o)
                0x02088da0                __gxx_personality_v0
 .text._ZdlPv   0x0208918c       0x10 c:/devkitpro/devkitarm/bin/../lib/gcc/arm-eabi/4.7.0/../../../../arm-eabi/lib/thumb\libstdc++.a(del_op.o)
                0x0208918c                _ZdlPv
 .text._ZN10__cxxabiv111__terminateEPFvvE
                0x0208919c       0x2c c:/devkitpro/devkitarm/bin/../lib/gcc/arm-eabi/4.7.0/../../../../arm-eabi/lib/thumb\libstdc++.a(eh_terminate.o)
                0x0208919c                _ZN10__cxxabiv111__terminateEPFvvE
 .text._ZSt9terminatev
                0x020891c8       0x10 c:/devkitpro/devkitarm/bin/../lib/gcc/arm-eabi/4.7.0/../../../../arm-eabi/lib/thumb\libstdc++.a(eh_terminate.o)
                0x020891c8                _ZSt9terminatev
 .text._ZN10__cxxabiv112__unexpectedEPFvvE
                0x020891d8        0xc c:/devkitpro/devkitarm/bin/../lib/gcc/arm-eabi/4.7.0/../../../../arm-eabi/lib/thumb\libstdc++.a(eh_terminate.o)
                0x020891d8                _ZN10__cxxabiv112__unexpectedEPFvvE
 .text._ZSt10unexpectedv
                0x020891e4       0x10 c:/devkitpro/devkitarm/bin/../lib/gcc/arm-eabi/4.7.0/../../../../arm-eabi/lib/thumb\libstdc++.a(eh_terminate.o)
                0x020891e4                _ZSt10unexpectedv
 .text._ZSt13set_terminatePFvvE
                0x020891f4       0x10 c:/devkitpro/devkitarm/bin/../lib/gcc/arm-eabi/4.7.0/../../../../arm-eabi/lib/thumb\libstdc++.a(eh_terminate.o)
                0x020891f4                _ZSt13set_terminatePFvvE
 .text._ZSt14set_unexpectedPFvvE
                0x02089204       0x10 c:/devkitpro/devkitarm/bin/../lib/gcc/arm-eabi/4.7.0/../../../../arm-eabi/lib/thumb\libstdc++.a(eh_terminate.o)
                0x02089204                _ZSt14set_unexpectedPFvvE
 .text._ZNSt9exceptionD2Ev
                0x02089214        0xc c:/devkitpro/devkitarm/bin/../lib/gcc/arm-eabi/4.7.0/../../../../arm-eabi/lib/thumb\libstdc++.a(eh_exception.o)
                0x02089214                _ZNSt9exceptionD1Ev
                0x02089214                _ZNSt9exceptionD2Ev
 .text._ZNSt13bad_exceptionD2Ev
                0x02089220        0xc c:/devkitpro/devkitarm/bin/../lib/gcc/arm-eabi/4.7.0/../../../../arm-eabi/lib/thumb\libstdc++.a(eh_exception.o)
                0x02089220                _ZNSt13bad_exceptionD1Ev
                0x02089220                _ZNSt13bad_exceptionD2Ev
 .text._ZN10__cxxabiv115__forced_unwindD2Ev
                0x0208922c        0xc c:/devkitpro/devkitarm/bin/../lib/gcc/arm-eabi/4.7.0/../../../../arm-eabi/lib/thumb\libstdc++.a(eh_exception.o)
                0x0208922c                _ZN10__cxxabiv115__forced_unwindD2Ev
                0x0208922c                _ZN10__cxxabiv115__forced_unwindD1Ev
 .text._ZN10__cxxabiv119__foreign_exceptionD2Ev
                0x02089238        0xc c:/devkitpro/devkitarm/bin/../lib/gcc/arm-eabi/4.7.0/../../../../arm-eabi/lib/thumb\libstdc++.a(eh_exception.o)
                0x02089238                _ZN10__cxxabiv119__foreign_exceptionD1Ev
                0x02089238                _ZN10__cxxabiv119__foreign_exceptionD2Ev
 .text._ZNKSt9exception4whatEv
                0x02089244        0x8 c:/devkitpro/devkitarm/bin/../lib/gcc/arm-eabi/4.7.0/../../../../arm-eabi/lib/thumb\libstdc++.a(eh_exception.o)
                0x02089244                _ZNKSt9exception4whatEv
 .text._ZNKSt13bad_exception4whatEv
                0x0208924c        0x8 c:/devkitpro/devkitarm/bin/../lib/gcc/arm-eabi/4.7.0/../../../../arm-eabi/lib/thumb\libstdc++.a(eh_exception.o)
                0x0208924c                _ZNKSt13bad_exception4whatEv
 .text._ZN10__cxxabiv119__foreign_exceptionD0Ev
                0x02089254       0x1c c:/devkitpro/devkitarm/bin/../lib/gcc/arm-eabi/4.7.0/../../../../arm-eabi/lib/thumb\libstdc++.a(eh_exception.o)
                0x02089254                _ZN10__cxxabiv119__foreign_exceptionD0Ev
 .text._ZN10__cxxabiv115__forced_unwindD0Ev
                0x02089270       0x1c c:/devkitpro/devkitarm/bin/../lib/gcc/arm-eabi/4.7.0/../../../../arm-eabi/lib/thumb\libstdc++.a(eh_exception.o)
                0x02089270                _ZN10__cxxabiv115__forced_unwindD0Ev
 .text._ZNSt9exceptionD0Ev
                0x0208928c       0x1c c:/devkitpro/devkitarm/bin/../lib/gcc/arm-eabi/4.7.0/../../../../arm-eabi/lib/thumb\libstdc++.a(eh_exception.o)
                0x0208928c                _ZNSt9exceptionD0Ev
 .text._ZNSt13bad_exceptionD0Ev
                0x020892a8       0x1c c:/devkitpro/devkitarm/bin/../lib/gcc/arm-eabi/4.7.0/../../../../arm-eabi/lib/thumb\libstdc++.a(eh_exception.o)
                0x020892a8                _ZNSt13bad_exceptionD0Ev
 .text.__cxa_allocate_exception
                0x020892c4       0x68 c:/devkitpro/devkitarm/bin/../lib/gcc/arm-eabi/4.7.0/../../../../arm-eabi/lib/thumb\libstdc++.a(eh_alloc.o)
                0x020892c4                __cxa_allocate_exception
 .text.__cxa_free_exception
                0x0208932c       0x38 c:/devkitpro/devkitarm/bin/../lib/gcc/arm-eabi/4.7.0/../../../../arm-eabi/lib/thumb\libstdc++.a(eh_alloc.o)
                0x0208932c                __cxa_free_exception
 .text.__cxa_allocate_dependent_exception
                0x02089364       0x60 c:/devkitpro/devkitarm/bin/../lib/gcc/arm-eabi/4.7.0/../../../../arm-eabi/lib/thumb\libstdc++.a(eh_alloc.o)
                0x02089364                __cxa_allocate_dependent_exception
 .text.__cxa_free_dependent_exception
                0x020893c4       0x3c c:/devkitpro/devkitarm/bin/../lib/gcc/arm-eabi/4.7.0/../../../../arm-eabi/lib/thumb\libstdc++.a(eh_alloc.o)
                0x020893c4                __cxa_free_dependent_exception
 .text._ZNKSt9bad_alloc4whatEv
                0x02089400        0x8 c:/devkitpro/devkitarm/bin/../lib/gcc/arm-eabi/4.7.0/../../../../arm-eabi/lib/thumb\libstdc++.a(bad_alloc.o)
                0x02089400                _ZNKSt9bad_alloc4whatEv
 .text._ZNSt9bad_allocD2Ev
                0x02089408       0x1c c:/devkitpro/devkitarm/bin/../lib/gcc/arm-eabi/4.7.0/../../../../arm-eabi/lib/thumb\libstdc++.a(bad_alloc.o)
                0x02089408                _ZNSt9bad_allocD1Ev
                0x02089408                _ZNSt9bad_allocD2Ev
 .text._ZNSt9bad_allocD0Ev
                0x02089424       0x18 c:/devkitpro/devkitarm/bin/../lib/gcc/arm-eabi/4.7.0/../../../../arm-eabi/lib/thumb\libstdc++.a(bad_alloc.o)
                0x02089424                _ZNSt9bad_allocD0Ev
 .text._ZNK10__cxxabiv117__class_type_info11__do_upcastEPKS0_PPv
                0x0208943c       0x40 c:/devkitpro/devkitarm/bin/../lib/gcc/arm-eabi/4.7.0/../../../../arm-eabi/lib/thumb\libstdc++.a(class_type_info.o)
                0x0208943c                _ZNK10__cxxabiv117__class_type_info11__do_upcastEPKS0_PPv
 .text._ZNK10__cxxabiv117__class_type_info20__do_find_public_srcEiPKvPKS0_S2_
                0x0208947c       0x14 c:/devkitpro/devkitarm/bin/../lib/gcc/arm-eabi/4.7.0/../../../../arm-eabi/lib/thumb\libstdc++.a(class_type_info.o)
                0x0208947c                _ZNK10__cxxabiv117__class_type_info20__do_find_public_srcEiPKvPKS0_S2_
 .text._ZNK10__cxxabiv117__class_type_info11__do_upcastEPKS0_PKvRNS0_15__upcast_resultE
                0x02089490       0x24 c:/devkitpro/devkitarm/bin/../lib/gcc/arm-eabi/4.7.0/../../../../arm-eabi/lib/thumb\libstdc++.a(class_type_info.o)
                0x02089490                _ZNK10__cxxabiv117__class_type_info11__do_upcastEPKS0_PKvRNS0_15__upcast_resultE
 .text._ZN10__cxxabiv117__class_type_infoD2Ev
                0x020894b4       0x1c c:/devkitpro/devkitarm/bin/../lib/gcc/arm-eabi/4.7.0/../../../../arm-eabi/lib/thumb\libstdc++.a(class_type_info.o)
                0x020894b4                _ZN10__cxxabiv117__class_type_infoD2Ev
                0x020894b4                _ZN10__cxxabiv117__class_type_infoD1Ev
 .text._ZN10__cxxabiv117__class_type_infoD0Ev
                0x020894d0       0x18 c:/devkitpro/devkitarm/bin/../lib/gcc/arm-eabi/4.7.0/../../../../arm-eabi/lib/thumb\libstdc++.a(class_type_info.o)
                0x020894d0                _ZN10__cxxabiv117__class_type_infoD0Ev
 .text._ZNK10__cxxabiv117__class_type_info12__do_dyncastEiNS0_10__sub_kindEPKS0_PKvS3_S5_RNS0_16__dyncast_resultE
                0x020894e8       0x44 c:/devkitpro/devkitarm/bin/../lib/gcc/arm-eabi/4.7.0/../../../../arm-eabi/lib/thumb\libstdc++.a(class_type_info.o)
                0x020894e8                _ZNK10__cxxabiv117__class_type_info12__do_dyncastEiNS0_10__sub_kindEPKS0_PKvS3_S5_RNS0_16__dyncast_resultE
 .text._ZNK10__cxxabiv117__class_type_info10__do_catchEPKSt9type_infoPPvj
                0x0208952c       0x40 c:/devkitpro/devkitarm/bin/../lib/gcc/arm-eabi/4.7.0/../../../../arm-eabi/lib/thumb\libstdc++.a(class_type_info.o)
                0x0208952c                _ZNK10__cxxabiv117__class_type_info10__do_catchEPKSt9type_infoPPvj
 .text._ZSt15set_new_handlerPFvvE
                0x0208956c       0x10 c:/devkitpro/devkitarm/bin/../lib/gcc/arm-eabi/4.7.0/../../../../arm-eabi/lib/thumb\libstdc++.a(new_handler.o)
                0x0208956c                _ZSt15set_new_handlerPFvvE
 .text.unlikely._ZNSs4_Rep26_M_set_length_and_sharableEj.part.4
                0x0208957c        0xc c:/devkitpro/devkitarm/bin/../lib/gcc/arm-eabi/4.7.0/../../../../arm-eabi/lib/thumb\libstdc++.a(string-inst.o)
 .text._ZNKSs4dataEv
                0x02089588        0x4 c:/devkitpro/devkitarm/bin/../lib/gcc/arm-eabi/4.7.0/../../../../arm-eabi/lib/thumb\libstdc++.a(string-inst.o)
                0x02089588                _ZNKSs4dataEv
 .text._ZNKSs6lengthEv
                0x0208958c        0x8 c:/devkitpro/devkitarm/bin/../lib/gcc/arm-eabi/4.7.0/../../../../arm-eabi/lib/thumb\libstdc++.a(string-inst.o)
                0x0208958c                _ZNKSs6lengthEv
 .text._ZNKSs7_M_dataEv
                0x02089594        0x4 c:/devkitpro/devkitarm/bin/../lib/gcc/arm-eabi/4.7.0/../../../../arm-eabi/lib/thumb\libstdc++.a(string-inst.o)
                0x02089594                _ZNKSs7_M_dataEv
 .text._ZNSs7_M_dataEPc
                0x02089598        0x8 c:/devkitpro/devkitarm/bin/../lib/gcc/arm-eabi/4.7.0/../../../../arm-eabi/lib/thumb\libstdc++.a(string-inst.o)
                0x02089598                _ZNSs7_M_dataEPc
 .text._ZNKSs6_M_repEv
                0x020895a0        0x8 c:/devkitpro/devkitarm/bin/../lib/gcc/arm-eabi/4.7.0/../../../../arm-eabi/lib/thumb\libstdc++.a(string-inst.o)
                0x020895a0                _ZNKSs6_M_repEv
 .text._ZNKSs9_M_ibeginEv
                0x020895a8        0x4 c:/devkitpro/devkitarm/bin/../lib/gcc/arm-eabi/4.7.0/../../../../arm-eabi/lib/thumb\libstdc++.a(string-inst.o)
                0x020895a8                _ZNKSs9_M_ibeginEv
 .text._ZNKSs7_M_iendEv
                0x020895ac        0xc c:/devkitpro/devkitarm/bin/../lib/gcc/arm-eabi/4.7.0/../../../../arm-eabi/lib/thumb\libstdc++.a(string-inst.o)
                0x020895ac                _ZNKSs7_M_iendEv
 .text._ZNKSs8_M_checkEjPKc
                0x020895b8       0x1c c:/devkitpro/devkitarm/bin/../lib/gcc/arm-eabi/4.7.0/../../../../arm-eabi/lib/thumb\libstdc++.a(string-inst.o)
                0x020895b8                _ZNKSs8_M_checkEjPKc
 .text._ZNKSs15_M_check_lengthEjjPKc
                0x020895d4       0x24 c:/devkitpro/devkitarm/bin/../lib/gcc/arm-eabi/4.7.0/../../../../arm-eabi/lib/thumb\libstdc++.a(string-inst.o)
                0x020895d4                _ZNKSs15_M_check_lengthEjjPKc
 .text._ZNKSs8_M_limitEjj
                0x020895f8       0x18 c:/devkitpro/devkitarm/bin/../lib/gcc/arm-eabi/4.7.0/../../../../arm-eabi/lib/thumb\libstdc++.a(string-inst.o)
                0x020895f8                _ZNKSs8_M_limitEjj
 .text._ZNKSs11_M_disjunctEPKc
                0x02089610       0x1c c:/devkitpro/devkitarm/bin/../lib/gcc/arm-eabi/4.7.0/../../../../arm-eabi/lib/thumb\libstdc++.a(string-inst.o)
                0x02089610                _ZNKSs11_M_disjunctEPKc
 .text._ZNSs7_M_copyEPcPKcj
                0x0208962c       0x18 c:/devkitpro/devkitarm/bin/../lib/gcc/arm-eabi/4.7.0/../../../../arm-eabi/lib/thumb\libstdc++.a(string-inst.o)
                0x0208962c                _ZNSs7_M_copyEPcPKcj
 .text._ZNSs7_M_moveEPcPKcj
                0x02089644       0x18 c:/devkitpro/devkitarm/bin/../lib/gcc/arm-eabi/4.7.0/../../../../arm-eabi/lib/thumb\libstdc++.a(string-inst.o)
                0x02089644                _ZNSs7_M_moveEPcPKcj
 .text._ZNSs9_M_assignEPcjc
                0x0208965c       0x1c c:/devkitpro/devkitarm/bin/../lib/gcc/arm-eabi/4.7.0/../../../../arm-eabi/lib/thumb\libstdc++.a(string-inst.o)
                0x0208965c                _ZNSs9_M_assignEPcjc
 .text._ZNSs13_S_copy_charsEPcN9__gnu_cxx17__normal_iteratorIS_SsEES2_
                0x02089678       0x18 c:/devkitpro/devkitarm/bin/../lib/gcc/arm-eabi/4.7.0/../../../../arm-eabi/lib/thumb\libstdc++.a(string-inst.o)
                0x02089678                _ZNSs13_S_copy_charsEPcN9__gnu_cxx17__normal_iteratorIS_SsEES2_
 .text._ZNSs13_S_copy_charsEPcN9__gnu_cxx17__normal_iteratorIPKcSsEES4_
                0x02089690       0x18 c:/devkitpro/devkitarm/bin/../lib/gcc/arm-eabi/4.7.0/../../../../arm-eabi/lib/thumb\libstdc++.a(string-inst.o)
                0x02089690                _ZNSs13_S_copy_charsEPcN9__gnu_cxx17__normal_iteratorIPKcSsEES4_
 .text._ZNSs13_S_copy_charsEPcS_S_
                0x020896a8       0x18 c:/devkitpro/devkitarm/bin/../lib/gcc/arm-eabi/4.7.0/../../../../arm-eabi/lib/thumb\libstdc++.a(string-inst.o)
                0x020896a8                _ZNSs13_S_copy_charsEPcS_S_
 .text._ZNSs13_S_copy_charsEPcPKcS1_
                0x020896c0       0x18 c:/devkitpro/devkitarm/bin/../lib/gcc/arm-eabi/4.7.0/../../../../arm-eabi/lib/thumb\libstdc++.a(string-inst.o)
                0x020896c0                _ZNSs13_S_copy_charsEPcPKcS1_
 .text._ZNSs10_S_compareEjj
                0x020896d8        0x4 c:/devkitpro/devkitarm/bin/../lib/gcc/arm-eabi/4.7.0/../../../../arm-eabi/lib/thumb\libstdc++.a(string-inst.o)
                0x020896d8                _ZNSs10_S_compareEjj
 .text._ZNSs12_S_empty_repEv
                0x020896dc        0x8 c:/devkitpro/devkitarm/bin/../lib/gcc/arm-eabi/4.7.0/../../../../arm-eabi/lib/thumb\libstdc++.a(string-inst.o)
                0x020896dc                _ZNSs12_S_empty_repEv
 .text._ZNSsC2Ev
                0x020896e4        0xc c:/devkitpro/devkitarm/bin/../lib/gcc/arm-eabi/4.7.0/../../../../arm-eabi/lib/thumb\libstdc++.a(string-inst.o)
                0x020896e4                _ZNSsC1Ev
                0x020896e4                _ZNSsC2Ev
 .text._ZNSsC2EOSs
                0x020896f0       0x10 c:/devkitpro/devkitarm/bin/../lib/gcc/arm-eabi/4.7.0/../../../../arm-eabi/lib/thumb\libstdc++.a(string-inst.o)
                0x020896f0                _ZNSsC1EOSs
                0x020896f0                _ZNSsC2EOSs
 .text._ZNKSs5beginEv
                0x02089700        0x4 c:/devkitpro/devkitarm/bin/../lib/gcc/arm-eabi/4.7.0/../../../../arm-eabi/lib/thumb\libstdc++.a(string-inst.o)
                0x02089700                _ZNKSs5beginEv
 .text._ZNKSs3endEv
                0x02089704        0xc c:/devkitpro/devkitarm/bin/../lib/gcc/arm-eabi/4.7.0/../../../../arm-eabi/lib/thumb\libstdc++.a(string-inst.o)
                0x02089704                _ZNKSs3endEv
 .text._ZNKSs6rbeginEv
                0x02089710       0x10 c:/devkitpro/devkitarm/bin/../lib/gcc/arm-eabi/4.7.0/../../../../arm-eabi/lib/thumb\libstdc++.a(string-inst.o)
                0x02089710                _ZNKSs6rbeginEv
 .text._ZNKSs4rendEv
                0x02089720        0x8 c:/devkitpro/devkitarm/bin/../lib/gcc/arm-eabi/4.7.0/../../../../arm-eabi/lib/thumb\libstdc++.a(string-inst.o)
                0x02089720                _ZNKSs4rendEv
 .text._ZNKSs6cbeginEv
                0x02089728        0x4 c:/devkitpro/devkitarm/bin/../lib/gcc/arm-eabi/4.7.0/../../../../arm-eabi/lib/thumb\libstdc++.a(string-inst.o)
                0x02089728                _ZNKSs6cbeginEv
 .text._ZNKSs4cendEv
                0x0208972c        0xc c:/devkitpro/devkitarm/bin/../lib/gcc/arm-eabi/4.7.0/../../../../arm-eabi/lib/thumb\libstdc++.a(string-inst.o)
                0x0208972c                _ZNKSs4cendEv
 .text._ZNKSs7crbeginEv
                0x02089738       0x10 c:/devkitpro/devkitarm/bin/../lib/gcc/arm-eabi/4.7.0/../../../../arm-eabi/lib/thumb\libstdc++.a(string-inst.o)
                0x02089738                _ZNKSs7crbeginEv
 .text._ZNKSs5crendEv
                0x02089748        0x8 c:/devkitpro/devkitarm/bin/../lib/gcc/arm-eabi/4.7.0/../../../../arm-eabi/lib/thumb\libstdc++.a(string-inst.o)
                0x02089748                _ZNKSs5crendEv
 .text._ZNKSs4sizeEv
                0x02089750        0x8 c:/devkitpro/devkitarm/bin/../lib/gcc/arm-eabi/4.7.0/../../../../arm-eabi/lib/thumb\libstdc++.a(string-inst.o)
                0x02089750                _ZNKSs4sizeEv
 .text._ZNKSs8max_sizeEv
                0x02089758        0x8 c:/devkitpro/devkitarm/bin/../lib/gcc/arm-eabi/4.7.0/../../../../arm-eabi/lib/thumb\libstdc++.a(string-inst.o)
                0x02089758                _ZNKSs8max_sizeEv
 .text._ZNKSs8capacityEv
                0x02089760        0x8 c:/devkitpro/devkitarm/bin/../lib/gcc/arm-eabi/4.7.0/../../../../arm-eabi/lib/thumb\libstdc++.a(string-inst.o)
                0x02089760                _ZNKSs8capacityEv
 .text._ZNKSs5emptyEv
                0x02089768        0xc c:/devkitpro/devkitarm/bin/../lib/gcc/arm-eabi/4.7.0/../../../../arm-eabi/lib/thumb\libstdc++.a(string-inst.o)
                0x02089768                _ZNKSs5emptyEv
 .text._ZNKSsixEj
                0x02089774        0x8 c:/devkitpro/devkitarm/bin/../lib/gcc/arm-eabi/4.7.0/../../../../arm-eabi/lib/thumb\libstdc++.a(string-inst.o)
                0x02089774                _ZNKSsixEj
 .text._ZNKSs2atEj
                0x0208977c       0x20 c:/devkitpro/devkitarm/bin/../lib/gcc/arm-eabi/4.7.0/../../../../arm-eabi/lib/thumb\libstdc++.a(string-inst.o)
                0x0208977c                _ZNKSs2atEj
 .text._ZNKSs5frontEv
                0x0208979c        0x4 c:/devkitpro/devkitarm/bin/../lib/gcc/arm-eabi/4.7.0/../../../../arm-eabi/lib/thumb\libstdc++.a(string-inst.o)
                0x0208979c                _ZNKSs5frontEv
 .text._ZNKSs4backEv
                0x020897a0       0x10 c:/devkitpro/devkitarm/bin/../lib/gcc/arm-eabi/4.7.0/../../../../arm-eabi/lib/thumb\libstdc++.a(string-inst.o)
                0x020897a0                _ZNKSs4backEv
 .text._ZNKSs4copyEPcjj
                0x020897b0       0x48 c:/devkitpro/devkitarm/bin/../lib/gcc/arm-eabi/4.7.0/../../../../arm-eabi/lib/thumb\libstdc++.a(string-inst.o)
                0x020897b0                _ZNKSs4copyEPcjj
 .text._ZNSs4swapERSs
                0x020897f8       0x30 c:/devkitpro/devkitarm/bin/../lib/gcc/arm-eabi/4.7.0/../../../../arm-eabi/lib/thumb\libstdc++.a(string-inst.o)
                0x020897f8                _ZNSs4swapERSs
 .text._ZNSs6assignEOSs
                0x02089828       0x10 c:/devkitpro/devkitarm/bin/../lib/gcc/arm-eabi/4.7.0/../../../../arm-eabi/lib/thumb\libstdc++.a(string-inst.o)
                0x02089828                _ZNSs6assignEOSs
 .text._ZNSsaSEOSs
                0x02089838       0x10 c:/devkitpro/devkitarm/bin/../lib/gcc/arm-eabi/4.7.0/../../../../arm-eabi/lib/thumb\libstdc++.a(string-inst.o)
                0x02089838                _ZNSsaSEOSs
 .text._ZNKSs5c_strEv
                0x02089848        0x4 c:/devkitpro/devkitarm/bin/../lib/gcc/arm-eabi/4.7.0/../../../../arm-eabi/lib/thumb\libstdc++.a(string-inst.o)
                0x02089848                _ZNKSs5c_strEv
 .text._ZNKSs13get_allocatorEv
                0x0208984c        0x4 c:/devkitpro/devkitarm/bin/../lib/gcc/arm-eabi/4.7.0/../../../../arm-eabi/lib/thumb\libstdc++.a(string-inst.o)
                0x0208984c                _ZNKSs13get_allocatorEv
 .text._ZNKSs4findEPKcjj
                0x02089850       0x70 c:/devkitpro/devkitarm/bin/../lib/gcc/arm-eabi/4.7.0/../../../../arm-eabi/lib/thumb\libstdc++.a(string-inst.o)
                0x02089850                _ZNKSs4findEPKcjj
 .text._ZNKSs4findERKSsj
                0x020898c0       0x14 c:/devkitpro/devkitarm/bin/../lib/gcc/arm-eabi/4.7.0/../../../../arm-eabi/lib/thumb\libstdc++.a(string-inst.o)
                0x020898c0                _ZNKSs4findERKSsj
 .text._ZNKSs4findEPKcj
                0x020898d4       0x20 c:/devkitpro/devkitarm/bin/../lib/gcc/arm-eabi/4.7.0/../../../../arm-eabi/lib/thumb\libstdc++.a(string-inst.o)
                0x020898d4                _ZNKSs4findEPKcj
 .text._ZNKSs4findEcj
                0x020898f4       0x28 c:/devkitpro/devkitarm/bin/../lib/gcc/arm-eabi/4.7.0/../../../../arm-eabi/lib/thumb\libstdc++.a(string-inst.o)
                0x020898f4                _ZNKSs4findEcj
 .text._ZNKSs5rfindEPKcjj
                0x0208991c       0x40 c:/devkitpro/devkitarm/bin/../lib/gcc/arm-eabi/4.7.0/../../../../arm-eabi/lib/thumb\libstdc++.a(string-inst.o)
                0x0208991c                _ZNKSs5rfindEPKcjj
 .text._ZNKSs5rfindERKSsj
                0x0208995c       0x14 c:/devkitpro/devkitarm/bin/../lib/gcc/arm-eabi/4.7.0/../../../../arm-eabi/lib/thumb\libstdc++.a(string-inst.o)
                0x0208995c                _ZNKSs5rfindERKSsj
 .text._ZNKSs5rfindEPKcj
                0x02089970       0x20 c:/devkitpro/devkitarm/bin/../lib/gcc/arm-eabi/4.7.0/../../../../arm-eabi/lib/thumb\libstdc++.a(string-inst.o)
                0x02089970                _ZNKSs5rfindEPKcj
 .text._ZNKSs5rfindEcj
                0x02089990       0x30 c:/devkitpro/devkitarm/bin/../lib/gcc/arm-eabi/4.7.0/../../../../arm-eabi/lib/thumb\libstdc++.a(string-inst.o)
                0x02089990                _ZNKSs5rfindEcj
 .text._ZNKSs13find_first_ofEPKcjj
                0x020899c0       0x40 c:/devkitpro/devkitarm/bin/../lib/gcc/arm-eabi/4.7.0/../../../../arm-eabi/lib/thumb\libstdc++.a(string-inst.o)
                0x020899c0                _ZNKSs13find_first_ofEPKcjj
 .text._ZNKSs13find_first_ofERKSsj
                0x02089a00       0x14 c:/devkitpro/devkitarm/bin/../lib/gcc/arm-eabi/4.7.0/../../../../arm-eabi/lib/thumb\libstdc++.a(string-inst.o)
                0x02089a00                _ZNKSs13find_first_ofERKSsj
 .text._ZNKSs13find_first_ofEPKcj
                0x02089a14       0x20 c:/devkitpro/devkitarm/bin/../lib/gcc/arm-eabi/4.7.0/../../../../arm-eabi/lib/thumb\libstdc++.a(string-inst.o)
                0x02089a14                _ZNKSs13find_first_ofEPKcj
 .text._ZNKSs13find_first_ofEcj
                0x02089a34        0xc c:/devkitpro/devkitarm/bin/../lib/gcc/arm-eabi/4.7.0/../../../../arm-eabi/lib/thumb\libstdc++.a(string-inst.o)
                0x02089a34                _ZNKSs13find_first_ofEcj
 .text._ZNKSs12find_last_ofEPKcjj
                0x02089a40       0x44 c:/devkitpro/devkitarm/bin/../lib/gcc/arm-eabi/4.7.0/../../../../arm-eabi/lib/thumb\libstdc++.a(string-inst.o)
                0x02089a40                _ZNKSs12find_last_ofEPKcjj
 .text._ZNKSs12find_last_ofERKSsj
                0x02089a84       0x14 c:/devkitpro/devkitarm/bin/../lib/gcc/arm-eabi/4.7.0/../../../../arm-eabi/lib/thumb\libstdc++.a(string-inst.o)
                0x02089a84                _ZNKSs12find_last_ofERKSsj
 .text._ZNKSs12find_last_ofEPKcj
                0x02089a98       0x20 c:/devkitpro/devkitarm/bin/../lib/gcc/arm-eabi/4.7.0/../../../../arm-eabi/lib/thumb\libstdc++.a(string-inst.o)
                0x02089a98                _ZNKSs12find_last_ofEPKcj
 .text._ZNKSs12find_last_ofEcj
                0x02089ab8        0xc c:/devkitpro/devkitarm/bin/../lib/gcc/arm-eabi/4.7.0/../../../../arm-eabi/lib/thumb\libstdc++.a(string-inst.o)
                0x02089ab8                _ZNKSs12find_last_ofEcj
 .text._ZNKSs17find_first_not_ofEPKcjj
                0x02089ac4       0x40 c:/devkitpro/devkitarm/bin/../lib/gcc/arm-eabi/4.7.0/../../../../arm-eabi/lib/thumb\libstdc++.a(string-inst.o)
                0x02089ac4                _ZNKSs17find_first_not_ofEPKcjj
 .text._ZNKSs17find_first_not_ofERKSsj
                0x02089b04       0x14 c:/devkitpro/devkitarm/bin/../lib/gcc/arm-eabi/4.7.0/../../../../arm-eabi/lib/thumb\libstdc++.a(string-inst.o)
                0x02089b04                _ZNKSs17find_first_not_ofERKSsj
 .text._ZNKSs17find_first_not_ofEPKcj
                0x02089b18       0x20 c:/devkitpro/devkitarm/bin/../lib/gcc/arm-eabi/4.7.0/../../../../arm-eabi/lib/thumb\libstdc++.a(string-inst.o)
                0x02089b18                _ZNKSs17find_first_not_ofEPKcj
 .text._ZNKSs17find_first_not_ofEcj
                0x02089b38       0x30 c:/devkitpro/devkitarm/bin/../lib/gcc/arm-eabi/4.7.0/../../../../arm-eabi/lib/thumb\libstdc++.a(string-inst.o)
                0x02089b38                _ZNKSs17find_first_not_ofEcj
 .text._ZNKSs16find_last_not_ofEPKcjj
                0x02089b68       0x4c c:/devkitpro/devkitarm/bin/../lib/gcc/arm-eabi/4.7.0/../../../../arm-eabi/lib/thumb\libstdc++.a(string-inst.o)
                0x02089b68                _ZNKSs16find_last_not_ofEPKcjj
 .text._ZNKSs16find_last_not_ofERKSsj
                0x02089bb4       0x14 c:/devkitpro/devkitarm/bin/../lib/gcc/arm-eabi/4.7.0/../../../../arm-eabi/lib/thumb\libstdc++.a(string-inst.o)
                0x02089bb4                _ZNKSs16find_last_not_ofERKSsj
 .text._ZNKSs16find_last_not_ofEPKcj
                0x02089bc8       0x20 c:/devkitpro/devkitarm/bin/../lib/gcc/arm-eabi/4.7.0/../../../../arm-eabi/lib/thumb\libstdc++.a(string-inst.o)
                0x02089bc8                _ZNKSs16find_last_not_ofEPKcj
 .text._ZNKSs16find_last_not_ofEcj
                0x02089be8       0x34 c:/devkitpro/devkitarm/bin/../lib/gcc/arm-eabi/4.7.0/../../../../arm-eabi/lib/thumb\libstdc++.a(string-inst.o)
                0x02089be8                _ZNKSs16find_last_not_ofEcj
 .text._ZNKSs7compareERKSs
                0x02089c1c       0x2c c:/devkitpro/devkitarm/bin/../lib/gcc/arm-eabi/4.7.0/../../../../arm-eabi/lib/thumb\libstdc++.a(string-inst.o)
                0x02089c1c                _ZNKSs7compareERKSs
 .text._ZNKSs7compareEjjRKSs
                0x02089c48       0x58 c:/devkitpro/devkitarm/bin/../lib/gcc/arm-eabi/4.7.0/../../../../arm-eabi/lib/thumb\libstdc++.a(string-inst.o)
                0x02089c48                _ZNKSs7compareEjjRKSs
 .text._ZNKSs7compareEjjRKSsjj
                0x02089ca0       0x6c c:/devkitpro/devkitarm/bin/../lib/gcc/arm-eabi/4.7.0/../../../../arm-eabi/lib/thumb\libstdc++.a(string-inst.o)
                0x02089ca0                _ZNKSs7compareEjjRKSsjj
 .text._ZNKSs7compareEPKc
                0x02089d0c       0x30 c:/devkitpro/devkitarm/bin/../lib/gcc/arm-eabi/4.7.0/../../../../arm-eabi/lib/thumb\libstdc++.a(string-inst.o)
                0x02089d0c                _ZNKSs7compareEPKc
 .text._ZNKSs7compareEjjPKc
                0x02089d3c       0x64 c:/devkitpro/devkitarm/bin/../lib/gcc/arm-eabi/4.7.0/../../../../arm-eabi/lib/thumb\libstdc++.a(string-inst.o)
                0x02089d3c                _ZNKSs7compareEjjPKc
 .text._ZNKSs7compareEjjPKcj
                0x02089da0       0x4c c:/devkitpro/devkitarm/bin/../lib/gcc/arm-eabi/4.7.0/../../../../arm-eabi/lib/thumb\libstdc++.a(string-inst.o)
                0x02089da0                _ZNKSs7compareEjjPKcj
 .text._ZNSs12_Alloc_hiderC2EPcRKSaIcE
                0x02089dec        0x4 c:/devkitpro/devkitarm/bin/../lib/gcc/arm-eabi/4.7.0/../../../../arm-eabi/lib/thumb\libstdc++.a(string-inst.o)
                0x02089dec                _ZNSs12_Alloc_hiderC1EPcRKSaIcE
                0x02089dec                _ZNSs12_Alloc_hiderC2EPcRKSaIcE
 .text._ZNSs4_Rep12_S_empty_repEv
                0x02089df0        0x8 c:/devkitpro/devkitarm/bin/../lib/gcc/arm-eabi/4.7.0/../../../../arm-eabi/lib/thumb\libstdc++.a(string-inst.o)
                0x02089df0                _ZNSs4_Rep12_S_empty_repEv
 .text._ZNKSs4_Rep12_M_is_leakedEv
                0x02089df8        0x8 c:/devkitpro/devkitarm/bin/../lib/gcc/arm-eabi/4.7.0/../../../../arm-eabi/lib/thumb\libstdc++.a(string-inst.o)
                0x02089df8                _ZNKSs4_Rep12_M_is_leakedEv
 .text._ZNKSs4_Rep12_M_is_sharedEv
                0x02089e00        0xc c:/devkitpro/devkitarm/bin/../lib/gcc/arm-eabi/4.7.0/../../../../arm-eabi/lib/thumb\libstdc++.a(string-inst.o)
                0x02089e00                _ZNKSs4_Rep12_M_is_sharedEv
 .text._ZNSs4_Rep13_M_set_leakedEv
                0x02089e0c        0x8 c:/devkitpro/devkitarm/bin/../lib/gcc/arm-eabi/4.7.0/../../../../arm-eabi/lib/thumb\libstdc++.a(string-inst.o)
                0x02089e0c                _ZNSs4_Rep13_M_set_leakedEv
 .text._ZNSs4_Rep15_M_set_sharableEv
                0x02089e14        0x8 c:/devkitpro/devkitarm/bin/../lib/gcc/arm-eabi/4.7.0/../../../../arm-eabi/lib/thumb\libstdc++.a(string-inst.o)
                0x02089e14                _ZNSs4_Rep15_M_set_sharableEv
 .text._ZNSs4_Rep26_M_set_length_and_sharableEj
                0x02089e1c       0x18 c:/devkitpro/devkitarm/bin/../lib/gcc/arm-eabi/4.7.0/../../../../arm-eabi/lib/thumb\libstdc++.a(string-inst.o)
                0x02089e1c                _ZNSs4_Rep26_M_set_length_and_sharableEj
 .text._ZNSs4_Rep10_M_refdataEv
                0x02089e34        0x4 c:/devkitpro/devkitarm/bin/../lib/gcc/arm-eabi/4.7.0/../../../../arm-eabi/lib/thumb\libstdc++.a(string-inst.o)
                0x02089e34                _ZNSs4_Rep10_M_refdataEv
 .text._ZNSs4_Rep9_S_createEjjRKSaIcE
                0x02089e38       0x60 c:/devkitpro/devkitarm/bin/../lib/gcc/arm-eabi/4.7.0/../../../../arm-eabi/lib/thumb\libstdc++.a(string-inst.o)
                0x02089e38                _ZNSs4_Rep9_S_createEjjRKSaIcE
 .text._ZNSs12_S_constructEjcRKSaIcE
                0x02089e98       0x4c c:/devkitpro/devkitarm/bin/../lib/gcc/arm-eabi/4.7.0/../../../../arm-eabi/lib/thumb\libstdc++.a(string-inst.o)
                0x02089e98                _ZNSs12_S_constructEjcRKSaIcE
 .text._ZNSs18_S_construct_aux_2EjcRKSaIcE
                0x02089ee4        0xc c:/devkitpro/devkitarm/bin/../lib/gcc/arm-eabi/4.7.0/../../../../arm-eabi/lib/thumb\libstdc++.a(string-inst.o)
                0x02089ee4                _ZNSs18_S_construct_aux_2EjcRKSaIcE
 .text._ZNSsC2EjcRKSaIcE
                0x02089ef0       0x18 c:/devkitpro/devkitarm/bin/../lib/gcc/arm-eabi/4.7.0/../../../../arm-eabi/lib/thumb\libstdc++.a(string-inst.o)
                0x02089ef0                _ZNSsC2EjcRKSaIcE
                0x02089ef0                _ZNSsC1EjcRKSaIcE
 .text._ZNSsC2ERKSaIcE
                0x02089f08       0x18 c:/devkitpro/devkitarm/bin/../lib/gcc/arm-eabi/4.7.0/../../../../arm-eabi/lib/thumb\libstdc++.a(string-inst.o)
                0x02089f08                _ZNSsC2ERKSaIcE
                0x02089f08                _ZNSsC1ERKSaIcE
 .text._ZNSs4_Rep10_M_destroyERKSaIcE
                0x02089f20        0xc c:/devkitpro/devkitarm/bin/../lib/gcc/arm-eabi/4.7.0/../../../../arm-eabi/lib/thumb\libstdc++.a(string-inst.o)
                0x02089f20                _ZNSs4_Rep10_M_destroyERKSaIcE
 .text.unlikely._ZNSs4_Rep10_M_disposeERKSaIcE.part.10
                0x02089f2c       0x18 c:/devkitpro/devkitarm/bin/../lib/gcc/arm-eabi/4.7.0/../../../../arm-eabi/lib/thumb\libstdc++.a(string-inst.o)
 .text._ZNSs4_Rep10_M_disposeERKSaIcE
                0x02089f44       0x18 c:/devkitpro/devkitarm/bin/../lib/gcc/arm-eabi/4.7.0/../../../../arm-eabi/lib/thumb\libstdc++.a(string-inst.o)
                0x02089f44                _ZNSs4_Rep10_M_disposeERKSaIcE
 .text._ZNSsD2Ev
                0x02089f5c       0x28 c:/devkitpro/devkitarm/bin/../lib/gcc/arm-eabi/4.7.0/../../../../arm-eabi/lib/thumb\libstdc++.a(string-inst.o)
                0x02089f5c                _ZNSsD1Ev
                0x02089f5c                _ZNSsD2Ev
 .text._ZNSs9_M_mutateEjjj
                0x02089f84      0x10c c:/devkitpro/devkitarm/bin/../lib/gcc/arm-eabi/4.7.0/../../../../arm-eabi/lib/thumb\libstdc++.a(string-inst.o)
                0x02089f84                _ZNSs9_M_mutateEjjj
 .text._ZNSs15_M_replace_safeEjjPKcj
                0x0208a090       0x34 c:/devkitpro/devkitarm/bin/../lib/gcc/arm-eabi/4.7.0/../../../../arm-eabi/lib/thumb\libstdc++.a(string-inst.o)
                0x0208a090                _ZNSs15_M_replace_safeEjjPKcj
 .text._ZNSs6assignEPKcj
                0x0208a0c4       0xa0 c:/devkitpro/devkitarm/bin/../lib/gcc/arm-eabi/4.7.0/../../../../arm-eabi/lib/thumb\libstdc++.a(string-inst.o)
                0x0208a0c4                _ZNSs6assignEPKcj
 .text._ZNSs6assignESt16initializer_listIcE
                0x0208a164       0x10 c:/devkitpro/devkitarm/bin/../lib/gcc/arm-eabi/4.7.0/../../../../arm-eabi/lib/thumb\libstdc++.a(string-inst.o)
                0x0208a164                _ZNSs6assignESt16initializer_listIcE
 .text._ZNSs6assignEPKc
                0x0208a174       0x1c c:/devkitpro/devkitarm/bin/../lib/gcc/arm-eabi/4.7.0/../../../../arm-eabi/lib/thumb\libstdc++.a(string-inst.o)
                0x0208a174                _ZNSs6assignEPKc
 .text._ZNSs6assignERKSsjj
                0x0208a190       0x30 c:/devkitpro/devkitarm/bin/../lib/gcc/arm-eabi/4.7.0/../../../../arm-eabi/lib/thumb\libstdc++.a(string-inst.o)
                0x0208a190                _ZNSs6assignERKSsjj
 .text._ZNSsaSESt16initializer_listIcE
                0x0208a1c0       0x14 c:/devkitpro/devkitarm/bin/../lib/gcc/arm-eabi/4.7.0/../../../../arm-eabi/lib/thumb\libstdc++.a(string-inst.o)
                0x0208a1c0                _ZNSsaSESt16initializer_listIcE
 .text._ZNSsaSEPKc
                0x0208a1d4       0x1c c:/devkitpro/devkitarm/bin/../lib/gcc/arm-eabi/4.7.0/../../../../arm-eabi/lib/thumb\libstdc++.a(string-inst.o)
                0x0208a1d4                _ZNSsaSEPKc
 .text._ZNSs14_M_replace_auxEjjjc
                0x0208a1f0       0x54 c:/devkitpro/devkitarm/bin/../lib/gcc/arm-eabi/4.7.0/../../../../arm-eabi/lib/thumb\libstdc++.a(string-inst.o)
                0x0208a1f0                _ZNSs14_M_replace_auxEjjjc
 .text._ZNSs7replaceEN9__gnu_cxx17__normal_iteratorIPcSsEES2_jc
                0x0208a244       0x20 c:/devkitpro/devkitarm/bin/../lib/gcc/arm-eabi/4.7.0/../../../../arm-eabi/lib/thumb\libstdc++.a(string-inst.o)
                0x0208a244                _ZNSs7replaceEN9__gnu_cxx17__normal_iteratorIPcSsEES2_jc
 .text._ZNSs7replaceEjjjc
                0x0208a264       0x38 c:/devkitpro/devkitarm/bin/../lib/gcc/arm-eabi/4.7.0/../../../../arm-eabi/lib/thumb\libstdc++.a(string-inst.o)
                0x0208a264                _ZNSs7replaceEjjjc
 .text._ZNSs6insertEN9__gnu_cxx17__normal_iteratorIPcSsEEc
                0x0208a29c       0x2c c:/devkitpro/devkitarm/bin/../lib/gcc/arm-eabi/4.7.0/../../../../arm-eabi/lib/thumb\libstdc++.a(string-inst.o)
                0x0208a29c                _ZNSs6insertEN9__gnu_cxx17__normal_iteratorIPcSsEEc
 .text._ZNSs6insertEjjc
                0x0208a2c8       0x2c c:/devkitpro/devkitarm/bin/../lib/gcc/arm-eabi/4.7.0/../../../../arm-eabi/lib/thumb\libstdc++.a(string-inst.o)
                0x0208a2c8                _ZNSs6insertEjjc
 .text._ZNSs6assignEjc
                0x0208a2f4       0x1c c:/devkitpro/devkitarm/bin/../lib/gcc/arm-eabi/4.7.0/../../../../arm-eabi/lib/thumb\libstdc++.a(string-inst.o)
                0x0208a2f4                _ZNSs6assignEjc
 .text._ZNSs6insertEN9__gnu_cxx17__normal_iteratorIPcSsEEjc
                0x0208a310       0x1c c:/devkitpro/devkitarm/bin/../lib/gcc/arm-eabi/4.7.0/../../../../arm-eabi/lib/thumb\libstdc++.a(string-inst.o)
                0x0208a310                _ZNSs6insertEN9__gnu_cxx17__normal_iteratorIPcSsEEjc
 .text._ZNSsaSEc
                0x0208a32c       0x20 c:/devkitpro/devkitarm/bin/../lib/gcc/arm-eabi/4.7.0/../../../../arm-eabi/lib/thumb\libstdc++.a(string-inst.o)
                0x0208a32c                _ZNSsaSEc
 .text._ZNSs5eraseEN9__gnu_cxx17__normal_iteratorIPcSsEES2_
                0x0208a34c       0x30 c:/devkitpro/devkitarm/bin/../lib/gcc/arm-eabi/4.7.0/../../../../arm-eabi/lib/thumb\libstdc++.a(string-inst.o)
                0x0208a34c                _ZNSs5eraseEN9__gnu_cxx17__normal_iteratorIPcSsEES2_
 .text._ZNSs5eraseEN9__gnu_cxx17__normal_iteratorIPcSsEE
                0x0208a37c       0x28 c:/devkitpro/devkitarm/bin/../lib/gcc/arm-eabi/4.7.0/../../../../arm-eabi/lib/thumb\libstdc++.a(string-inst.o)
                0x0208a37c                _ZNSs5eraseEN9__gnu_cxx17__normal_iteratorIPcSsEE
 .text._ZNSs5eraseEjj
                0x0208a3a4       0x34 c:/devkitpro/devkitarm/bin/../lib/gcc/arm-eabi/4.7.0/../../../../arm-eabi/lib/thumb\libstdc++.a(string-inst.o)
                0x0208a3a4                _ZNSs5eraseEjj
 .text._ZNSs6insertEjPKcj
                0x0208a3d8       0xd8 c:/devkitpro/devkitarm/bin/../lib/gcc/arm-eabi/4.7.0/../../../../arm-eabi/lib/thumb\libstdc++.a(string-inst.o)
                0x0208a3d8                _ZNSs6insertEjPKcj
 .text._ZNSs6insertEjPKc
                0x0208a4b0       0x20 c:/devkitpro/devkitarm/bin/../lib/gcc/arm-eabi/4.7.0/../../../../arm-eabi/lib/thumb\libstdc++.a(string-inst.o)
                0x0208a4b0                _ZNSs6insertEjPKc
 .text._ZNSs6insertEjRKSsjj
                0x0208a4d0       0x30 c:/devkitpro/devkitarm/bin/../lib/gcc/arm-eabi/4.7.0/../../../../arm-eabi/lib/thumb\libstdc++.a(string-inst.o)
                0x0208a4d0                _ZNSs6insertEjRKSsjj
 .text._ZNSs6insertEN9__gnu_cxx17__normal_iteratorIPcSsEESt16initializer_listIcE
                0x0208a500       0x14 c:/devkitpro/devkitarm/bin/../lib/gcc/arm-eabi/4.7.0/../../../../arm-eabi/lib/thumb\libstdc++.a(string-inst.o)
                0x0208a500                _ZNSs6insertEN9__gnu_cxx17__normal_iteratorIPcSsEESt16initializer_listIcE
 .text._ZNSs6insertEjRKSs
                0x0208a514       0x14 c:/devkitpro/devkitarm/bin/../lib/gcc/arm-eabi/4.7.0/../../../../arm-eabi/lib/thumb\libstdc++.a(string-inst.o)
                0x0208a514                _ZNSs6insertEjRKSs
 .text._ZNSs5clearEv
                0x0208a528       0x18 c:/devkitpro/devkitarm/bin/../lib/gcc/arm-eabi/4.7.0/../../../../arm-eabi/lib/thumb\libstdc++.a(string-inst.o)
                0x0208a528                _ZNSs5clearEv
 .text._ZNSs12_M_leak_hardEv
                0x0208a540       0x34 c:/devkitpro/devkitarm/bin/../lib/gcc/arm-eabi/4.7.0/../../../../arm-eabi/lib/thumb\libstdc++.a(string-inst.o)
                0x0208a540                _ZNSs12_M_leak_hardEv
 .text._ZNSs7_M_leakEv
                0x0208a574       0x18 c:/devkitpro/devkitarm/bin/../lib/gcc/arm-eabi/4.7.0/../../../../arm-eabi/lib/thumb\libstdc++.a(string-inst.o)
                0x0208a574                _ZNSs7_M_leakEv
 .text._ZNSs5beginEv
                0x0208a58c       0x20 c:/devkitpro/devkitarm/bin/../lib/gcc/arm-eabi/4.7.0/../../../../arm-eabi/lib/thumb\libstdc++.a(string-inst.o)
                0x0208a58c                _ZNSs5beginEv
 .text._ZNSs5frontEv
                0x0208a5ac       0x20 c:/devkitpro/devkitarm/bin/../lib/gcc/arm-eabi/4.7.0/../../../../arm-eabi/lib/thumb\libstdc++.a(string-inst.o)
                0x0208a5ac                _ZNSs5frontEv
 .text._ZNSs3endEv
                0x0208a5cc       0x24 c:/devkitpro/devkitarm/bin/../lib/gcc/arm-eabi/4.7.0/../../../../arm-eabi/lib/thumb\libstdc++.a(string-inst.o)
                0x0208a5cc                _ZNSs3endEv
 .text._ZNSs4rendEv
                0x0208a5f0       0x24 c:/devkitpro/devkitarm/bin/../lib/gcc/arm-eabi/4.7.0/../../../../arm-eabi/lib/thumb\libstdc++.a(string-inst.o)
                0x0208a5f0                _ZNSs4rendEv
 .text._ZNSs6rbeginEv
                0x0208a614       0x2c c:/devkitpro/devkitarm/bin/../lib/gcc/arm-eabi/4.7.0/../../../../arm-eabi/lib/thumb\libstdc++.a(string-inst.o)
                0x0208a614                _ZNSs6rbeginEv
 .text._ZNSsixEj
                0x0208a640       0x20 c:/devkitpro/devkitarm/bin/../lib/gcc/arm-eabi/4.7.0/../../../../arm-eabi/lib/thumb\libstdc++.a(string-inst.o)
                0x0208a640                _ZNSsixEj
 .text._ZNSs4backEv
                0x0208a660       0x24 c:/devkitpro/devkitarm/bin/../lib/gcc/arm-eabi/4.7.0/../../../../arm-eabi/lib/thumb\libstdc++.a(string-inst.o)
                0x0208a660                _ZNSs4backEv
 .text._ZNSs2atEj
                0x0208a684       0x30 c:/devkitpro/devkitarm/bin/../lib/gcc/arm-eabi/4.7.0/../../../../arm-eabi/lib/thumb\libstdc++.a(string-inst.o)
                0x0208a684                _ZNSs2atEj
 .text._ZNSs8pop_backEv
                0x0208a6b4       0x28 c:/devkitpro/devkitarm/bin/../lib/gcc/arm-eabi/4.7.0/../../../../arm-eabi/lib/thumb\libstdc++.a(string-inst.o)
                0x0208a6b4                _ZNSs8pop_backEv
 .text._ZNSs4_Rep10_M_refcopyEv
                0x0208a6dc       0x1c c:/devkitpro/devkitarm/bin/../lib/gcc/arm-eabi/4.7.0/../../../../arm-eabi/lib/thumb\libstdc++.a(string-inst.o)
                0x0208a6dc                _ZNSs4_Rep10_M_refcopyEv
 .text._ZNSs4_Rep8_M_cloneERKSaIcEj
                0x0208a6f8       0x5c c:/devkitpro/devkitarm/bin/../lib/gcc/arm-eabi/4.7.0/../../../../arm-eabi/lib/thumb\libstdc++.a(string-inst.o)
                0x0208a6f8                _ZNSs4_Rep8_M_cloneERKSaIcEj
 .text._ZNSs6assignERKSs
                0x0208a754       0x58 c:/devkitpro/devkitarm/bin/../lib/gcc/arm-eabi/4.7.0/../../../../arm-eabi/lib/thumb\libstdc++.a(string-inst.o)
                0x0208a754                _ZNSs6assignERKSs
 .text._ZNSsaSERKSs
                0x0208a7ac        0xc c:/devkitpro/devkitarm/bin/../lib/gcc/arm-eabi/4.7.0/../../../../arm-eabi/lib/thumb\libstdc++.a(string-inst.o)
                0x0208a7ac                _ZNSsaSERKSs
 .text._ZNSs7reserveEj
                0x0208a7b8       0x4c c:/devkitpro/devkitarm/bin/../lib/gcc/arm-eabi/4.7.0/../../../../arm-eabi/lib/thumb\libstdc++.a(string-inst.o)
                0x0208a7b8                _ZNSs7reserveEj
 .text._ZNSs9push_backEc
                0x0208a804       0x4c c:/devkitpro/devkitarm/bin/../lib/gcc/arm-eabi/4.7.0/../../../../arm-eabi/lib/thumb\libstdc++.a(string-inst.o)
                0x0208a804                _ZNSs9push_backEc
 .text._ZNSs6appendEjc
                0x0208a850       0x7c c:/devkitpro/devkitarm/bin/../lib/gcc/arm-eabi/4.7.0/../../../../arm-eabi/lib/thumb\libstdc++.a(string-inst.o)
                0x0208a850                _ZNSs6appendEjc
 .text._ZNSs6resizeEjc
                0x0208a8cc       0x3c c:/devkitpro/devkitarm/bin/../lib/gcc/arm-eabi/4.7.0/../../../../arm-eabi/lib/thumb\libstdc++.a(string-inst.o)
                0x0208a8cc                _ZNSs6resizeEjc
 .text._ZNSs6resizeEj
                0x0208a908       0x10 c:/devkitpro/devkitarm/bin/../lib/gcc/arm-eabi/4.7.0/../../../../arm-eabi/lib/thumb\libstdc++.a(string-inst.o)
                0x0208a908                _ZNSs6resizeEj
 .text._ZNSs6appendEPKcj
                0x0208a918       0xa0 c:/devkitpro/devkitarm/bin/../lib/gcc/arm-eabi/4.7.0/../../../../arm-eabi/lib/thumb\libstdc++.a(string-inst.o)
                0x0208a918                _ZNSs6appendEPKcj
 .text._ZNSs6appendESt16initializer_listIcE
                0x0208a9b8       0x10 c:/devkitpro/devkitarm/bin/../lib/gcc/arm-eabi/4.7.0/../../../../arm-eabi/lib/thumb\libstdc++.a(string-inst.o)
                0x0208a9b8                _ZNSs6appendESt16initializer_listIcE
 .text._ZNSs6appendEPKc
                0x0208a9c8       0x1c c:/devkitpro/devkitarm/bin/../lib/gcc/arm-eabi/4.7.0/../../../../arm-eabi/lib/thumb\libstdc++.a(string-inst.o)
                0x0208a9c8                _ZNSs6appendEPKc
 .text._ZNSspLESt16initializer_listIcE
                0x0208a9e4       0x10 c:/devkitpro/devkitarm/bin/../lib/gcc/arm-eabi/4.7.0/../../../../arm-eabi/lib/thumb\libstdc++.a(string-inst.o)
                0x0208a9e4                _ZNSspLESt16initializer_listIcE
 .text._ZNSspLEPKc
                0x0208a9f4       0x1c c:/devkitpro/devkitarm/bin/../lib/gcc/arm-eabi/4.7.0/../../../../arm-eabi/lib/thumb\libstdc++.a(string-inst.o)
                0x0208a9f4                _ZNSspLEPKc
 .text._ZNSs6appendERKSsjj
                0x0208aa10       0x98 c:/devkitpro/devkitarm/bin/../lib/gcc/arm-eabi/4.7.0/../../../../arm-eabi/lib/thumb\libstdc++.a(string-inst.o)
                0x0208aa10                _ZNSs6appendERKSsjj
 .text._ZNSs6appendERKSs
                0x0208aaa8       0x78 c:/devkitpro/devkitarm/bin/../lib/gcc/arm-eabi/4.7.0/../../../../arm-eabi/lib/thumb\libstdc++.a(string-inst.o)
                0x0208aaa8                _ZNSs6appendERKSs
 .text._ZNSspLERKSs
                0x0208ab20        0xc c:/devkitpro/devkitarm/bin/../lib/gcc/arm-eabi/4.7.0/../../../../arm-eabi/lib/thumb\libstdc++.a(string-inst.o)
                0x0208ab20                _ZNSspLERKSs
 .text._ZNSs13shrink_to_fitEv
                0x0208ab2c       0x28 c:/devkitpro/devkitarm/bin/../lib/gcc/arm-eabi/4.7.0/../../../../arm-eabi/lib/thumb\libstdc++.a(string-inst.o)
                0x0208ab2c                _ZNSs13shrink_to_fitEv
 .text._ZNSspLEc
                0x0208ab54       0x4c c:/devkitpro/devkitarm/bin/../lib/gcc/arm-eabi/4.7.0/../../../../arm-eabi/lib/thumb\libstdc++.a(string-inst.o)
                0x0208ab54                _ZNSspLEc
 .text._ZNSs4_Rep7_M_grabERKSaIcES2_
                0x0208aba0       0x28 c:/devkitpro/devkitarm/bin/../lib/gcc/arm-eabi/4.7.0/../../../../arm-eabi/lib/thumb\libstdc++.a(string-inst.o)
                0x0208aba0                _ZNSs4_Rep7_M_grabERKSaIcES2_
 .text._ZNSsC2ERKSs
                0x0208abc8       0x3c c:/devkitpro/devkitarm/bin/../lib/gcc/arm-eabi/4.7.0/../../../../arm-eabi/lib/thumb\libstdc++.a(string-inst.o)
                0x0208abc8                _ZNSsC2ERKSs
                0x0208abc8                _ZNSsC1ERKSs
 .text._ZStplIcSt11char_traitsIcESaIcEESbIT_T0_T1_EPKS3_RKS6_
                0x0208ac04       0x4c c:/devkitpro/devkitarm/bin/../lib/gcc/arm-eabi/4.7.0/../../../../arm-eabi/lib/thumb\libstdc++.a(string-inst.o)
                0x0208ac04                _ZStplIcSt11char_traitsIcESaIcEESbIT_T0_T1_EPKS3_RKS6_
 .text._ZStplIcSt11char_traitsIcESaIcEESbIT_T0_T1_ES3_RKS6_
                0x0208ac50       0x40 c:/devkitpro/devkitarm/bin/../lib/gcc/arm-eabi/4.7.0/../../../../arm-eabi/lib/thumb\libstdc++.a(string-inst.o)
                0x0208ac50                _ZStplIcSt11char_traitsIcESaIcEESbIT_T0_T1_ES3_RKS6_
 .text._ZStplIcSt11char_traitsIcESaIcEESbIT_T0_T1_ERKS6_S8_
                0x0208ac90       0x24 c:/devkitpro/devkitarm/bin/../lib/gcc/arm-eabi/4.7.0/../../../../arm-eabi/lib/thumb\libstdc++.a(string-inst.o)
                0x0208ac90                _ZStplIcSt11char_traitsIcESaIcEESbIT_T0_T1_ERKS6_S8_
 .text._ZNSs12_S_constructIN9__gnu_cxx17__normal_iteratorIPcSsEEEES2_T_S4_RKSaIcESt20forward_iterator_tag
                0x0208acb4       0x50 c:/devkitpro/devkitarm/bin/../lib/gcc/arm-eabi/4.7.0/../../../../arm-eabi/lib/thumb\libstdc++.a(string-inst.o)
                0x0208acb4                _ZNSs12_S_constructIN9__gnu_cxx17__normal_iteratorIPcSsEEEES2_T_S4_RKSaIcESt20forward_iterator_tag
 .text._ZNSsC2IN9__gnu_cxx17__normal_iteratorIPcSsEEEET_S4_RKSaIcE
                0x0208ad04       0x1c c:/devkitpro/devkitarm/bin/../lib/gcc/arm-eabi/4.7.0/../../../../arm-eabi/lib/thumb\libstdc++.a(string-inst.o)
                0x0208ad04                _ZNSsC2IN9__gnu_cxx17__normal_iteratorIPcSsEEEET_S4_RKSaIcE
                0x0208ad04                _ZNSsC1IN9__gnu_cxx17__normal_iteratorIPcSsEEEET_S4_RKSaIcE
 .text._ZNSs12_S_constructIPcEES0_T_S1_RKSaIcESt20forward_iterator_tag
                0x0208ad20       0x74 c:/devkitpro/devkitarm/bin/../lib/gcc/arm-eabi/4.7.0/../../../../arm-eabi/lib/thumb\libstdc++.a(string-inst.o)
                0x0208ad20                _ZNSs12_S_constructIPcEES0_T_S1_RKSaIcESt20forward_iterator_tag
 .text._ZNSsC2IPcEET_S1_RKSaIcE
                0x0208ad94       0x1c c:/devkitpro/devkitarm/bin/../lib/gcc/arm-eabi/4.7.0/../../../../arm-eabi/lib/thumb\libstdc++.a(string-inst.o)
                0x0208ad94                _ZNSsC1IPcEET_S1_RKSaIcE
                0x0208ad94                _ZNSsC2IPcEET_S1_RKSaIcE
 .text._ZNSsC2ERKSsjjRKSaIcE
                0x0208adb0       0x3c c:/devkitpro/devkitarm/bin/../lib/gcc/arm-eabi/4.7.0/../../../../arm-eabi/lib/thumb\libstdc++.a(string-inst.o)
                0x0208adb0                _ZNSsC1ERKSsjjRKSaIcE
                0x0208adb0                _ZNSsC2ERKSsjjRKSaIcE
 .text._ZNSsC2ERKSsjj
                0x0208adec       0x40 c:/devkitpro/devkitarm/bin/../lib/gcc/arm-eabi/4.7.0/../../../../arm-eabi/lib/thumb\libstdc++.a(string-inst.o)
                0x0208adec                _ZNSsC1ERKSsjj
                0x0208adec                _ZNSsC2ERKSsjj
 .text._ZNKSs6substrEjj
                0x0208ae2c       0x28 c:/devkitpro/devkitarm/bin/../lib/gcc/arm-eabi/4.7.0/../../../../arm-eabi/lib/thumb\libstdc++.a(string-inst.o)
                0x0208ae2c                _ZNKSs6substrEjj
 .text._ZNSs12_S_constructIPKcEEPcT_S3_RKSaIcESt20forward_iterator_tag
                0x0208ae54       0x74 c:/devkitpro/devkitarm/bin/../lib/gcc/arm-eabi/4.7.0/../../../../arm-eabi/lib/thumb\libstdc++.a(string-inst.o)
                0x0208ae54                _ZNSs12_S_constructIPKcEEPcT_S3_RKSaIcESt20forward_iterator_tag
 .text._ZNSsC2EPKcjRKSaIcE
                0x0208aec8       0x1c c:/devkitpro/devkitarm/bin/../lib/gcc/arm-eabi/4.7.0/../../../../arm-eabi/lib/thumb\libstdc++.a(string-inst.o)
                0x0208aec8                _ZNSsC1EPKcjRKSaIcE
                0x0208aec8                _ZNSsC2EPKcjRKSaIcE
 .text._ZNSs7replaceEjjPKcj
                0x0208aee4       0xf8 c:/devkitpro/devkitarm/bin/../lib/gcc/arm-eabi/4.7.0/../../../../arm-eabi/lib/thumb\libstdc++.a(string-inst.o)
                0x0208aee4                _ZNSs7replaceEjjPKcj
 .text._ZNSs7replaceEN9__gnu_cxx17__normal_iteratorIPcSsEES2_NS0_IPKcSsEES5_
                0x0208afdc       0x20 c:/devkitpro/devkitarm/bin/../lib/gcc/arm-eabi/4.7.0/../../../../arm-eabi/lib/thumb\libstdc++.a(string-inst.o)
                0x0208afdc                _ZNSs7replaceEN9__gnu_cxx17__normal_iteratorIPcSsEES2_NS0_IPKcSsEES5_
 .text._ZNSs7replaceEN9__gnu_cxx17__normal_iteratorIPcSsEES2_S2_S2_
                0x0208affc       0x20 c:/devkitpro/devkitarm/bin/../lib/gcc/arm-eabi/4.7.0/../../../../arm-eabi/lib/thumb\libstdc++.a(string-inst.o)
                0x0208affc                _ZNSs7replaceEN9__gnu_cxx17__normal_iteratorIPcSsEES2_S2_S2_
 .text._ZNSs7replaceEN9__gnu_cxx17__normal_iteratorIPcSsEES2_PKcS4_
                0x0208b01c       0x20 c:/devkitpro/devkitarm/bin/../lib/gcc/arm-eabi/4.7.0/../../../../arm-eabi/lib/thumb\libstdc++.a(string-inst.o)
                0x0208b01c                _ZNSs7replaceEN9__gnu_cxx17__normal_iteratorIPcSsEES2_PKcS4_
 .text._ZNSs7replaceEN9__gnu_cxx17__normal_iteratorIPcSsEES2_S1_S1_
                0x0208b03c       0x20 c:/devkitpro/devkitarm/bin/../lib/gcc/arm-eabi/4.7.0/../../../../arm-eabi/lib/thumb\libstdc++.a(string-inst.o)
                0x0208b03c                _ZNSs7replaceEN9__gnu_cxx17__normal_iteratorIPcSsEES2_S1_S1_
 .text._ZNSs7replaceEN9__gnu_cxx17__normal_iteratorIPcSsEES2_PKcj
                0x0208b05c       0x1c c:/devkitpro/devkitarm/bin/../lib/gcc/arm-eabi/4.7.0/../../../../arm-eabi/lib/thumb\libstdc++.a(string-inst.o)
                0x0208b05c                _ZNSs7replaceEN9__gnu_cxx17__normal_iteratorIPcSsEES2_PKcj
 .text._ZNSs7replaceEjjPKc
                0x0208b078       0x28 c:/devkitpro/devkitarm/bin/../lib/gcc/arm-eabi/4.7.0/../../../../arm-eabi/lib/thumb\libstdc++.a(string-inst.o)
                0x0208b078                _ZNSs7replaceEjjPKc
 .text._ZNSs7replaceEjjRKSsjj
                0x0208b0a0       0x38 c:/devkitpro/devkitarm/bin/../lib/gcc/arm-eabi/4.7.0/../../../../arm-eabi/lib/thumb\libstdc++.a(string-inst.o)
                0x0208b0a0                _ZNSs7replaceEjjRKSsjj
 .text._ZNSs7replaceEjjRKSs
                0x0208b0d8       0x1c c:/devkitpro/devkitarm/bin/../lib/gcc/arm-eabi/4.7.0/../../../../arm-eabi/lib/thumb\libstdc++.a(string-inst.o)
                0x0208b0d8                _ZNSs7replaceEjjRKSs
 .text._ZNSs7replaceEN9__gnu_cxx17__normal_iteratorIPcSsEES2_PKc
                0x0208b0f4       0x2c c:/devkitpro/devkitarm/bin/../lib/gcc/arm-eabi/4.7.0/../../../../arm-eabi/lib/thumb\libstdc++.a(string-inst.o)
                0x0208b0f4                _ZNSs7replaceEN9__gnu_cxx17__normal_iteratorIPcSsEES2_PKc
 .text._ZNSs7replaceEN9__gnu_cxx17__normal_iteratorIPcSsEES2_RKSs
                0x0208b120       0x24 c:/devkitpro/devkitarm/bin/../lib/gcc/arm-eabi/4.7.0/../../../../arm-eabi/lib/thumb\libstdc++.a(string-inst.o)
                0x0208b120                _ZNSs7replaceEN9__gnu_cxx17__normal_iteratorIPcSsEES2_RKSs
 .text._ZNSs7replaceEN9__gnu_cxx17__normal_iteratorIPcSsEES2_St16initializer_listIcE
                0x0208b144       0x24 c:/devkitpro/devkitarm/bin/../lib/gcc/arm-eabi/4.7.0/../../../../arm-eabi/lib/thumb\libstdc++.a(string-inst.o)
                0x0208b144                _ZNSs7replaceEN9__gnu_cxx17__normal_iteratorIPcSsEES2_St16initializer_listIcE
 .text._ZNSsC2IPKcEET_S2_RKSaIcE
                0x0208b168       0x1c c:/devkitpro/devkitarm/bin/../lib/gcc/arm-eabi/4.7.0/../../../../arm-eabi/lib/thumb\libstdc++.a(string-inst.o)
                0x0208b168                _ZNSsC2IPKcEET_S2_RKSaIcE
                0x0208b168                _ZNSsC1IPKcEET_S2_RKSaIcE
 .text._ZNSsC2ESt16initializer_listIcERKSaIcE
                0x0208b184       0x20 c:/devkitpro/devkitarm/bin/../lib/gcc/arm-eabi/4.7.0/../../../../arm-eabi/lib/thumb\libstdc++.a(string-inst.o)
                0x0208b184                _ZNSsC1ESt16initializer_listIcERKSaIcE
                0x0208b184                _ZNSsC2ESt16initializer_listIcERKSaIcE
 .text._ZNSsC2EPKcRKSaIcE
                0x0208b1a4       0x30 c:/devkitpro/devkitarm/bin/../lib/gcc/arm-eabi/4.7.0/../../../../arm-eabi/lib/thumb\libstdc++.a(string-inst.o)
                0x0208b1a4                _ZNSsC2EPKcRKSaIcE
                0x0208b1a4                _ZNSsC1EPKcRKSaIcE
 .text._ZN9__gnu_cxxeqIPcSsEEbRKNS_17__normal_iteratorIT_T0_EES7_
                0x0208b1d4        0xc c:/devkitpro/devkitarm/bin/../lib/gcc/arm-eabi/4.7.0/../../../../arm-eabi/lib/thumb\libstdc++.a(string-inst.o)
                0x0208b1d4                _ZN9__gnu_cxxeqIPcSsEEbRKNS_17__normal_iteratorIT_T0_EES7_
 .text._ZN9__gnu_cxxeqIPKcSsEEbRKNS_17__normal_iteratorIT_T0_EES8_
                0x0208b1e0        0xc c:/devkitpro/devkitarm/bin/../lib/gcc/arm-eabi/4.7.0/../../../../arm-eabi/lib/thumb\libstdc++.a(string-inst.o)
                0x0208b1e0                _ZN9__gnu_cxxeqIPKcSsEEbRKNS_17__normal_iteratorIT_T0_EES8_
 .text._ZSt21__throw_bad_exceptionv
                0x0208b1ec       0x20 c:/devkitpro/devkitarm/bin/../lib/gcc/arm-eabi/4.7.0/../../../../arm-eabi/lib/thumb\libstdc++.a(functexcept.o)
                0x0208b1ec                _ZSt21__throw_bad_exceptionv
 .text._ZSt17__throw_bad_allocv
                0x0208b20c       0x20 c:/devkitpro/devkitarm/bin/../lib/gcc/arm-eabi/4.7.0/../../../../arm-eabi/lib/thumb\libstdc++.a(functexcept.o)
                0x0208b20c                _ZSt17__throw_bad_allocv
 .text._ZSt16__throw_bad_castv
                0x0208b22c       0x20 c:/devkitpro/devkitarm/bin/../lib/gcc/arm-eabi/4.7.0/../../../../arm-eabi/lib/thumb\libstdc++.a(functexcept.o)
                0x0208b22c                _ZSt16__throw_bad_castv
 .text._ZSt18__throw_bad_typeidv
                0x0208b24c       0x20 c:/devkitpro/devkitarm/bin/../lib/gcc/arm-eabi/4.7.0/../../../../arm-eabi/lib/thumb\libstdc++.a(functexcept.o)
                0x0208b24c                _ZSt18__throw_bad_typeidv
 .text._ZSt19__throw_logic_errorPKc
                0x0208b26c       0x4c c:/devkitpro/devkitarm/bin/../lib/gcc/arm-eabi/4.7.0/../../../../arm-eabi/lib/thumb\libstdc++.a(functexcept.o)
                0x0208b26c                _ZSt19__throw_logic_errorPKc
 .text._ZSt20__throw_domain_errorPKc
                0x0208b2b8       0x4c c:/devkitpro/devkitarm/bin/../lib/gcc/arm-eabi/4.7.0/../../../../arm-eabi/lib/thumb\libstdc++.a(functexcept.o)
                0x0208b2b8                _ZSt20__throw_domain_errorPKc
 .text._ZSt24__throw_invalid_argumentPKc
                0x0208b304       0x4c c:/devkitpro/devkitarm/bin/../lib/gcc/arm-eabi/4.7.0/../../../../arm-eabi/lib/thumb\libstdc++.a(functexcept.o)
                0x0208b304                _ZSt24__throw_invalid_argumentPKc
 .text._ZSt20__throw_length_errorPKc
                0x0208b350       0x4c c:/devkitpro/devkitarm/bin/../lib/gcc/arm-eabi/4.7.0/../../../../arm-eabi/lib/thumb\libstdc++.a(functexcept.o)
                0x0208b350                _ZSt20__throw_length_errorPKc
 .text._ZSt20__throw_out_of_rangePKc
                0x0208b39c       0x4c c:/devkitpro/devkitarm/bin/../lib/gcc/arm-eabi/4.7.0/../../../../arm-eabi/lib/thumb\libstdc++.a(functexcept.o)
                0x0208b39c                _ZSt20__throw_out_of_rangePKc
 .text._ZSt21__throw_runtime_errorPKc
                0x0208b3e8       0x4c c:/devkitpro/devkitarm/bin/../lib/gcc/arm-eabi/4.7.0/../../../../arm-eabi/lib/thumb\libstdc++.a(functexcept.o)
                0x0208b3e8                _ZSt21__throw_runtime_errorPKc
 .text._ZSt19__throw_range_errorPKc
                0x0208b434       0x4c c:/devkitpro/devkitarm/bin/../lib/gcc/arm-eabi/4.7.0/../../../../arm-eabi/lib/thumb\libstdc++.a(functexcept.o)
                0x0208b434                _ZSt19__throw_range_errorPKc
 .text._ZSt22__throw_overflow_errorPKc
                0x0208b480       0x4c c:/devkitpro/devkitarm/bin/../lib/gcc/arm-eabi/4.7.0/../../../../arm-eabi/lib/thumb\libstdc++.a(functexcept.o)
                0x0208b480                _ZSt22__throw_overflow_errorPKc
 .text._ZSt23__throw_underflow_errorPKc
                0x0208b4cc       0x4c c:/devkitpro/devkitarm/bin/../lib/gcc/arm-eabi/4.7.0/../../../../arm-eabi/lib/thumb\libstdc++.a(functexcept.o)
                0x0208b4cc                _ZSt23__throw_underflow_errorPKc
 .text._ZSt19__throw_ios_failurePKc
                0x0208b518       0x44 c:/devkitpro/devkitarm/bin/../lib/gcc/arm-eabi/4.7.0/../../../../arm-eabi/lib/thumb\libstdc++.a(functexcept.o)
                0x0208b518                _ZSt19__throw_ios_failurePKc
 .text._ZSt20__throw_system_errori
                0x0208b55c       0x8c c:/devkitpro/devkitarm/bin/../lib/gcc/arm-eabi/4.7.0/../../../../arm-eabi/lib/thumb\libstdc++.a(functexcept.o)
                0x0208b55c                _ZSt20__throw_system_errori
 .text._ZSt20__throw_future_errori
                0x0208b5e8       0x88 c:/devkitpro/devkitarm/bin/../lib/gcc/arm-eabi/4.7.0/../../../../arm-eabi/lib/thumb\libstdc++.a(functexcept.o)
                0x0208b5e8                _ZSt20__throw_future_errori
 .text._ZSt25__throw_bad_function_callv
                0x0208b670       0x20 c:/devkitpro/devkitarm/bin/../lib/gcc/arm-eabi/4.7.0/../../../../arm-eabi/lib/thumb\libstdc++.a(functexcept.o)
                0x0208b670                _ZSt25__throw_bad_function_callv
 .text._ZSt19__throw_regex_errorNSt15regex_constants10error_typeE
                0x0208b690       0x30 c:/devkitpro/devkitarm/bin/../lib/gcc/arm-eabi/4.7.0/../../../../arm-eabi/lib/thumb\libstdc++.a(functexcept.o)
                0x0208b690                _ZSt19__throw_regex_errorNSt15regex_constants10error_typeE
 .text.__cxa_end_cleanup
                0x0208b6c0        0xc c:/devkitpro/devkitarm/bin/../lib/gcc/arm-eabi/4.7.0/../../../../arm-eabi/lib/thumb\libstdc++.a(eh_arm.o)
                0x0208b6c0                __cxa_end_cleanup
 .text.__cxa_type_match
                0x0208b6cc       0xcc c:/devkitpro/devkitarm/bin/../lib/gcc/arm-eabi/4.7.0/../../../../arm-eabi/lib/thumb\libstdc++.a(eh_arm.o)
                0x0208b6cc                __cxa_type_match
 .text.__cxa_begin_cleanup
                0x0208b798       0x64 c:/devkitpro/devkitarm/bin/../lib/gcc/arm-eabi/4.7.0/../../../../arm-eabi/lib/thumb\libstdc++.a(eh_arm.o)
                0x0208b798                __cxa_begin_cleanup
 .text.__gnu_end_cleanup
                0x0208b7fc       0x74 c:/devkitpro/devkitarm/bin/../lib/gcc/arm-eabi/4.7.0/../../../../arm-eabi/lib/thumb\libstdc++.a(eh_arm.o)
                0x0208b7fc                __gnu_end_cleanup
 .text._ZL23__gxx_exception_cleanup19_Unwind_Reason_CodeP21_Unwind_Control_Block
                0x0208b870       0x30 c:/devkitpro/devkitarm/bin/../lib/gcc/arm-eabi/4.7.0/../../../../arm-eabi/lib/thumb\libstdc++.a(eh_throw.o)
 .text.__cxa_throw
                0x0208b8a0       0x68 c:/devkitpro/devkitarm/bin/../lib/gcc/arm-eabi/4.7.0/../../../../arm-eabi/lib/thumb\libstdc++.a(eh_throw.o)
                0x0208b8a0                __cxa_throw
 .text.__cxa_rethrow
                0x0208b908       0x74 c:/devkitpro/devkitarm/bin/../lib/gcc/arm-eabi/4.7.0/../../../../arm-eabi/lib/thumb\libstdc++.a(eh_throw.o)
                0x0208b908                __cxa_rethrow
 .text.__cxa_pure_virtual
                0x0208b97c       0x14 c:/devkitpro/devkitarm/bin/../lib/gcc/arm-eabi/4.7.0/../../../../arm-eabi/lib/thumb\libstdc++.a(pure.o)
                0x0208b97c                __cxa_pure_virtual
 .text.__cxa_deleted_virtual
                0x0208b990       0x14 c:/devkitpro/devkitarm/bin/../lib/gcc/arm-eabi/4.7.0/../../../../arm-eabi/lib/thumb\libstdc++.a(pure.o)
                0x0208b990                __cxa_deleted_virtual
 .text._ZNKSt8bad_cast4whatEv
                0x0208b9a4        0x8 c:/devkitpro/devkitarm/bin/../lib/gcc/arm-eabi/4.7.0/../../../../arm-eabi/lib/thumb\libstdc++.a(bad_cast.o)
                0x0208b9a4                _ZNKSt8bad_cast4whatEv
 .text._ZNSt8bad_castD2Ev
                0x0208b9ac       0x1c c:/devkitpro/devkitarm/bin/../lib/gcc/arm-eabi/4.7.0/../../../../arm-eabi/lib/thumb\libstdc++.a(bad_cast.o)
                0x0208b9ac                _ZNSt8bad_castD2Ev
                0x0208b9ac                _ZNSt8bad_castD1Ev
 .text._ZNSt8bad_castD0Ev
                0x0208b9c8       0x18 c:/devkitpro/devkitarm/bin/../lib/gcc/arm-eabi/4.7.0/../../../../arm-eabi/lib/thumb\libstdc++.a(bad_cast.o)
                0x0208b9c8                _ZNSt8bad_castD0Ev
 .text.__cxa_get_globals_fast
                0x0208b9e0        0x8 c:/devkitpro/devkitarm/bin/../lib/gcc/arm-eabi/4.7.0/../../../../arm-eabi/lib/thumb\libstdc++.a(eh_globals.o)
                0x0208b9e0                __cxa_get_globals_fast
 .text.__cxa_get_globals
                0x0208b9e8        0x8 c:/devkitpro/devkitarm/bin/../lib/gcc/arm-eabi/4.7.0/../../../../arm-eabi/lib/thumb\libstdc++.a(eh_globals.o)
                0x0208b9e8                __cxa_get_globals
 .text.__cxa_get_exception_ptr
                0x0208b9f0        0x4 c:/devkitpro/devkitarm/bin/../lib/gcc/arm-eabi/4.7.0/../../../../arm-eabi/lib/thumb\libstdc++.a(eh_catch.o)
                0x0208b9f0                __cxa_get_exception_ptr
 .text.__cxa_begin_catch
                0x0208b9f4       0x88 c:/devkitpro/devkitarm/bin/../lib/gcc/arm-eabi/4.7.0/../../../../arm-eabi/lib/thumb\libstdc++.a(eh_catch.o)
                0x0208b9f4                __cxa_begin_catch
 .text.__cxa_end_catch
                0x0208ba7c       0x94 c:/devkitpro/devkitarm/bin/../lib/gcc/arm-eabi/4.7.0/../../../../arm-eabi/lib/thumb\libstdc++.a(eh_catch.o)
                0x0208ba7c                __cxa_end_catch
 .text._ZSt18uncaught_exceptionv
                0x0208bb10       0x14 c:/devkitpro/devkitarm/bin/../lib/gcc/arm-eabi/4.7.0/../../../../arm-eabi/lib/thumb\libstdc++.a(eh_catch.o)
                0x0208bb10                _ZSt18uncaught_exceptionv
 .text._ZNK10__cxxabiv120__si_class_type_info12__do_dyncastEiNS_17__class_type_info10__sub_kindEPKS1_PKvS4_S6_RNS1_16__dyncast_resultE
                0x0208bb24       0x90 c:/devkitpro/devkitarm/bin/../lib/gcc/arm-eabi/4.7.0/../../../../arm-eabi/lib/thumb\libstdc++.a(si_class_type_info.o)
                0x0208bb24                _ZNK10__cxxabiv120__si_class_type_info12__do_dyncastEiNS_17__class_type_info10__sub_kindEPKS1_PKvS4_S6_RNS1_16__dyncast_resultE
 .text._ZN10__cxxabiv120__si_class_type_infoD2Ev
                0x0208bbb4       0x1c c:/devkitpro/devkitarm/bin/../lib/gcc/arm-eabi/4.7.0/../../../../arm-eabi/lib/thumb\libstdc++.a(si_class_type_info.o)
                0x0208bbb4                _ZN10__cxxabiv120__si_class_type_infoD1Ev
                0x0208bbb4                _ZN10__cxxabiv120__si_class_type_infoD2Ev
 .text._ZN10__cxxabiv120__si_class_type_infoD0Ev
                0x0208bbd0       0x18 c:/devkitpro/devkitarm/bin/../lib/gcc/arm-eabi/4.7.0/../../../../arm-eabi/lib/thumb\libstdc++.a(si_class_type_info.o)
                0x0208bbd0                _ZN10__cxxabiv120__si_class_type_infoD0Ev
 .text._ZNK10__cxxabiv120__si_class_type_info11__do_upcastEPKNS_17__class_type_infoEPKvRNS1_15__upcast_resultE
                0x0208bbe8       0x30 c:/devkitpro/devkitarm/bin/../lib/gcc/arm-eabi/4.7.0/../../../../arm-eabi/lib/thumb\libstdc++.a(si_class_type_info.o)
                0x0208bbe8                _ZNK10__cxxabiv120__si_class_type_info11__do_upcastEPKNS_17__class_type_infoEPKvRNS1_15__upcast_resultE
 .text._ZNK10__cxxabiv120__si_class_type_info20__do_find_public_srcEiPKvPKNS_17__class_type_infoES2_
                0x0208bc18       0x40 c:/devkitpro/devkitarm/bin/../lib/gcc/arm-eabi/4.7.0/../../../../arm-eabi/lib/thumb\libstdc++.a(si_class_type_info.o)
                0x0208bc18                _ZNK10__cxxabiv120__si_class_type_info20__do_find_public_srcEiPKvPKNS_17__class_type_infoES2_
 .text._ZNSt9type_infoD2Ev
                0x0208bc58        0xc c:/devkitpro/devkitarm/bin/../lib/gcc/arm-eabi/4.7.0/../../../../arm-eabi/lib/thumb\libstdc++.a(tinfo.o)
                0x0208bc58                _ZNSt9type_infoD2Ev
                0x0208bc58                _ZNSt9type_infoD1Ev
 .text._ZNKSt9type_info14__is_pointer_pEv
                0x0208bc64        0x4 c:/devkitpro/devkitarm/bin/../lib/gcc/arm-eabi/4.7.0/../../../../arm-eabi/lib/thumb\libstdc++.a(tinfo.o)
                0x0208bc64                _ZNKSt9type_info14__is_pointer_pEv
 .text._ZNKSt9type_info15__is_function_pEv
                0x0208bc68        0x4 c:/devkitpro/devkitarm/bin/../lib/gcc/arm-eabi/4.7.0/../../../../arm-eabi/lib/thumb\libstdc++.a(tinfo.o)
                0x0208bc68                _ZNKSt9type_info15__is_function_pEv
 .text._ZNKSt9type_info11__do_upcastEPKN10__cxxabiv117__class_type_infoEPPv
                0x0208bc6c        0x4 c:/devkitpro/devkitarm/bin/../lib/gcc/arm-eabi/4.7.0/../../../../arm-eabi/lib/thumb\libstdc++.a(tinfo.o)
                0x0208bc6c                _ZNKSt9type_info11__do_upcastEPKN10__cxxabiv117__class_type_infoEPPv
 .text._ZNSt9type_infoD0Ev
                0x0208bc70       0x1c c:/devkitpro/devkitarm/bin/../lib/gcc/arm-eabi/4.7.0/../../../../arm-eabi/lib/thumb\libstdc++.a(tinfo.o)
                0x0208bc70                _ZNSt9type_infoD0Ev
 .text._ZNKSt9type_infoeqERKS_
                0x0208bc8c       0x30 c:/devkitpro/devkitarm/bin/../lib/gcc/arm-eabi/4.7.0/../../../../arm-eabi/lib/thumb\libstdc++.a(tinfo.o)
                0x0208bc8c                _ZNKSt9type_infoeqERKS_
 .text._ZNKSt9type_info10__do_catchEPKS_PPvj
                0x0208bcbc        0xc c:/devkitpro/devkitarm/bin/../lib/gcc/arm-eabi/4.7.0/../../../../arm-eabi/lib/thumb\libstdc++.a(tinfo.o)
                0x0208bcbc                _ZNKSt9type_info10__do_catchEPKS_PPvj
 .text._ZNKSt10bad_typeid4whatEv
                0x0208bcc8        0x8 c:/devkitpro/devkitarm/bin/../lib/gcc/arm-eabi/4.7.0/../../../../arm-eabi/lib/thumb\libstdc++.a(bad_typeid.o)
                0x0208bcc8                _ZNKSt10bad_typeid4whatEv
 .text._ZNSt10bad_typeidD2Ev
                0x0208bcd0       0x1c c:/devkitpro/devkitarm/bin/../lib/gcc/arm-eabi/4.7.0/../../../../arm-eabi/lib/thumb\libstdc++.a(bad_typeid.o)
                0x0208bcd0                _ZNSt10bad_typeidD2Ev
                0x0208bcd0                _ZNSt10bad_typeidD1Ev
 .text._ZNSt10bad_typeidD0Ev
                0x0208bcec       0x18 c:/devkitpro/devkitarm/bin/../lib/gcc/arm-eabi/4.7.0/../../../../arm-eabi/lib/thumb\libstdc++.a(bad_typeid.o)
                0x0208bcec                _ZNSt10bad_typeidD0Ev
 .text._ZNKSt8ios_base7failure4whatEv
                0x0208bd04        0x4 c:/devkitpro/devkitarm/bin/../lib/gcc/arm-eabi/4.7.0/../../../../arm-eabi/lib/thumb\libstdc++.a(ios_failure.o)
                0x0208bd04                _ZNKSt8ios_base7failure4whatEv
 .text._ZNSt8ios_base7failureD2Ev
                0x0208bd08       0x44 c:/devkitpro/devkitarm/bin/../lib/gcc/arm-eabi/4.7.0/../../../../arm-eabi/lib/thumb\libstdc++.a(ios_failure.o)
                0x0208bd08                _ZNSt8ios_base7failureD1Ev
                0x0208bd08                _ZNSt8ios_base7failureD2Ev
 .text._ZNSt8ios_base7failureD0Ev
                0x0208bd4c       0x18 c:/devkitpro/devkitarm/bin/../lib/gcc/arm-eabi/4.7.0/../../../../arm-eabi/lib/thumb\libstdc++.a(ios_failure.o)
                0x0208bd4c                _ZNSt8ios_base7failureD0Ev
 .text._ZNSt8ios_base7failureC2ERKSs
                0x0208bd64       0x34 c:/devkitpro/devkitarm/bin/../lib/gcc/arm-eabi/4.7.0/../../../../arm-eabi/lib/thumb\libstdc++.a(ios_failure.o)
                0x0208bd64                _ZNSt8ios_base7failureC2ERKSs
                0x0208bd64                _ZNSt8ios_base7failureC1ERKSs
 .text._ZNKSt11logic_error4whatEv
                0x0208bd98        0x4 c:/devkitpro/devkitarm/bin/../lib/gcc/arm-eabi/4.7.0/../../../../arm-eabi/lib/thumb\libstdc++.a(stdexcept.o)
                0x0208bd98                _ZNKSt11logic_error4whatEv
 .text._ZNKSt13runtime_error4whatEv
                0x0208bd9c        0x4 c:/devkitpro/devkitarm/bin/../lib/gcc/arm-eabi/4.7.0/../../../../arm-eabi/lib/thumb\libstdc++.a(stdexcept.o)
                0x0208bd9c                _ZNKSt13runtime_error4whatEv
 .text._ZNSt11logic_errorD2Ev
                0x0208bda0       0x44 c:/devkitpro/devkitarm/bin/../lib/gcc/arm-eabi/4.7.0/../../../../arm-eabi/lib/thumb\libstdc++.a(stdexcept.o)
                0x0208bda0                _ZNSt11logic_errorD1Ev
                0x0208bda0                _ZNSt11logic_errorD2Ev
 .text._ZNSt11logic_errorD0Ev
                0x0208bde4       0x18 c:/devkitpro/devkitarm/bin/../lib/gcc/arm-eabi/4.7.0/../../../../arm-eabi/lib/thumb\libstdc++.a(stdexcept.o)
                0x0208bde4                _ZNSt11logic_errorD0Ev
 .text._ZNSt12out_of_rangeD2Ev
                0x0208bdfc       0x1c c:/devkitpro/devkitarm/bin/../lib/gcc/arm-eabi/4.7.0/../../../../arm-eabi/lib/thumb\libstdc++.a(stdexcept.o)
                0x0208bdfc                _ZNSt12out_of_rangeD1Ev
                0x0208bdfc                _ZNSt12out_of_rangeD2Ev
 .text._ZNSt12out_of_rangeD0Ev
                0x0208be18       0x18 c:/devkitpro/devkitarm/bin/../lib/gcc/arm-eabi/4.7.0/../../../../arm-eabi/lib/thumb\libstdc++.a(stdexcept.o)
                0x0208be18                _ZNSt12out_of_rangeD0Ev
 .text._ZNSt12length_errorD2Ev
                0x0208be30       0x1c c:/devkitpro/devkitarm/bin/../lib/gcc/arm-eabi/4.7.0/../../../../arm-eabi/lib/thumb\libstdc++.a(stdexcept.o)
                0x0208be30                _ZNSt12length_errorD1Ev
                0x0208be30                _ZNSt12length_errorD2Ev
 .text._ZNSt12length_errorD0Ev
                0x0208be4c       0x18 c:/devkitpro/devkitarm/bin/../lib/gcc/arm-eabi/4.7.0/../../../../arm-eabi/lib/thumb\libstdc++.a(stdexcept.o)
                0x0208be4c                _ZNSt12length_errorD0Ev
 .text._ZNSt16invalid_argumentD2Ev
                0x0208be64       0x1c c:/devkitpro/devkitarm/bin/../lib/gcc/arm-eabi/4.7.0/../../../../arm-eabi/lib/thumb\libstdc++.a(stdexcept.o)
                0x0208be64                _ZNSt16invalid_argumentD1Ev
                0x0208be64                _ZNSt16invalid_argumentD2Ev
 .text._ZNSt16invalid_argumentD0Ev
                0x0208be80       0x18 c:/devkitpro/devkitarm/bin/../lib/gcc/arm-eabi/4.7.0/../../../../arm-eabi/lib/thumb\libstdc++.a(stdexcept.o)
                0x0208be80                _ZNSt16invalid_argumentD0Ev
 .text._ZNSt12domain_errorD2Ev
                0x0208be98       0x1c c:/devkitpro/devkitarm/bin/../lib/gcc/arm-eabi/4.7.0/../../../../arm-eabi/lib/thumb\libstdc++.a(stdexcept.o)
                0x0208be98                _ZNSt12domain_errorD2Ev
                0x0208be98                _ZNSt12domain_errorD1Ev
 .text._ZNSt12domain_errorD0Ev
                0x0208beb4       0x18 c:/devkitpro/devkitarm/bin/../lib/gcc/arm-eabi/4.7.0/../../../../arm-eabi/lib/thumb\libstdc++.a(stdexcept.o)
                0x0208beb4                _ZNSt12domain_errorD0Ev
 .text._ZNSt13runtime_errorD2Ev
                0x0208becc       0x44 c:/devkitpro/devkitarm/bin/../lib/gcc/arm-eabi/4.7.0/../../../../arm-eabi/lib/thumb\libstdc++.a(stdexcept.o)
                0x0208becc                _ZNSt13runtime_errorD1Ev
                0x0208becc                _ZNSt13runtime_errorD2Ev
 .text._ZNSt13runtime_errorD0Ev
                0x0208bf10       0x18 c:/devkitpro/devkitarm/bin/../lib/gcc/arm-eabi/4.7.0/../../../../arm-eabi/lib/thumb\libstdc++.a(stdexcept.o)
                0x0208bf10                _ZNSt13runtime_errorD0Ev
 .text._ZNSt15underflow_errorD2Ev
                0x0208bf28       0x1c c:/devkitpro/devkitarm/bin/../lib/gcc/arm-eabi/4.7.0/../../../../arm-eabi/lib/thumb\libstdc++.a(stdexcept.o)
                0x0208bf28                _ZNSt15underflow_errorD2Ev
                0x0208bf28                _ZNSt15underflow_errorD1Ev
 .text._ZNSt15underflow_errorD0Ev
                0x0208bf44       0x18 c:/devkitpro/devkitarm/bin/../lib/gcc/arm-eabi/4.7.0/../../../../arm-eabi/lib/thumb\libstdc++.a(stdexcept.o)
                0x0208bf44                _ZNSt15underflow_errorD0Ev
 .text._ZNSt14overflow_errorD2Ev
                0x0208bf5c       0x1c c:/devkitpro/devkitarm/bin/../lib/gcc/arm-eabi/4.7.0/../../../../arm-eabi/lib/thumb\libstdc++.a(stdexcept.o)
                0x0208bf5c                _ZNSt14overflow_errorD1Ev
                0x0208bf5c                _ZNSt14overflow_errorD2Ev
 .text._ZNSt14overflow_errorD0Ev
                0x0208bf78       0x18 c:/devkitpro/devkitarm/bin/../lib/gcc/arm-eabi/4.7.0/../../../../arm-eabi/lib/thumb\libstdc++.a(stdexcept.o)
                0x0208bf78                _ZNSt14overflow_errorD0Ev
 .text._ZNSt11range_errorD2Ev
                0x0208bf90       0x1c c:/devkitpro/devkitarm/bin/../lib/gcc/arm-eabi/4.7.0/../../../../arm-eabi/lib/thumb\libstdc++.a(stdexcept.o)
                0x0208bf90                _ZNSt11range_errorD1Ev
                0x0208bf90                _ZNSt11range_errorD2Ev
 .text._ZNSt11range_errorD0Ev
                0x0208bfac       0x18 c:/devkitpro/devkitarm/bin/../lib/gcc/arm-eabi/4.7.0/../../../../arm-eabi/lib/thumb\libstdc++.a(stdexcept.o)
                0x0208bfac                _ZNSt11range_errorD0Ev
 .text._ZNSt11logic_errorC2ERKSs
                0x0208bfc4       0x24 c:/devkitpro/devkitarm/bin/../lib/gcc/arm-eabi/4.7.0/../../../../arm-eabi/lib/thumb\libstdc++.a(stdexcept.o)
                0x0208bfc4                _ZNSt11logic_errorC1ERKSs
                0x0208bfc4                _ZNSt11logic_errorC2ERKSs
 .text._ZNSt12domain_errorC2ERKSs
                0x0208bfe8       0x1c c:/devkitpro/devkitarm/bin/../lib/gcc/arm-eabi/4.7.0/../../../../arm-eabi/lib/thumb\libstdc++.a(stdexcept.o)
                0x0208bfe8                _ZNSt12domain_errorC1ERKSs
                0x0208bfe8                _ZNSt12domain_errorC2ERKSs
 .text._ZNSt16invalid_argumentC2ERKSs
                0x0208c004       0x1c c:/devkitpro/devkitarm/bin/../lib/gcc/arm-eabi/4.7.0/../../../../arm-eabi/lib/thumb\libstdc++.a(stdexcept.o)
                0x0208c004                _ZNSt16invalid_argumentC2ERKSs
                0x0208c004                _ZNSt16invalid_argumentC1ERKSs
 .text._ZNSt12length_errorC2ERKSs
                0x0208c020       0x1c c:/devkitpro/devkitarm/bin/../lib/gcc/arm-eabi/4.7.0/../../../../arm-eabi/lib/thumb\libstdc++.a(stdexcept.o)
                0x0208c020                _ZNSt12length_errorC2ERKSs
                0x0208c020                _ZNSt12length_errorC1ERKSs
 .text._ZNSt12out_of_rangeC2ERKSs
                0x0208c03c       0x1c c:/devkitpro/devkitarm/bin/../lib/gcc/arm-eabi/4.7.0/../../../../arm-eabi/lib/thumb\libstdc++.a(stdexcept.o)
                0x0208c03c                _ZNSt12out_of_rangeC1ERKSs
                0x0208c03c                _ZNSt12out_of_rangeC2ERKSs
 .text._ZNSt13runtime_errorC2ERKSs
                0x0208c058       0x24 c:/devkitpro/devkitarm/bin/../lib/gcc/arm-eabi/4.7.0/../../../../arm-eabi/lib/thumb\libstdc++.a(stdexcept.o)
                0x0208c058                _ZNSt13runtime_errorC1ERKSs
                0x0208c058                _ZNSt13runtime_errorC2ERKSs
 .text._ZNSt11range_errorC2ERKSs
                0x0208c07c       0x1c c:/devkitpro/devkitarm/bin/../lib/gcc/arm-eabi/4.7.0/../../../../arm-eabi/lib/thumb\libstdc++.a(stdexcept.o)
                0x0208c07c                _ZNSt11range_errorC1ERKSs
                0x0208c07c                _ZNSt11range_errorC2ERKSs
 .text._ZNSt14overflow_errorC2ERKSs
                0x0208c098       0x1c c:/devkitpro/devkitarm/bin/../lib/gcc/arm-eabi/4.7.0/../../../../arm-eabi/lib/thumb\libstdc++.a(stdexcept.o)
                0x0208c098                _ZNSt14overflow_errorC2ERKSs
                0x0208c098                _ZNSt14overflow_errorC1ERKSs
 .text._ZNSt15underflow_errorC2ERKSs
                0x0208c0b4       0x1c c:/devkitpro/devkitarm/bin/../lib/gcc/arm-eabi/4.7.0/../../../../arm-eabi/lib/thumb\libstdc++.a(stdexcept.o)
                0x0208c0b4                _ZNSt15underflow_errorC1ERKSs
                0x0208c0b4                _ZNSt15underflow_errorC2ERKSs
 .text._ZNSt17bad_function_callD2Ev
                0x0208c0d0       0x1c c:/devkitpro/devkitarm/bin/../lib/gcc/arm-eabi/4.7.0/../../../../arm-eabi/lib/thumb\libstdc++.a(functional.o)
                0x0208c0d0                _ZNSt17bad_function_callD1Ev
                0x0208c0d0                _ZNSt17bad_function_callD2Ev
 .text._ZNSt17bad_function_callD0Ev
                0x0208c0ec       0x18 c:/devkitpro/devkitarm/bin/../lib/gcc/arm-eabi/4.7.0/../../../../arm-eabi/lib/thumb\libstdc++.a(functional.o)
                0x0208c0ec                _ZNSt17bad_function_callD0Ev
 .text._ZNK12_GLOBAL__N_121future_error_category4nameEv
                0x0208c104        0x8 c:/devkitpro/devkitarm/bin/../lib/gcc/arm-eabi/4.7.0/../../../../arm-eabi/lib/thumb\libstdc++.a(future.o)
 .text._ZNSt12future_errorD2Ev
                0x0208c10c       0x1c c:/devkitpro/devkitarm/bin/../lib/gcc/arm-eabi/4.7.0/../../../../arm-eabi/lib/thumb\libstdc++.a(future.o)
                0x0208c10c                _ZNSt12future_errorD2Ev
                0x0208c10c                _ZNSt12future_errorD1Ev
 .text._ZNSt12future_errorD0Ev
                0x0208c128       0x18 c:/devkitpro/devkitarm/bin/../lib/gcc/arm-eabi/4.7.0/../../../../arm-eabi/lib/thumb\libstdc++.a(future.o)
                0x0208c128                _ZNSt12future_errorD0Ev
 .text._ZN12_GLOBAL__N_121future_error_categoryD2Ev
                0x0208c140       0x1c c:/devkitpro/devkitarm/bin/../lib/gcc/arm-eabi/4.7.0/../../../../arm-eabi/lib/thumb\libstdc++.a(future.o)
 .text._ZN12_GLOBAL__N_121future_error_categoryD0Ev
                0x0208c15c       0x20 c:/devkitpro/devkitarm/bin/../lib/gcc/arm-eabi/4.7.0/../../../../arm-eabi/lib/thumb\libstdc++.a(future.o)
 .text._ZNKSt12future_error4whatEv
                0x0208c17c       0x44 c:/devkitpro/devkitarm/bin/../lib/gcc/arm-eabi/4.7.0/../../../../arm-eabi/lib/thumb\libstdc++.a(future.o)
                0x0208c17c                _ZNKSt12future_error4whatEv
 .text._ZNK12_GLOBAL__N_121future_error_category7messageEi
                0x0208c1c0       0x78 c:/devkitpro/devkitarm/bin/../lib/gcc/arm-eabi/4.7.0/../../../../arm-eabi/lib/thumb\libstdc++.a(future.o)
 .text._ZSt15future_categoryv
                0x0208c238       0x54 c:/devkitpro/devkitarm/bin/../lib/gcc/arm-eabi/4.7.0/../../../../arm-eabi/lib/thumb\libstdc++.a(future.o)
                0x0208c238                _ZSt15future_categoryv
 .text._ZNSt11regex_errorD2Ev
                0x0208c28c       0x1c c:/devkitpro/devkitarm/bin/../lib/gcc/arm-eabi/4.7.0/../../../../arm-eabi/lib/thumb\libstdc++.a(regex.o)
                0x0208c28c                _ZNSt11regex_errorD2Ev
                0x0208c28c                _ZNSt11regex_errorD1Ev
 .text._ZNSt11regex_errorD0Ev
                0x0208c2a8       0x18 c:/devkitpro/devkitarm/bin/../lib/gcc/arm-eabi/4.7.0/../../../../arm-eabi/lib/thumb\libstdc++.a(regex.o)
                0x0208c2a8                _ZNSt11regex_errorD0Ev
 .text._ZNSt11regex_errorC2ENSt15regex_constants10error_typeE
                0x0208c2c0       0x64 c:/devkitpro/devkitarm/bin/../lib/gcc/arm-eabi/4.7.0/../../../../arm-eabi/lib/thumb\libstdc++.a(regex.o)
                0x0208c2c0                _ZNSt11regex_errorC1ENSt15regex_constants10error_typeE
                0x0208c2c0                _ZNSt11regex_errorC2ENSt15regex_constants10error_typeE
 .text._ZNK12_GLOBAL__N_122generic_error_category4nameEv
                0x0208c324        0x8 c:/devkitpro/devkitarm/bin/../lib/gcc/arm-eabi/4.7.0/../../../../arm-eabi/lib/thumb\libstdc++.a(system_error.o)
 .text._ZNK12_GLOBAL__N_121system_error_category4nameEv
                0x0208c32c        0x8 c:/devkitpro/devkitarm/bin/../lib/gcc/arm-eabi/4.7.0/../../../../arm-eabi/lib/thumb\libstdc++.a(system_error.o)
 .text._ZNSt14error_categoryD2Ev
                0x0208c334        0xc c:/devkitpro/devkitarm/bin/../lib/gcc/arm-eabi/4.7.0/../../../../arm-eabi/lib/thumb\libstdc++.a(system_error.o)
                0x0208c334                _ZNSt14error_categoryD2Ev
                0x0208c334                _ZNSt14error_categoryD1Ev
 .text._ZNKSt14error_category23default_error_conditionEi
                0x0208c340        0x8 c:/devkitpro/devkitarm/bin/../lib/gcc/arm-eabi/4.7.0/../../../../arm-eabi/lib/thumb\libstdc++.a(system_error.o)
                0x0208c340                _ZNKSt14error_category23default_error_conditionEi
 .text._ZNKSt14error_category10equivalentEiRKSt15error_condition
                0x0208c348       0x38 c:/devkitpro/devkitarm/bin/../lib/gcc/arm-eabi/4.7.0/../../../../arm-eabi/lib/thumb\libstdc++.a(system_error.o)
                0x0208c348                _ZNKSt14error_category10equivalentEiRKSt15error_condition
 .text._ZNKSt14error_category10equivalentERKSt10error_codei
                0x0208c380       0x1c c:/devkitpro/devkitarm/bin/../lib/gcc/arm-eabi/4.7.0/../../../../arm-eabi/lib/thumb\libstdc++.a(system_error.o)
                0x0208c380                _ZNKSt14error_category10equivalentERKSt10error_codei
 .text._ZN12_GLOBAL__N_121system_error_categoryD2Ev
                0x0208c39c        0xc c:/devkitpro/devkitarm/bin/../lib/gcc/arm-eabi/4.7.0/../../../../arm-eabi/lib/thumb\libstdc++.a(system_error.o)
 .text._ZN12_GLOBAL__N_122generic_error_categoryD2Ev
                0x0208c3a8        0xc c:/devkitpro/devkitarm/bin/../lib/gcc/arm-eabi/4.7.0/../../../../arm-eabi/lib/thumb\libstdc++.a(system_error.o)
 .text._ZNK12_GLOBAL__N_122generic_error_category7messageEi
                0x0208c3b4       0x20 c:/devkitpro/devkitarm/bin/../lib/gcc/arm-eabi/4.7.0/../../../../arm-eabi/lib/thumb\libstdc++.a(system_error.o)
 .text._ZNK12_GLOBAL__N_121system_error_category7messageEi
                0x0208c3d4       0x20 c:/devkitpro/devkitarm/bin/../lib/gcc/arm-eabi/4.7.0/../../../../arm-eabi/lib/thumb\libstdc++.a(system_error.o)
 .text._ZNSt14error_categoryD0Ev
                0x0208c3f4       0x1c c:/devkitpro/devkitarm/bin/../lib/gcc/arm-eabi/4.7.0/../../../../arm-eabi/lib/thumb\libstdc++.a(system_error.o)
                0x0208c3f4                _ZNSt14error_categoryD0Ev
 .text._ZN12_GLOBAL__N_121system_error_categoryD0Ev
                0x0208c410       0x1c c:/devkitpro/devkitarm/bin/../lib/gcc/arm-eabi/4.7.0/../../../../arm-eabi/lib/thumb\libstdc++.a(system_error.o)
 .text._ZN12_GLOBAL__N_122generic_error_categoryD0Ev
                0x0208c42c       0x1c c:/devkitpro/devkitarm/bin/../lib/gcc/arm-eabi/4.7.0/../../../../arm-eabi/lib/thumb\libstdc++.a(system_error.o)
 .text._ZNSt12system_errorD2Ev
                0x0208c448       0x1c c:/devkitpro/devkitarm/bin/../lib/gcc/arm-eabi/4.7.0/../../../../arm-eabi/lib/thumb\libstdc++.a(system_error.o)
                0x0208c448                _ZNSt12system_errorD1Ev
                0x0208c448                _ZNSt12system_errorD2Ev
 .text._ZNSt12system_errorD0Ev
                0x0208c464       0x18 c:/devkitpro/devkitarm/bin/../lib/gcc/arm-eabi/4.7.0/../../../../arm-eabi/lib/thumb\libstdc++.a(system_error.o)
                0x0208c464                _ZNSt12system_errorD0Ev
 .text._ZNSt14error_categoryC2Ev
                0x0208c47c        0xc c:/devkitpro/devkitarm/bin/../lib/gcc/arm-eabi/4.7.0/../../../../arm-eabi/lib/thumb\libstdc++.a(system_error.o)
                0x0208c47c                _ZNSt14error_categoryC1Ev
                0x0208c47c                _ZNSt14error_categoryC2Ev
 .text._ZSt15system_categoryv
                0x0208c488        0x8 c:/devkitpro/devkitarm/bin/../lib/gcc/arm-eabi/4.7.0/../../../../arm-eabi/lib/thumb\libstdc++.a(system_error.o)
                0x0208c488                _ZSt15system_categoryv
 .text._ZSt16generic_categoryv
                0x0208c490        0x8 c:/devkitpro/devkitarm/bin/../lib/gcc/arm-eabi/4.7.0/../../../../arm-eabi/lib/thumb\libstdc++.a(system_error.o)
                0x0208c490                _ZSt16generic_categoryv
 .text._ZNKSt10error_code23default_error_conditionEv
                0x0208c498       0x20 c:/devkitpro/devkitarm/bin/../lib/gcc/arm-eabi/4.7.0/../../../../arm-eabi/lib/thumb\libstdc++.a(system_error.o)
                0x0208c498                _ZNKSt10error_code23default_error_conditionEv
 .text.startup._GLOBAL__sub_I__ZNSt14error_categoryC2Ev
                0x0208c4b8       0x48 c:/devkitpro/devkitarm/bin/../lib/gcc/arm-eabi/4.7.0/../../../../arm-eabi/lib/thumb\libstdc++.a(system_error.o)
 .text.__cxa_guard_acquire
                0x0208c500       0x3c c:/devkitpro/devkitarm/bin/../lib/gcc/arm-eabi/4.7.0/../../../../arm-eabi/lib/thumb\libstdc++.a(guard.o)
                0x0208c500                __cxa_guard_acquire
 .text.__cxa_guard_abort
                0x0208c53c        0x8 c:/devkitpro/devkitarm/bin/../lib/gcc/arm-eabi/4.7.0/../../../../arm-eabi/lib/thumb\libstdc++.a(guard.o)
                0x0208c53c                __cxa_guard_abort
 .text.__cxa_guard_release
                0x0208c544        0x8 c:/devkitpro/devkitarm/bin/../lib/gcc/arm-eabi/4.7.0/../../../../arm-eabi/lib/thumb\libstdc++.a(guard.o)
                0x0208c544                __cxa_guard_release
 .text._ZN9__gnu_cxx27__verbose_terminate_handlerEv
                0x0208c54c      0x11c c:/devkitpro/devkitarm/bin/../lib/gcc/arm-eabi/4.7.0/../../../../arm-eabi/lib/thumb\libstdc++.a(vterminate.o)
                0x0208c54c                _ZN9__gnu_cxx27__verbose_terminate_handlerEv
 .text._ZN9__gnu_cxx20recursive_init_errorD2Ev
                0x0208c668       0x1c c:/devkitpro/devkitarm/bin/../lib/gcc/arm-eabi/4.7.0/../../../../arm-eabi/lib/thumb\libstdc++.a(guard_error.o)
                0x0208c668                _ZN9__gnu_cxx20recursive_init_errorD2Ev
                0x0208c668                _ZN9__gnu_cxx20recursive_init_errorD1Ev
 .text._ZN9__gnu_cxx20recursive_init_errorD0Ev
                0x0208c684       0x18 c:/devkitpro/devkitarm/bin/../lib/gcc/arm-eabi/4.7.0/../../../../arm-eabi/lib/thumb\libstdc++.a(guard_error.o)
                0x0208c684                _ZN9__gnu_cxx20recursive_init_errorD0Ev
 .text.__aeabi_atexit
                0x0208c69c       0x14 c:/devkitpro/devkitarm/bin/../lib/gcc/arm-eabi/4.7.0/../../../../arm-eabi/lib/thumb\libstdc++.a(atexit_arm.o)
                0x0208c69c                __aeabi_atexit
 .text.__cxa_current_exception_type
                0x0208c6b0       0x28 c:/devkitpro/devkitarm/bin/../lib/gcc/arm-eabi/4.7.0/../../../../arm-eabi/lib/thumb\libstdc++.a(eh_type.o)
                0x0208c6b0                __cxa_current_exception_type
 .text.__cxa_current_exception_type.stub
                0x0208c6d8      0x200 linker stubs
 *(.stub)
 *(.gnu.warning)
 *(.gnu.linkonce.t*)
 *(.glue_7)
 .glue_7        0x00000000        0x0 linker stubs
 *(.glue_7t)
 .glue_7t       0x00000000        0x0 linker stubs
                0x0208c8d8                . = ALIGN (0x4)

.vfp11_veneer   0x0208c8e8        0x0
 .vfp11_veneer  0x00000000        0x0 linker stubs

.v4_bx          0x0208c8e8        0x0
 .v4_bx         0x00000000        0x0 linker stubs

.iplt           0x0208c8e8        0x0
 .iplt          0x00000000        0x0 c:/devkitpro/devkitarm/bin/../lib/gcc/arm-eabi/4.7.0/../../../../arm-eabi/lib/thumb/ds_arm9_crt0.o

.fini           0x0208c8e8        0xc
 *(.fini)
 .fini          0x0208c8e8        0x4 c:/devkitpro/devkitarm/bin/../lib/gcc/arm-eabi/4.7.0/thumb/crti.o
                0x0208c8e8                _fini
 .fini          0x0208c8ec        0x8 c:/devkitpro/devkitarm/bin/../lib/gcc/arm-eabi/4.7.0/thumb/crtn.o
                0x0208c8f4                __text_end = .

.rodata         0x0208c8f8    0x10f54
 *(.rodata)
 .rodata        0x0208c8f8     0x2004 default_font.bin.o
                0x0208c8f8                default_font_bin
                0x0208e8f8                default_font_bin_size
                0x0208e8f8                default_font_bin_end
 .rodata        0x0208e8fc       0x28 EEprom.o
 .rodata        0x0208e924       0x28 Flash.o
 .rodata        0x0208e94c      0xe78 GBA.o
 .rodata        0x0208f7c4       0x20 RTC.o
 .rodata        0x0208f7e4      0x694 armdis.o
 .rodata        0x0208fe78      0xd98 bios.o
 .rodata        0x02090c10      0x1b0 cpumg.o
 .rodata        0x02090dc0      0x19c console.o
 .rodata        0x02090f5c        0xc dldi.o
                0x02090f5c                DLDI_MAGIC_STRING_BACKWARDS
                0x02090f64                DLDI_MAGIC_NUMBER
 .rodata        0x02090f68      0x308 trig.o
                0x02090f68                SIN_LUT
                0x0209106c                TAN_LUT
 .rodata        0x02091270       0x64 c:/devkitPro/libnds/lib\libfat.a(libfat.o)
 .rodata        0x020912d4        0xc c:/devkitPro/libnds/lib\libfat.a(partition.o)
 .rodata        0x020912e0       0x54 c:/devkitPro/libnds/lib\libfat.a(directory.o)
 .rodata        0x02091334       0x10 c:/devkitPro/libnds/lib\libfat.a(disc.o)
                0x02091334                _FAT_disc_interfaces
 .rodata        0x02091344      0xf6c c:/devkitpro/devkitarm/bin/../lib/gcc/arm-eabi/4.7.0/../../../../arm-eabi/lib/thumb\libstdc++.a(cp-demangle.o)
 .rodata        0x020922b0       0x30 c:/devkitpro/devkitarm/bin/../lib/gcc/arm-eabi/4.7.0/../../../../arm-eabi/lib/thumb\libm.a(lib_a-e_pow.o)
 .rodata        0x020922e0       0x10 c:/devkitpro/devkitarm/bin/../lib/gcc/arm-eabi/4.7.0/../../../../arm-eabi/lib/thumb\libm.a(lib_a-s_rint.o)
 .rodata        0x020922f0       0x14 c:/devkitpro/devkitarm/bin/../lib/gcc/arm-eabi/4.7.0/thumb\libgcc.a(unwind-arm.o)
 .rodata        0x02092304      0x104 c:/devkitpro/devkitarm/bin/../lib/gcc/arm-eabi/4.7.0/../../../../arm-eabi/lib/thumb\libc.a(lib_a-ctype_.o)
                0x02092304                _ctype_
 .rodata        0x02092408        0x4 c:/devkitpro/devkitarm/bin/../lib/gcc/arm-eabi/4.7.0/../../../../arm-eabi/lib/thumb\libc.a(lib_a-impure.o)
                0x02092408                _global_impure_ptr
 .rodata        0x0209240c       0xf0 c:/devkitpro/devkitarm/bin/../lib/gcc/arm-eabi/4.7.0/../../../../arm-eabi/lib/thumb\libc.a(lib_a-locale.o)
 .rodata        0x020924fc       0xa8 c:/devkitpro/devkitarm/bin/../lib/gcc/arm-eabi/4.7.0/../../../../arm-eabi/lib/thumb\libc.a(lib_a-mbtowc_r.o)
 .rodata        0x020925a4       0x60 c:/devkitpro/devkitarm/bin/../lib/gcc/arm-eabi/4.7.0/../../../../arm-eabi/lib/thumb\libc.a(lib_a-mktime.o)
 .rodata        0x02092604       0x68 c:/devkitpro/devkitarm/bin/../lib/gcc/arm-eabi/4.7.0/../../../../arm-eabi/lib/thumb\libc.a(lib_a-mktm_r.o)
 .rodata        0x0209266c      0x23c c:/devkitpro/devkitarm/bin/../lib/gcc/arm-eabi/4.7.0/../../../../arm-eabi/lib/thumb\libc.a(lib_a-strerror.o)
 .rodata        0x020928a8      0x340 c:/devkitpro/devkitarm/bin/../lib/gcc/arm-eabi/4.7.0/../../../../arm-eabi/lib/thumb\libc.a(lib_a-svfiscanf.o)
 .rodata        0x02092be8      0x184 c:/devkitpro/devkitarm/bin/../lib/gcc/arm-eabi/4.7.0/../../../../arm-eabi/lib/thumb\libc.a(lib_a-svfprintf.o)
 .rodata        0x02092d6c      0x580 c:/devkitpro/devkitarm/bin/../lib/gcc/arm-eabi/4.7.0/../../../../arm-eabi/lib/thumb\libc.a(lib_a-towlower.o)
 .rodata        0x020932ec      0x3e4 c:/devkitpro/devkitarm/bin/../lib/gcc/arm-eabi/4.7.0/../../../../arm-eabi/lib/thumb\libc.a(lib_a-towupper.o)
 .rodata        0x020936d0      0x184 c:/devkitpro/devkitarm/bin/../lib/gcc/arm-eabi/4.7.0/../../../../arm-eabi/lib/thumb\libc.a(lib_a-vfiprintf.o)
 .rodata        0x02093854      0x184 c:/devkitpro/devkitarm/bin/../lib/gcc/arm-eabi/4.7.0/../../../../arm-eabi/lib/thumb\libc.a(lib_a-vfprintf.o)
 .rodata        0x020939d8     0x34f0 c:/devkitpro/devkitarm/bin/../lib/gcc/arm-eabi/4.7.0/../../../../arm-eabi/lib/thumb\libc.a(lib_a-jp2uc.o)
 .rodata        0x02096ec8      0x128 c:/devkitpro/devkitarm/bin/../lib/gcc/arm-eabi/4.7.0/../../../../arm-eabi/lib/thumb\libc.a(lib_a-mprec.o)
                0x02096ed8                __mprec_tens
                0x02096fa0                __mprec_tinytens
                0x02096fc8                __mprec_bigtens
 .rodata        0x02096ff0      0x184 c:/devkitpro/devkitarm/bin/../lib/gcc/arm-eabi/4.7.0/../../../../arm-eabi/lib/thumb\libc.a(lib_a-svfiprintf.o)
 .rodata        0x02097174       0x64 c:/devkitpro/devkitarm/bin/../lib/gcc/arm-eabi/4.7.0/../../../../arm-eabi/lib/thumb\libsysbase.a(iosupport.o)
                0x02097174                dotab_stdnull
 .rodata        0x020971d8        0xc c:/devkitpro/devkitarm/bin/../lib/gcc/arm-eabi/4.7.0/../../../../arm-eabi/lib/thumb\libsysbase.a(chdir.o)
                0x020971d8                DIRECTORY_PARENT
                0x020971dc                DIRECTORY_THIS
                0x020971e0                DIRECTORY_SEPARATOR
 *all.rodata*(*)
 *(.roda)
 *(.rodata.*)
 .rodata.str1.4
                0x020971e4      0x167 GBA.o
                                0x178 (size before relaxing)
 *fill*         0x0209734b        0x1 ff
 .rodata.str1.4
                0x0209734c       0x19 RTC.o
                                 0x1c (size before relaxing)
 *fill*         0x02097365        0x3 ff
 .rodata.str1.4
                0x02097368       0x75 Util.o
                                 0xb8 (size before relaxing)
 *fill*         0x020973dd        0x3 ff
 .rodata.str1.4
                0x020973e0       0x26 agbprint.o
                                 0x28 (size before relaxing)
 *fill*         0x02097406        0x2 ff
 .rodata.str1.4
                0x02097408      0x7f8 armdis.o
                                0x824 (size before relaxing)
 .rodata._Z11emuInstrARMjPi
                0x02097c00     0x2ea0 cpumg.o
 .rodata._Z13emuInstrTHUMBtPi
                0x0209aaa0      0x784 cpumg.o
 .rodata.str1.4
                0x0209b224      0x22a cpumg.o
                                0x238 (size before relaxing)
 *fill*         0x0209b44e        0x2 ff
 .rodata.str1.4
                0x0209b450      0x2b9 file_browse.o
                                0x2d0 (size before relaxing)
 *fill*         0x0209b709        0x3 ff
 .rodata.str1.4
                0x0209b70c      0x2a9 main.o
                                0x2e8 (size before relaxing)
 *fill*         0x0209b9b5        0x3 ff
 .rodata.str1.4
                0x0209b9b8       0xb9 mydebuger.o
                                0x10c (size before relaxing)
 *fill*         0x0209ba71        0x3 ff
 .rodata.str1.4
                0x0209ba74       0x84 background.o
 .rodata.str1.4
                0x0209baf8      0x349 console.o
                                0x388 (size before relaxing)
 *fill*         0x0209be41        0x3 ff
 .rodata.str1.4
                0x0209be44       0x44 sassert.o
 .rodata.str1.4
                0x0209be88       0x14 c:/devkitPro/libnds/lib\libfat.a(libfat.o)
 .rodata.str1.4
                0x00000000        0x8 c:/devkitPro/libnds/lib\libfat.a(directory.o)
 .rodata.str1.4
                0x00000000        0x4 c:/devkitPro/libnds/lib\libfat.a(disc.o)
 .rodata.str1.4
                0x0209be9c        0x5 c:/devkitPro/libnds/lib\libfat.a(fatdir.o)
                                  0x8 (size before relaxing)
 *fill*         0x0209bea1        0x3 ff
 .rodata._ZL28read_encoded_value_with_basehjPKhPj
                0x0209bea4       0x34 c:/devkitpro/devkitarm/bin/../lib/gcc/arm-eabi/4.7.0/../../../../arm-eabi/lib/thumb\libstdc++.a(eh_personality.o)
 .rodata._ZTVN10__cxxabiv115__forced_unwindE
                0x0209bed8       0x18 c:/devkitpro/devkitarm/bin/../lib/gcc/arm-eabi/4.7.0/../../../../arm-eabi/lib/thumb\libstdc++.a(eh_exception.o)
                0x0209bed8                _ZTVN10__cxxabiv115__forced_unwindE
 .rodata._ZTVSt9exception
                0x0209bef0       0x18 c:/devkitpro/devkitarm/bin/../lib/gcc/arm-eabi/4.7.0/../../../../arm-eabi/lib/thumb\libstdc++.a(eh_exception.o)
                0x0209bef0                _ZTVSt9exception
 .rodata._ZTIN10__cxxabiv115__forced_unwindE
                0x0209bf08        0x8 c:/devkitpro/devkitarm/bin/../lib/gcc/arm-eabi/4.7.0/../../../../arm-eabi/lib/thumb\libstdc++.a(eh_exception.o)
                0x0209bf08                _ZTIN10__cxxabiv115__forced_unwindE
 .rodata._ZTISt9exception
                0x0209bf10        0x8 c:/devkitpro/devkitarm/bin/../lib/gcc/arm-eabi/4.7.0/../../../../arm-eabi/lib/thumb\libstdc++.a(eh_exception.o)
                0x0209bf10                _ZTISt9exception
 .rodata._ZTSSt13bad_exception
                0x0209bf18       0x14 c:/devkitpro/devkitarm/bin/../lib/gcc/arm-eabi/4.7.0/../../../../arm-eabi/lib/thumb\libstdc++.a(eh_exception.o)
                0x0209bf18                _ZTSSt13bad_exception
 .rodata.str1.4
                0x0209bf2c       0x23 c:/devkitpro/devkitarm/bin/../lib/gcc/arm-eabi/4.7.0/../../../../arm-eabi/lib/thumb\libstdc++.a(eh_exception.o)
                                 0x24 (size before relaxing)
 *fill*         0x0209bf4f        0x1 ff
 .rodata._ZTSN10__cxxabiv119__foreign_exceptionE
                0x0209bf50       0x24 c:/devkitpro/devkitarm/bin/../lib/gcc/arm-eabi/4.7.0/../../../../arm-eabi/lib/thumb\libstdc++.a(eh_exception.o)
                0x0209bf50                _ZTSN10__cxxabiv119__foreign_exceptionE
 .rodata._ZTIN10__cxxabiv119__foreign_exceptionE
                0x0209bf74        0x8 c:/devkitpro/devkitarm/bin/../lib/gcc/arm-eabi/4.7.0/../../../../arm-eabi/lib/thumb\libstdc++.a(eh_exception.o)
                0x0209bf74                _ZTIN10__cxxabiv119__foreign_exceptionE
 *fill*         0x0209bf7c        0x4 ff
 .rodata._ZTVSt13bad_exception
                0x0209bf80       0x18 c:/devkitpro/devkitarm/bin/../lib/gcc/arm-eabi/4.7.0/../../../../arm-eabi/lib/thumb\libstdc++.a(eh_exception.o)
                0x0209bf80                _ZTVSt13bad_exception
 .rodata._ZTSSt9exception
                0x0209bf98       0x10 c:/devkitpro/devkitarm/bin/../lib/gcc/arm-eabi/4.7.0/../../../../arm-eabi/lib/thumb\libstdc++.a(eh_exception.o)
                0x0209bf98                _ZTSSt9exception
 .rodata._ZTVN10__cxxabiv119__foreign_exceptionE
                0x0209bfa8       0x18 c:/devkitpro/devkitarm/bin/../lib/gcc/arm-eabi/4.7.0/../../../../arm-eabi/lib/thumb\libstdc++.a(eh_exception.o)
                0x0209bfa8                _ZTVN10__cxxabiv119__foreign_exceptionE
 .rodata._ZTSN10__cxxabiv115__forced_unwindE
                0x0209bfc0       0x20 c:/devkitpro/devkitarm/bin/../lib/gcc/arm-eabi/4.7.0/../../../../arm-eabi/lib/thumb\libstdc++.a(eh_exception.o)
                0x0209bfc0                _ZTSN10__cxxabiv115__forced_unwindE
 .rodata._ZTISt13bad_exception
                0x0209bfe0        0xc c:/devkitpro/devkitarm/bin/../lib/gcc/arm-eabi/4.7.0/../../../../arm-eabi/lib/thumb\libstdc++.a(eh_exception.o)
                0x0209bfe0                _ZTISt13bad_exception
 *fill*         0x0209bfec        0x4 ff
 .rodata._ZTVSt9bad_alloc
                0x0209bff0       0x18 c:/devkitpro/devkitarm/bin/../lib/gcc/arm-eabi/4.7.0/../../../../arm-eabi/lib/thumb\libstdc++.a(bad_alloc.o)
                0x0209bff0                _ZTVSt9bad_alloc
 .rodata._ZTISt9bad_alloc
                0x0209c008        0xc c:/devkitpro/devkitarm/bin/../lib/gcc/arm-eabi/4.7.0/../../../../arm-eabi/lib/thumb\libstdc++.a(bad_alloc.o)
                0x0209c008                _ZTISt9bad_alloc
 .rodata.str1.4
                0x0209c014        0xf c:/devkitpro/devkitarm/bin/../lib/gcc/arm-eabi/4.7.0/../../../../arm-eabi/lib/thumb\libstdc++.a(bad_alloc.o)
                                 0x10 (size before relaxing)
 *fill*         0x0209c023        0x1 ff
 .rodata._ZTSSt9bad_alloc
                0x0209c024       0x10 c:/devkitpro/devkitarm/bin/../lib/gcc/arm-eabi/4.7.0/../../../../arm-eabi/lib/thumb\libstdc++.a(bad_alloc.o)
                0x0209c024                _ZTSSt9bad_alloc
 *fill*         0x0209c034        0x4 ff
 .rodata._ZTVN10__cxxabiv117__class_type_infoE
                0x0209c038       0x30 c:/devkitpro/devkitarm/bin/../lib/gcc/arm-eabi/4.7.0/../../../../arm-eabi/lib/thumb\libstdc++.a(class_type_info.o)
                0x0209c038                _ZTVN10__cxxabiv117__class_type_infoE
 .rodata._ZTIN10__cxxabiv117__class_type_infoE
                0x0209c068        0xc c:/devkitpro/devkitarm/bin/../lib/gcc/arm-eabi/4.7.0/../../../../arm-eabi/lib/thumb\libstdc++.a(class_type_info.o)
                0x0209c068                _ZTIN10__cxxabiv117__class_type_infoE
 .rodata._ZTSN10__cxxabiv117__class_type_infoE
                0x0209c074       0x24 c:/devkitpro/devkitarm/bin/../lib/gcc/arm-eabi/4.7.0/../../../../arm-eabi/lib/thumb\libstdc++.a(class_type_info.o)
                0x0209c074                _ZTSN10__cxxabiv117__class_type_infoE
 .rodata._ZSt7nothrow
                0x0209c098        0x4 c:/devkitpro/devkitarm/bin/../lib/gcc/arm-eabi/4.7.0/../../../../arm-eabi/lib/thumb\libstdc++.a(new_handler.o)
                0x0209c098                _ZSt7nothrow
 .rodata._ZNSs4_Rep11_S_terminalE
                0x0209c09c        0x1 c:/devkitpro/devkitarm/bin/../lib/gcc/arm-eabi/4.7.0/../../../../arm-eabi/lib/thumb\libstdc++.a(string-inst.o)
                0x0209c09c                _ZNSs4_Rep11_S_terminalE
 *fill*         0x0209c09d        0x3 ff
 .rodata._ZNSs4_Rep11_S_max_sizeE
                0x0209c0a0        0x4 c:/devkitpro/devkitarm/bin/../lib/gcc/arm-eabi/4.7.0/../../../../arm-eabi/lib/thumb\libstdc++.a(string-inst.o)
                0x0209c0a0                _ZNSs4_Rep11_S_max_sizeE
 .rodata._ZNSs4nposE
                0x0209c0a4        0x4 c:/devkitpro/devkitarm/bin/../lib/gcc/arm-eabi/4.7.0/../../../../arm-eabi/lib/thumb\libstdc++.a(string-inst.o)
                0x0209c0a4                _ZNSs4nposE
 .rodata.str1.4
                0x0209c0a8      0x161 c:/devkitpro/devkitarm/bin/../lib/gcc/arm-eabi/4.7.0/../../../../arm-eabi/lib/thumb\libstdc++.a(string-inst.o)
                                0x164 (size before relaxing)
 *fill*         0x0209c209        0x3 ff
 .rodata.str1.4
                0x0209c20c       0x12 c:/devkitpro/devkitarm/bin/../lib/gcc/arm-eabi/4.7.0/../../../../arm-eabi/lib/thumb\libstdc++.a(functexcept.o)
                                 0x14 (size before relaxing)
 *fill*         0x0209c21e        0x2 ff
 .rodata.str1.4
                0x0209c220       0x3b c:/devkitpro/devkitarm/bin/../lib/gcc/arm-eabi/4.7.0/../../../../arm-eabi/lib/thumb\libstdc++.a(pure.o)
                                 0x3c (size before relaxing)
 *fill*         0x0209c25b        0x1 ff
 .rodata._ZTISt8bad_cast
                0x0209c25c        0xc c:/devkitpro/devkitarm/bin/../lib/gcc/arm-eabi/4.7.0/../../../../arm-eabi/lib/thumb\libstdc++.a(bad_cast.o)
                0x0209c25c                _ZTISt8bad_cast
 .rodata._ZTSSt8bad_cast
                0x0209c268        0xc c:/devkitpro/devkitarm/bin/../lib/gcc/arm-eabi/4.7.0/../../../../arm-eabi/lib/thumb\libstdc++.a(bad_cast.o)
                0x0209c268                _ZTSSt8bad_cast
 *fill*         0x0209c274        0x4 ff
 .rodata._ZTVSt8bad_cast
                0x0209c278       0x18 c:/devkitpro/devkitarm/bin/../lib/gcc/arm-eabi/4.7.0/../../../../arm-eabi/lib/thumb\libstdc++.a(bad_cast.o)
                0x0209c278                _ZTVSt8bad_cast
 .rodata.str1.4
                0x0209c290        0xe c:/devkitpro/devkitarm/bin/../lib/gcc/arm-eabi/4.7.0/../../../../arm-eabi/lib/thumb\libstdc++.a(bad_cast.o)
                                 0x10 (size before relaxing)
 *fill*         0x0209c29e        0x2 ff
 .rodata._ZTVN10__cxxabiv120__si_class_type_infoE
                0x0209c2a0       0x30 c:/devkitpro/devkitarm/bin/../lib/gcc/arm-eabi/4.7.0/../../../../arm-eabi/lib/thumb\libstdc++.a(si_class_type_info.o)
                0x0209c2a0                _ZTVN10__cxxabiv120__si_class_type_infoE
 .rodata._ZTIN10__cxxabiv120__si_class_type_infoE
                0x0209c2d0        0xc c:/devkitpro/devkitarm/bin/../lib/gcc/arm-eabi/4.7.0/../../../../arm-eabi/lib/thumb\libstdc++.a(si_class_type_info.o)
                0x0209c2d0                _ZTIN10__cxxabiv120__si_class_type_infoE
 .rodata._ZTSN10__cxxabiv120__si_class_type_infoE
                0x0209c2dc       0x28 c:/devkitpro/devkitarm/bin/../lib/gcc/arm-eabi/4.7.0/../../../../arm-eabi/lib/thumb\libstdc++.a(si_class_type_info.o)
                0x0209c2dc                _ZTSN10__cxxabiv120__si_class_type_infoE
 .rodata._ZTISt9type_info
                0x0209c304        0x8 c:/devkitpro/devkitarm/bin/../lib/gcc/arm-eabi/4.7.0/../../../../arm-eabi/lib/thumb\libstdc++.a(tinfo.o)
                0x0209c304                _ZTISt9type_info
 .rodata._ZTSSt9type_info
                0x0209c30c       0x10 c:/devkitpro/devkitarm/bin/../lib/gcc/arm-eabi/4.7.0/../../../../arm-eabi/lib/thumb\libstdc++.a(tinfo.o)
                0x0209c30c                _ZTSSt9type_info
 *fill*         0x0209c31c        0x4 ff
 .rodata._ZTVSt9type_info
                0x0209c320       0x20 c:/devkitpro/devkitarm/bin/../lib/gcc/arm-eabi/4.7.0/../../../../arm-eabi/lib/thumb\libstdc++.a(tinfo.o)
                0x0209c320                _ZTVSt9type_info
 .rodata._ZTVSt10bad_typeid
                0x0209c340       0x18 c:/devkitpro/devkitarm/bin/../lib/gcc/arm-eabi/4.7.0/../../../../arm-eabi/lib/thumb\libstdc++.a(bad_typeid.o)
                0x0209c340                _ZTVSt10bad_typeid
 .rodata._ZTISt10bad_typeid
                0x0209c358        0xc c:/devkitpro/devkitarm/bin/../lib/gcc/arm-eabi/4.7.0/../../../../arm-eabi/lib/thumb\libstdc++.a(bad_typeid.o)
                0x0209c358                _ZTISt10bad_typeid
 .rodata.str1.4
                0x0209c364       0x10 c:/devkitpro/devkitarm/bin/../lib/gcc/arm-eabi/4.7.0/../../../../arm-eabi/lib/thumb\libstdc++.a(bad_typeid.o)
 .rodata._ZTSSt10bad_typeid
                0x0209c374       0x10 c:/devkitpro/devkitarm/bin/../lib/gcc/arm-eabi/4.7.0/../../../../arm-eabi/lib/thumb\libstdc++.a(bad_typeid.o)
                0x0209c374                _ZTSSt10bad_typeid
 *fill*         0x0209c384        0x4 ff
 .rodata._ZTVNSt8ios_base7failureE
                0x0209c388       0x18 c:/devkitpro/devkitarm/bin/../lib/gcc/arm-eabi/4.7.0/../../../../arm-eabi/lib/thumb\libstdc++.a(ios_failure.o)
                0x0209c388                _ZTVNSt8ios_base7failureE
 .rodata._ZTSNSt8ios_base7failureE
                0x0209c3a0       0x18 c:/devkitpro/devkitarm/bin/../lib/gcc/arm-eabi/4.7.0/../../../../arm-eabi/lib/thumb\libstdc++.a(ios_failure.o)
                0x0209c3a0                _ZTSNSt8ios_base7failureE
 .rodata._ZTINSt8ios_base7failureE
                0x0209c3b8        0xc c:/devkitpro/devkitarm/bin/../lib/gcc/arm-eabi/4.7.0/../../../../arm-eabi/lib/thumb\libstdc++.a(ios_failure.o)
                0x0209c3b8                _ZTINSt8ios_base7failureE
 .rodata._ZTSSt13runtime_error
                0x0209c3c4       0x14 c:/devkitpro/devkitarm/bin/../lib/gcc/arm-eabi/4.7.0/../../../../arm-eabi/lib/thumb\libstdc++.a(stdexcept.o)
                0x0209c3c4                _ZTSSt13runtime_error
 .rodata._ZTVSt13runtime_error
                0x0209c3d8       0x18 c:/devkitpro/devkitarm/bin/../lib/gcc/arm-eabi/4.7.0/../../../../arm-eabi/lib/thumb\libstdc++.a(stdexcept.o)
                0x0209c3d8                _ZTVSt13runtime_error
 .rodata._ZTISt13runtime_error
                0x0209c3f0        0xc c:/devkitpro/devkitarm/bin/../lib/gcc/arm-eabi/4.7.0/../../../../arm-eabi/lib/thumb\libstdc++.a(stdexcept.o)
                0x0209c3f0                _ZTISt13runtime_error
 .rodata._ZTISt11logic_error
                0x0209c3fc        0xc c:/devkitpro/devkitarm/bin/../lib/gcc/arm-eabi/4.7.0/../../../../arm-eabi/lib/thumb\libstdc++.a(stdexcept.o)
                0x0209c3fc                _ZTISt11logic_error
 .rodata._ZTVSt15underflow_error
                0x0209c408       0x18 c:/devkitpro/devkitarm/bin/../lib/gcc/arm-eabi/4.7.0/../../../../arm-eabi/lib/thumb\libstdc++.a(stdexcept.o)
                0x0209c408                _ZTVSt15underflow_error
 .rodata._ZTSSt14overflow_error
                0x0209c420       0x14 c:/devkitpro/devkitarm/bin/../lib/gcc/arm-eabi/4.7.0/../../../../arm-eabi/lib/thumb\libstdc++.a(stdexcept.o)
                0x0209c420                _ZTSSt14overflow_error
 .rodata._ZTISt11range_error
                0x0209c434        0xc c:/devkitpro/devkitarm/bin/../lib/gcc/arm-eabi/4.7.0/../../../../arm-eabi/lib/thumb\libstdc++.a(stdexcept.o)
                0x0209c434                _ZTISt11range_error
 .rodata._ZTSSt16invalid_argument
                0x0209c440       0x18 c:/devkitpro/devkitarm/bin/../lib/gcc/arm-eabi/4.7.0/../../../../arm-eabi/lib/thumb\libstdc++.a(stdexcept.o)
                0x0209c440                _ZTSSt16invalid_argument
 .rodata._ZTSSt12out_of_range
                0x0209c458       0x14 c:/devkitpro/devkitarm/bin/../lib/gcc/arm-eabi/4.7.0/../../../../arm-eabi/lib/thumb\libstdc++.a(stdexcept.o)
                0x0209c458                _ZTSSt12out_of_range
 .rodata._ZTSSt11logic_error
                0x0209c46c       0x10 c:/devkitpro/devkitarm/bin/../lib/gcc/arm-eabi/4.7.0/../../../../arm-eabi/lib/thumb\libstdc++.a(stdexcept.o)
                0x0209c46c                _ZTSSt11logic_error
 *fill*         0x0209c47c        0x4 ff
 .rodata._ZTVSt12out_of_range
                0x0209c480       0x18 c:/devkitpro/devkitarm/bin/../lib/gcc/arm-eabi/4.7.0/../../../../arm-eabi/lib/thumb\libstdc++.a(stdexcept.o)
                0x0209c480                _ZTVSt12out_of_range
 .rodata._ZTISt15underflow_error
                0x0209c498        0xc c:/devkitpro/devkitarm/bin/../lib/gcc/arm-eabi/4.7.0/../../../../arm-eabi/lib/thumb\libstdc++.a(stdexcept.o)
                0x0209c498                _ZTISt15underflow_error
 *fill*         0x0209c4a4        0x4 ff
 .rodata._ZTVSt16invalid_argument
                0x0209c4a8       0x18 c:/devkitpro/devkitarm/bin/../lib/gcc/arm-eabi/4.7.0/../../../../arm-eabi/lib/thumb\libstdc++.a(stdexcept.o)
                0x0209c4a8                _ZTVSt16invalid_argument
 .rodata._ZTSSt11range_error
                0x0209c4c0       0x10 c:/devkitpro/devkitarm/bin/../lib/gcc/arm-eabi/4.7.0/../../../../arm-eabi/lib/thumb\libstdc++.a(stdexcept.o)
                0x0209c4c0                _ZTSSt11range_error
 .rodata._ZTISt16invalid_argument
                0x0209c4d0        0xc c:/devkitpro/devkitarm/bin/../lib/gcc/arm-eabi/4.7.0/../../../../arm-eabi/lib/thumb\libstdc++.a(stdexcept.o)
                0x0209c4d0                _ZTISt16invalid_argument
 *fill*         0x0209c4dc        0x4 ff
 .rodata._ZTVSt11logic_error
                0x0209c4e0       0x18 c:/devkitpro/devkitarm/bin/../lib/gcc/arm-eabi/4.7.0/../../../../arm-eabi/lib/thumb\libstdc++.a(stdexcept.o)
                0x0209c4e0                _ZTVSt11logic_error
 .rodata._ZTISt12out_of_range
                0x0209c4f8        0xc c:/devkitpro/devkitarm/bin/../lib/gcc/arm-eabi/4.7.0/../../../../arm-eabi/lib/thumb\libstdc++.a(stdexcept.o)
                0x0209c4f8                _ZTISt12out_of_range
 .rodata._ZTSSt12domain_error
                0x0209c504       0x14 c:/devkitpro/devkitarm/bin/../lib/gcc/arm-eabi/4.7.0/../../../../arm-eabi/lib/thumb\libstdc++.a(stdexcept.o)
                0x0209c504                _ZTSSt12domain_error
 .rodata._ZTVSt11range_error
                0x0209c518       0x18 c:/devkitpro/devkitarm/bin/../lib/gcc/arm-eabi/4.7.0/../../../../arm-eabi/lib/thumb\libstdc++.a(stdexcept.o)
                0x0209c518                _ZTVSt11range_error
 .rodata._ZTVSt12domain_error
                0x0209c530       0x18 c:/devkitpro/devkitarm/bin/../lib/gcc/arm-eabi/4.7.0/../../../../arm-eabi/lib/thumb\libstdc++.a(stdexcept.o)
                0x0209c530                _ZTVSt12domain_error
 .rodata._ZTSSt12length_error
                0x0209c548       0x14 c:/devkitpro/devkitarm/bin/../lib/gcc/arm-eabi/4.7.0/../../../../arm-eabi/lib/thumb\libstdc++.a(stdexcept.o)
                0x0209c548                _ZTSSt12length_error
 *fill*         0x0209c55c        0x4 ff
 .rodata._ZTVSt14overflow_error
                0x0209c560       0x18 c:/devkitpro/devkitarm/bin/../lib/gcc/arm-eabi/4.7.0/../../../../arm-eabi/lib/thumb\libstdc++.a(stdexcept.o)
                0x0209c560                _ZTVSt14overflow_error
 .rodata._ZTISt14overflow_error
                0x0209c578        0xc c:/devkitpro/devkitarm/bin/../lib/gcc/arm-eabi/4.7.0/../../../../arm-eabi/lib/thumb\libstdc++.a(stdexcept.o)
                0x0209c578                _ZTISt14overflow_error
 .rodata._ZTISt12length_error
                0x0209c584        0xc c:/devkitpro/devkitarm/bin/../lib/gcc/arm-eabi/4.7.0/../../../../arm-eabi/lib/thumb\libstdc++.a(stdexcept.o)
                0x0209c584                _ZTISt12length_error
 .rodata._ZTVSt12length_error
                0x0209c590       0x18 c:/devkitpro/devkitarm/bin/../lib/gcc/arm-eabi/4.7.0/../../../../arm-eabi/lib/thumb\libstdc++.a(stdexcept.o)
                0x0209c590                _ZTVSt12length_error
 .rodata._ZTSSt15underflow_error
                0x0209c5a8       0x14 c:/devkitpro/devkitarm/bin/../lib/gcc/arm-eabi/4.7.0/../../../../arm-eabi/lib/thumb\libstdc++.a(stdexcept.o)
                0x0209c5a8                _ZTSSt15underflow_error
 .rodata._ZTISt12domain_error
                0x0209c5bc        0xc c:/devkitpro/devkitarm/bin/../lib/gcc/arm-eabi/4.7.0/../../../../arm-eabi/lib/thumb\libstdc++.a(stdexcept.o)
                0x0209c5bc                _ZTISt12domain_error
 .rodata._ZTISt17bad_function_call
                0x0209c5c8        0xc c:/devkitpro/devkitarm/bin/../lib/gcc/arm-eabi/4.7.0/../../../../arm-eabi/lib/thumb\libstdc++.a(functional.o)
                0x0209c5c8                _ZTISt17bad_function_call
 *fill*         0x0209c5d4        0x4 ff
 .rodata._ZTVSt17bad_function_call
                0x0209c5d8       0x18 c:/devkitpro/devkitarm/bin/../lib/gcc/arm-eabi/4.7.0/../../../../arm-eabi/lib/thumb\libstdc++.a(functional.o)
                0x0209c5d8                _ZTVSt17bad_function_call
 .rodata._ZTSSt17bad_function_call
                0x0209c5f0       0x18 c:/devkitpro/devkitarm/bin/../lib/gcc/arm-eabi/4.7.0/../../../../arm-eabi/lib/thumb\libstdc++.a(functional.o)
                0x0209c5f0                _ZTSSt17bad_function_call
 .rodata._ZTIN12_GLOBAL__N_121future_error_categoryE
                0x0209c608        0xc c:/devkitpro/devkitarm/bin/../lib/gcc/arm-eabi/4.7.0/../../../../arm-eabi/lib/thumb\libstdc++.a(future.o)
 *fill*         0x0209c614        0x4 ff
 .rodata._ZTVN12_GLOBAL__N_121future_error_categoryE
                0x0209c618       0x28 c:/devkitpro/devkitarm/bin/../lib/gcc/arm-eabi/4.7.0/../../../../arm-eabi/lib/thumb\libstdc++.a(future.o)
 .rodata._ZTISt12future_error
                0x0209c640        0xc c:/devkitpro/devkitarm/bin/../lib/gcc/arm-eabi/4.7.0/../../../../arm-eabi/lib/thumb\libstdc++.a(future.o)
                0x0209c640                _ZTISt12future_error
 .rodata.str1.4
                0x0209c64c       0x72 c:/devkitpro/devkitarm/bin/../lib/gcc/arm-eabi/4.7.0/../../../../arm-eabi/lib/thumb\libstdc++.a(future.o)
                                 0x74 (size before relaxing)
 *fill*         0x0209c6be        0x2 ff
 .rodata._ZTSSt12future_error
                0x0209c6c0       0x14 c:/devkitpro/devkitarm/bin/../lib/gcc/arm-eabi/4.7.0/../../../../arm-eabi/lib/thumb\libstdc++.a(future.o)
                0x0209c6c0                _ZTSSt12future_error
 .rodata._ZTSN12_GLOBAL__N_121future_error_categoryE
                0x0209c6d4       0x2c c:/devkitpro/devkitarm/bin/../lib/gcc/arm-eabi/4.7.0/../../../../arm-eabi/lib/thumb\libstdc++.a(future.o)
 .rodata._ZTVSt12future_error
                0x0209c700       0x18 c:/devkitpro/devkitarm/bin/../lib/gcc/arm-eabi/4.7.0/../../../../arm-eabi/lib/thumb\libstdc++.a(future.o)
                0x0209c700                _ZTVSt12future_error
 .rodata._ZTVSt11regex_error
                0x0209c718       0x18 c:/devkitpro/devkitarm/bin/../lib/gcc/arm-eabi/4.7.0/../../../../arm-eabi/lib/thumb\libstdc++.a(regex.o)
                0x0209c718                _ZTVSt11regex_error
 .rodata._ZTSSt11regex_error
                0x0209c730       0x10 c:/devkitpro/devkitarm/bin/../lib/gcc/arm-eabi/4.7.0/../../../../arm-eabi/lib/thumb\libstdc++.a(regex.o)
                0x0209c730                _ZTSSt11regex_error
 .rodata.str1.4
                0x0209c740        0xc c:/devkitpro/devkitarm/bin/../lib/gcc/arm-eabi/4.7.0/../../../../arm-eabi/lib/thumb\libstdc++.a(regex.o)
 .rodata._ZTISt11regex_error
                0x0209c74c        0xc c:/devkitpro/devkitarm/bin/../lib/gcc/arm-eabi/4.7.0/../../../../arm-eabi/lib/thumb\libstdc++.a(regex.o)
                0x0209c74c                _ZTISt11regex_error
 .rodata._ZTVSt12system_error
                0x0209c758       0x18 c:/devkitpro/devkitarm/bin/../lib/gcc/arm-eabi/4.7.0/../../../../arm-eabi/lib/thumb\libstdc++.a(system_error.o)
                0x0209c758                _ZTVSt12system_error
 .rodata._ZTSN12_GLOBAL__N_121system_error_categoryE
                0x0209c770       0x2c c:/devkitpro/devkitarm/bin/../lib/gcc/arm-eabi/4.7.0/../../../../arm-eabi/lib/thumb\libstdc++.a(system_error.o)
 *fill*         0x0209c79c        0x4 ff
 .rodata._ZTVSt14error_category
                0x0209c7a0       0x28 c:/devkitpro/devkitarm/bin/../lib/gcc/arm-eabi/4.7.0/../../../../arm-eabi/lib/thumb\libstdc++.a(system_error.o)
                0x0209c7a0                _ZTVSt14error_category
 .rodata._ZTVN12_GLOBAL__N_121system_error_categoryE
                0x0209c7c8       0x28 c:/devkitpro/devkitarm/bin/../lib/gcc/arm-eabi/4.7.0/../../../../arm-eabi/lib/thumb\libstdc++.a(system_error.o)
 .rodata._ZTSSt14error_category
                0x0209c7f0       0x14 c:/devkitpro/devkitarm/bin/../lib/gcc/arm-eabi/4.7.0/../../../../arm-eabi/lib/thumb\libstdc++.a(system_error.o)
                0x0209c7f0                _ZTSSt14error_category
 *fill*         0x0209c804        0x4 ff
 .rodata._ZTVN12_GLOBAL__N_122generic_error_categoryE
                0x0209c808       0x28 c:/devkitpro/devkitarm/bin/../lib/gcc/arm-eabi/4.7.0/../../../../arm-eabi/lib/thumb\libstdc++.a(system_error.o)
 .rodata._ZTISt12system_error
                0x0209c830        0xc c:/devkitpro/devkitarm/bin/../lib/gcc/arm-eabi/4.7.0/../../../../arm-eabi/lib/thumb\libstdc++.a(system_error.o)
                0x0209c830                _ZTISt12system_error
 .rodata._ZTIN12_GLOBAL__N_122generic_error_categoryE
                0x0209c83c        0xc c:/devkitpro/devkitarm/bin/../lib/gcc/arm-eabi/4.7.0/../../../../arm-eabi/lib/thumb\libstdc++.a(system_error.o)
 .rodata.str1.4
                0x0209c848        0xf c:/devkitpro/devkitarm/bin/../lib/gcc/arm-eabi/4.7.0/../../../../arm-eabi/lib/thumb\libstdc++.a(system_error.o)
                                 0x10 (size before relaxing)
 *fill*         0x0209c857        0x1 ff
 .rodata._ZTISt14error_category
                0x0209c858        0x8 c:/devkitpro/devkitarm/bin/../lib/gcc/arm-eabi/4.7.0/../../../../arm-eabi/lib/thumb\libstdc++.a(system_error.o)
                0x0209c858                _ZTISt14error_category
 .rodata._ZTSN12_GLOBAL__N_122generic_error_categoryE
                0x0209c860       0x2c c:/devkitpro/devkitarm/bin/../lib/gcc/arm-eabi/4.7.0/../../../../arm-eabi/lib/thumb\libstdc++.a(system_error.o)
 .rodata._ZTIN12_GLOBAL__N_121system_error_categoryE
                0x0209c88c        0xc c:/devkitpro/devkitarm/bin/../lib/gcc/arm-eabi/4.7.0/../../../../arm-eabi/lib/thumb\libstdc++.a(system_error.o)
 .rodata._ZTSSt12system_error
                0x0209c898       0x14 c:/devkitpro/devkitarm/bin/../lib/gcc/arm-eabi/4.7.0/../../../../arm-eabi/lib/thumb\libstdc++.a(system_error.o)
                0x0209c898                _ZTSSt12system_error
 .rodata.str1.4
                0x0209c8ac       0x94 c:/devkitpro/devkitarm/bin/../lib/gcc/arm-eabi/4.7.0/../../../../arm-eabi/lib/thumb\libstdc++.a(vterminate.o)
 .rodata._ZTIN9__gnu_cxx20recursive_init_errorE
                0x0209c940        0xc c:/devkitpro/devkitarm/bin/../lib/gcc/arm-eabi/4.7.0/../../../../arm-eabi/lib/thumb\libstdc++.a(guard_error.o)
                0x0209c940                _ZTIN9__gnu_cxx20recursive_init_errorE
 .rodata._ZTSN9__gnu_cxx20recursive_init_errorE
                0x0209c94c       0x24 c:/devkitpro/devkitarm/bin/../lib/gcc/arm-eabi/4.7.0/../../../../arm-eabi/lib/thumb\libstdc++.a(guard_error.o)
                0x0209c94c                _ZTSN9__gnu_cxx20recursive_init_errorE
 .rodata._ZTVN9__gnu_cxx20recursive_init_errorE
                0x0209c970       0x18 c:/devkitpro/devkitarm/bin/../lib/gcc/arm-eabi/4.7.0/../../../../arm-eabi/lib/thumb\libstdc++.a(guard_error.o)
                0x0209c970                _ZTVN9__gnu_cxx20recursive_init_errorE
 .rodata.str1.4
                0x0209c988      0x6ff c:/devkitpro/devkitarm/bin/../lib/gcc/arm-eabi/4.7.0/../../../../arm-eabi/lib/thumb\libstdc++.a(cp-demangle.o)
                                0x7a4 (size before relaxing)
 *fill*         0x0209d087        0x1 ff
 .rodata.str1.4
                0x0209d088        0x4 c:/devkitpro/devkitarm/bin/../lib/gcc/arm-eabi/4.7.0/../../../../arm-eabi/lib/thumb\libm.a(lib_a-w_pow.o)
 .rodata.str1.4
                0x0209d08c        0x5 c:/devkitpro/devkitarm/bin/../lib/gcc/arm-eabi/4.7.0/../../../../arm-eabi/lib/thumb\libm.a(lib_a-w_sqrt.o)
                                  0x8 (size before relaxing)
 .rodata.str1.4
                0x00000000        0x4 c:/devkitpro/devkitarm/bin/../lib/gcc/arm-eabi/4.7.0/../../../../arm-eabi/lib/thumb\libm.a(lib_a-e_pow.o)
 *fill*         0x0209d091        0x3 ff
 .rodata.str1.4
                0x0209d094        0x2 c:/devkitpro/devkitarm/bin/../lib/gcc/arm-eabi/4.7.0/../../../../arm-eabi/lib/thumb\libc.a(lib_a-impure.o)
                                  0x4 (size before relaxing)
 *fill*         0x0209d096        0x2 ff
 .rodata.str1.4
                0x0209d098      0x120 c:/devkitpro/devkitarm/bin/../lib/gcc/arm-eabi/4.7.0/../../../../arm-eabi/lib/thumb\libc.a(lib_a-locale.o)
                                0x130 (size before relaxing)
 .rodata.str1.4
                0x00000000        0x4 c:/devkitpro/devkitarm/bin/../lib/gcc/arm-eabi/4.7.0/../../../../arm-eabi/lib/thumb\libc.a(lib_a-mbrtowc.o)
 .rodata.str1.4
                0x00000000        0x4 c:/devkitpro/devkitarm/bin/../lib/gcc/arm-eabi/4.7.0/../../../../arm-eabi/lib/thumb\libc.a(lib_a-puts.o)
 .rodata.str1.4
                0x0209d1b8      0x635 c:/devkitpro/devkitarm/bin/../lib/gcc/arm-eabi/4.7.0/../../../../arm-eabi/lib/thumb\libc.a(lib_a-strerror.o)
                                0x63c (size before relaxing)
 *fill*         0x0209d7ed        0x3 ff
 .rodata.str1.4
                0x0209d7f0       0x3f c:/devkitpro/devkitarm/bin/../lib/gcc/arm-eabi/4.7.0/../../../../arm-eabi/lib/thumb\libc.a(lib_a-svfprintf.o)
                                 0x44 (size before relaxing)
 *fill*         0x0209d82f        0x1 ff
 .rodata.str1.4
                0x0209d830        0x4 c:/devkitpro/devkitarm/bin/../lib/gcc/arm-eabi/4.7.0/../../../../arm-eabi/lib/thumb\libc.a(lib_a-tzvars.o)
 .rodata.str1.4
                0x00000000       0x30 c:/devkitpro/devkitarm/bin/../lib/gcc/arm-eabi/4.7.0/../../../../arm-eabi/lib/thumb\libc.a(lib_a-vfiprintf.o)
 .rodata.str1.4
                0x00000000       0x44 c:/devkitpro/devkitarm/bin/../lib/gcc/arm-eabi/4.7.0/../../../../arm-eabi/lib/thumb\libc.a(lib_a-vfprintf.o)
 .rodata.str1.4
                0x0209d834       0x10 c:/devkitpro/devkitarm/bin/../lib/gcc/arm-eabi/4.7.0/../../../../arm-eabi/lib/thumb\libc.a(lib_a-dtoa.o)
                                 0x14 (size before relaxing)
 .rodata.str1.4
                0x00000000       0x14 c:/devkitpro/devkitarm/bin/../lib/gcc/arm-eabi/4.7.0/../../../../arm-eabi/lib/thumb\libc.a(lib_a-jp2uc.o)
 .rodata.str1.4
                0x00000000       0x30 c:/devkitpro/devkitarm/bin/../lib/gcc/arm-eabi/4.7.0/../../../../arm-eabi/lib/thumb\libc.a(lib_a-svfiprintf.o)
 .rodata.str1.4
                0x0209d844        0x8 c:/devkitpro/devkitarm/bin/../lib/gcc/arm-eabi/4.7.0/../../../../arm-eabi/lib/thumb\libsysbase.a(iosupport.o)
 *(.gnu.linkonce.r*)
                0x0209d84c                . = ALIGN (0x4)

.ARM.extab      0x0209d84c      0x50c
 *(.ARM.extab* .gnu.linkonce.armextab.*)
 .ARM.extab.text._Znwj
                0x0209d84c       0x20 c:/devkitpro/devkitarm/bin/../lib/gcc/arm-eabi/4.7.0/../../../../arm-eabi/lib/thumb\libstdc++.a(new_op.o)
 .ARM.extab.text._ZN10__cxxabiv1L24__is_gxx_exception_classEPc
                0x0209d86c        0x0 c:/devkitpro/devkitarm/bin/../lib/gcc/arm-eabi/4.7.0/../../../../arm-eabi/lib/thumb\libstdc++.a(eh_call.o)
 .ARM.extab.text.__cxa_call_terminate
                0x0209d86c        0x0 c:/devkitpro/devkitarm/bin/../lib/gcc/arm-eabi/4.7.0/../../../../arm-eabi/lib/thumb\libstdc++.a(eh_call.o)
 .ARM.extab.text.__cxa_call_unexpected
                0x0209d86c       0x30 c:/devkitpro/devkitarm/bin/../lib/gcc/arm-eabi/4.7.0/../../../../arm-eabi/lib/thumb\libstdc++.a(eh_call.o)
 .ARM.extab.text._ZL12read_sleb128PKhPl
                0x0209d89c        0x0 c:/devkitpro/devkitarm/bin/../lib/gcc/arm-eabi/4.7.0/../../../../arm-eabi/lib/thumb\libstdc++.a(eh_personality.o)
 .ARM.extab.text._ZL28read_encoded_value_with_basehjPKhPj
                0x0209d89c        0xc c:/devkitpro/devkitarm/bin/../lib/gcc/arm-eabi/4.7.0/../../../../arm-eabi/lib/thumb\libstdc++.a(eh_personality.o)
 .ARM.extab.text._ZL21base_of_encoded_valuehP15_Unwind_Context
                0x0209d8a8        0xc c:/devkitpro/devkitarm/bin/../lib/gcc/arm-eabi/4.7.0/../../../../arm-eabi/lib/thumb\libstdc++.a(eh_personality.o)
 .ARM.extab.text._ZL17parse_lsda_headerP15_Unwind_ContextPKhP16lsda_header_info
                0x0209d8b4        0x0 c:/devkitpro/devkitarm/bin/../lib/gcc/arm-eabi/4.7.0/../../../../arm-eabi/lib/thumb\libstdc++.a(eh_personality.o)
 .ARM.extab.text.__gxx_personality_v0
                0x0209d8b4       0x24 c:/devkitpro/devkitarm/bin/../lib/gcc/arm-eabi/4.7.0/../../../../arm-eabi/lib/thumb\libstdc++.a(eh_personality.o)
 .ARM.extab.text._ZdlPv
                0x0209d8d8        0x0 c:/devkitpro/devkitarm/bin/../lib/gcc/arm-eabi/4.7.0/../../../../arm-eabi/lib/thumb\libstdc++.a(del_op.o)
 .ARM.extab.text._ZN10__cxxabiv111__terminateEPFvvE
                0x0209d8d8       0x28 c:/devkitpro/devkitarm/bin/../lib/gcc/arm-eabi/4.7.0/../../../../arm-eabi/lib/thumb\libstdc++.a(eh_terminate.o)
 .ARM.extab.text._ZSt9terminatev
                0x0209d900        0x0 c:/devkitpro/devkitarm/bin/../lib/gcc/arm-eabi/4.7.0/../../../../arm-eabi/lib/thumb\libstdc++.a(eh_terminate.o)
 .ARM.extab.text._ZN10__cxxabiv112__unexpectedEPFvvE
                0x0209d900        0xc c:/devkitpro/devkitarm/bin/../lib/gcc/arm-eabi/4.7.0/../../../../arm-eabi/lib/thumb\libstdc++.a(eh_terminate.o)
 .ARM.extab.text._ZSt10unexpectedv
                0x0209d90c        0xc c:/devkitpro/devkitarm/bin/../lib/gcc/arm-eabi/4.7.0/../../../../arm-eabi/lib/thumb\libstdc++.a(eh_terminate.o)
 .ARM.extab.text._ZSt13set_terminatePFvvE
                0x0209d918        0x0 c:/devkitpro/devkitarm/bin/../lib/gcc/arm-eabi/4.7.0/../../../../arm-eabi/lib/thumb\libstdc++.a(eh_terminate.o)
 .ARM.extab.text._ZSt14set_unexpectedPFvvE
                0x0209d918        0x0 c:/devkitpro/devkitarm/bin/../lib/gcc/arm-eabi/4.7.0/../../../../arm-eabi/lib/thumb\libstdc++.a(eh_terminate.o)
 .ARM.extab.text._ZNSt9exceptionD2Ev
                0x0209d918        0x0 c:/devkitpro/devkitarm/bin/../lib/gcc/arm-eabi/4.7.0/../../../../arm-eabi/lib/thumb\libstdc++.a(eh_exception.o)
 .ARM.extab.text._ZNSt13bad_exceptionD2Ev
                0x0209d918        0x0 c:/devkitpro/devkitarm/bin/../lib/gcc/arm-eabi/4.7.0/../../../../arm-eabi/lib/thumb\libstdc++.a(eh_exception.o)
 .ARM.extab.text._ZN10__cxxabiv115__forced_unwindD2Ev
                0x0209d918        0x0 c:/devkitpro/devkitarm/bin/../lib/gcc/arm-eabi/4.7.0/../../../../arm-eabi/lib/thumb\libstdc++.a(eh_exception.o)
 .ARM.extab.text._ZN10__cxxabiv119__foreign_exceptionD2Ev
                0x0209d918        0x0 c:/devkitpro/devkitarm/bin/../lib/gcc/arm-eabi/4.7.0/../../../../arm-eabi/lib/thumb\libstdc++.a(eh_exception.o)
 .ARM.extab.text._ZNKSt9exception4whatEv
                0x0209d918        0x0 c:/devkitpro/devkitarm/bin/../lib/gcc/arm-eabi/4.7.0/../../../../arm-eabi/lib/thumb\libstdc++.a(eh_exception.o)
 .ARM.extab.text._ZNKSt13bad_exception4whatEv
                0x0209d918        0x0 c:/devkitpro/devkitarm/bin/../lib/gcc/arm-eabi/4.7.0/../../../../arm-eabi/lib/thumb\libstdc++.a(eh_exception.o)
 .ARM.extab.text._ZN10__cxxabiv119__foreign_exceptionD0Ev
                0x0209d918        0x0 c:/devkitpro/devkitarm/bin/../lib/gcc/arm-eabi/4.7.0/../../../../arm-eabi/lib/thumb\libstdc++.a(eh_exception.o)
 .ARM.extab.text._ZN10__cxxabiv115__forced_unwindD0Ev
                0x0209d918        0x0 c:/devkitpro/devkitarm/bin/../lib/gcc/arm-eabi/4.7.0/../../../../arm-eabi/lib/thumb\libstdc++.a(eh_exception.o)
 .ARM.extab.text._ZNSt9exceptionD0Ev
                0x0209d918        0x0 c:/devkitpro/devkitarm/bin/../lib/gcc/arm-eabi/4.7.0/../../../../arm-eabi/lib/thumb\libstdc++.a(eh_exception.o)
 .ARM.extab.text._ZNSt13bad_exceptionD0Ev
                0x0209d918        0x0 c:/devkitpro/devkitarm/bin/../lib/gcc/arm-eabi/4.7.0/../../../../arm-eabi/lib/thumb\libstdc++.a(eh_exception.o)
 .ARM.extab.text.__cxa_allocate_exception
                0x0209d918        0x0 c:/devkitpro/devkitarm/bin/../lib/gcc/arm-eabi/4.7.0/../../../../arm-eabi/lib/thumb\libstdc++.a(eh_alloc.o)
 .ARM.extab.text.__cxa_free_exception
                0x0209d918        0x0 c:/devkitpro/devkitarm/bin/../lib/gcc/arm-eabi/4.7.0/../../../../arm-eabi/lib/thumb\libstdc++.a(eh_alloc.o)
 .ARM.extab.text.__cxa_allocate_dependent_exception
                0x0209d918        0x0 c:/devkitpro/devkitarm/bin/../lib/gcc/arm-eabi/4.7.0/../../../../arm-eabi/lib/thumb\libstdc++.a(eh_alloc.o)
 .ARM.extab.text.__cxa_free_dependent_exception
                0x0209d918        0x0 c:/devkitpro/devkitarm/bin/../lib/gcc/arm-eabi/4.7.0/../../../../arm-eabi/lib/thumb\libstdc++.a(eh_alloc.o)
 .ARM.extab.text._ZNKSt9bad_alloc4whatEv
                0x0209d918        0x0 c:/devkitpro/devkitarm/bin/../lib/gcc/arm-eabi/4.7.0/../../../../arm-eabi/lib/thumb\libstdc++.a(bad_alloc.o)
 .ARM.extab.text._ZNSt9bad_allocD2Ev
                0x0209d918        0x0 c:/devkitpro/devkitarm/bin/../lib/gcc/arm-eabi/4.7.0/../../../../arm-eabi/lib/thumb\libstdc++.a(bad_alloc.o)
 .ARM.extab.text._ZNSt9bad_allocD0Ev
                0x0209d918        0x0 c:/devkitpro/devkitarm/bin/../lib/gcc/arm-eabi/4.7.0/../../../../arm-eabi/lib/thumb\libstdc++.a(bad_alloc.o)
 .ARM.extab.text._ZNK10__cxxabiv117__class_type_info11__do_upcastEPKS0_PPv
                0x0209d918        0x0 c:/devkitpro/devkitarm/bin/../lib/gcc/arm-eabi/4.7.0/../../../../arm-eabi/lib/thumb\libstdc++.a(class_type_info.o)
 .ARM.extab.text._ZNK10__cxxabiv117__class_type_info20__do_find_public_srcEiPKvPKS0_S2_
                0x0209d918        0x0 c:/devkitpro/devkitarm/bin/../lib/gcc/arm-eabi/4.7.0/../../../../arm-eabi/lib/thumb\libstdc++.a(class_type_info.o)
 .ARM.extab.text._ZNK10__cxxabiv117__class_type_info11__do_upcastEPKS0_PKvRNS0_15__upcast_resultE
                0x0209d918        0x0 c:/devkitpro/devkitarm/bin/../lib/gcc/arm-eabi/4.7.0/../../../../arm-eabi/lib/thumb\libstdc++.a(class_type_info.o)
 .ARM.extab.text._ZN10__cxxabiv117__class_type_infoD2Ev
                0x0209d918        0x0 c:/devkitpro/devkitarm/bin/../lib/gcc/arm-eabi/4.7.0/../../../../arm-eabi/lib/thumb\libstdc++.a(class_type_info.o)
 .ARM.extab.text._ZN10__cxxabiv117__class_type_infoD0Ev
                0x0209d918        0x0 c:/devkitpro/devkitarm/bin/../lib/gcc/arm-eabi/4.7.0/../../../../arm-eabi/lib/thumb\libstdc++.a(class_type_info.o)
 .ARM.extab.text._ZNK10__cxxabiv117__class_type_info12__do_dyncastEiNS0_10__sub_kindEPKS0_PKvS3_S5_RNS0_16__dyncast_resultE
                0x0209d918        0x0 c:/devkitpro/devkitarm/bin/../lib/gcc/arm-eabi/4.7.0/../../../../arm-eabi/lib/thumb\libstdc++.a(class_type_info.o)
 .ARM.extab.text._ZNK10__cxxabiv117__class_type_info10__do_catchEPKSt9type_infoPPvj
                0x0209d918        0x0 c:/devkitpro/devkitarm/bin/../lib/gcc/arm-eabi/4.7.0/../../../../arm-eabi/lib/thumb\libstdc++.a(class_type_info.o)
 .ARM.extab.text._ZSt15set_new_handlerPFvvE
                0x0209d918        0x0 c:/devkitpro/devkitarm/bin/../lib/gcc/arm-eabi/4.7.0/../../../../arm-eabi/lib/thumb\libstdc++.a(new_handler.o)
 .ARM.extab.text.unlikely._ZNSs4_Rep26_M_set_length_and_sharableEj.part.4
                0x0209d918        0x0 c:/devkitpro/devkitarm/bin/../lib/gcc/arm-eabi/4.7.0/../../../../arm-eabi/lib/thumb\libstdc++.a(string-inst.o)
 .ARM.extab.text._ZNKSs4dataEv
                0x0209d918        0x0 c:/devkitpro/devkitarm/bin/../lib/gcc/arm-eabi/4.7.0/../../../../arm-eabi/lib/thumb\libstdc++.a(string-inst.o)
 .ARM.extab.text._ZNKSs6lengthEv
                0x0209d918        0x0 c:/devkitpro/devkitarm/bin/../lib/gcc/arm-eabi/4.7.0/../../../../arm-eabi/lib/thumb\libstdc++.a(string-inst.o)
 .ARM.extab.text._ZNKSs7_M_dataEv
                0x0209d918        0x0 c:/devkitpro/devkitarm/bin/../lib/gcc/arm-eabi/4.7.0/../../../../arm-eabi/lib/thumb\libstdc++.a(string-inst.o)
 .ARM.extab.text._ZNSs7_M_dataEPc
                0x0209d918        0x0 c:/devkitpro/devkitarm/bin/../lib/gcc/arm-eabi/4.7.0/../../../../arm-eabi/lib/thumb\libstdc++.a(string-inst.o)
 .ARM.extab.text._ZNKSs6_M_repEv
                0x0209d918        0x0 c:/devkitpro/devkitarm/bin/../lib/gcc/arm-eabi/4.7.0/../../../../arm-eabi/lib/thumb\libstdc++.a(string-inst.o)
 .ARM.extab.text._ZNKSs9_M_ibeginEv
                0x0209d918        0x0 c:/devkitpro/devkitarm/bin/../lib/gcc/arm-eabi/4.7.0/../../../../arm-eabi/lib/thumb\libstdc++.a(string-inst.o)
 .ARM.extab.text._ZNKSs7_M_iendEv
                0x0209d918        0x0 c:/devkitpro/devkitarm/bin/../lib/gcc/arm-eabi/4.7.0/../../../../arm-eabi/lib/thumb\libstdc++.a(string-inst.o)
 .ARM.extab.text._ZNKSs8_M_checkEjPKc
                0x0209d918        0xc c:/devkitpro/devkitarm/bin/../lib/gcc/arm-eabi/4.7.0/../../../../arm-eabi/lib/thumb\libstdc++.a(string-inst.o)
 .ARM.extab.text._ZNKSs15_M_check_lengthEjjPKc
                0x0209d924        0x0 c:/devkitpro/devkitarm/bin/../lib/gcc/arm-eabi/4.7.0/../../../../arm-eabi/lib/thumb\libstdc++.a(string-inst.o)
 .ARM.extab.text._ZNKSs8_M_limitEjj
                0x0209d924        0x0 c:/devkitpro/devkitarm/bin/../lib/gcc/arm-eabi/4.7.0/../../../../arm-eabi/lib/thumb\libstdc++.a(string-inst.o)
 .ARM.extab.text._ZNKSs11_M_disjunctEPKc
                0x0209d924        0x0 c:/devkitpro/devkitarm/bin/../lib/gcc/arm-eabi/4.7.0/../../../../arm-eabi/lib/thumb\libstdc++.a(string-inst.o)
 .ARM.extab.text._ZNSs7_M_copyEPcPKcj
                0x0209d924        0x0 c:/devkitpro/devkitarm/bin/../lib/gcc/arm-eabi/4.7.0/../../../../arm-eabi/lib/thumb\libstdc++.a(string-inst.o)
 .ARM.extab.text._ZNSs7_M_moveEPcPKcj
                0x0209d924        0x0 c:/devkitpro/devkitarm/bin/../lib/gcc/arm-eabi/4.7.0/../../../../arm-eabi/lib/thumb\libstdc++.a(string-inst.o)
 .ARM.extab.text._ZNSs9_M_assignEPcjc
                0x0209d924        0x0 c:/devkitpro/devkitarm/bin/../lib/gcc/arm-eabi/4.7.0/../../../../arm-eabi/lib/thumb\libstdc++.a(string-inst.o)
 .ARM.extab.text._ZNSs13_S_copy_charsEPcN9__gnu_cxx17__normal_iteratorIS_SsEES2_
                0x0209d924        0x0 c:/devkitpro/devkitarm/bin/../lib/gcc/arm-eabi/4.7.0/../../../../arm-eabi/lib/thumb\libstdc++.a(string-inst.o)
 .ARM.extab.text._ZNSs13_S_copy_charsEPcN9__gnu_cxx17__normal_iteratorIPKcSsEES4_
                0x0209d924        0x0 c:/devkitpro/devkitarm/bin/../lib/gcc/arm-eabi/4.7.0/../../../../arm-eabi/lib/thumb\libstdc++.a(string-inst.o)
 .ARM.extab.text._ZNSs13_S_copy_charsEPcS_S_
                0x0209d924        0x0 c:/devkitpro/devkitarm/bin/../lib/gcc/arm-eabi/4.7.0/../../../../arm-eabi/lib/thumb\libstdc++.a(string-inst.o)
 .ARM.extab.text._ZNSs13_S_copy_charsEPcPKcS1_
                0x0209d924        0x0 c:/devkitpro/devkitarm/bin/../lib/gcc/arm-eabi/4.7.0/../../../../arm-eabi/lib/thumb\libstdc++.a(string-inst.o)
 .ARM.extab.text._ZNSs10_S_compareEjj
                0x0209d924        0x0 c:/devkitpro/devkitarm/bin/../lib/gcc/arm-eabi/4.7.0/../../../../arm-eabi/lib/thumb\libstdc++.a(string-inst.o)
 .ARM.extab.text._ZNSs12_S_empty_repEv
                0x0209d924        0x0 c:/devkitpro/devkitarm/bin/../lib/gcc/arm-eabi/4.7.0/../../../../arm-eabi/lib/thumb\libstdc++.a(string-inst.o)
 .ARM.extab.text._ZNSsC2Ev
                0x0209d924        0x0 c:/devkitpro/devkitarm/bin/../lib/gcc/arm-eabi/4.7.0/../../../../arm-eabi/lib/thumb\libstdc++.a(string-inst.o)
 .ARM.extab.text._ZNSsC2EOSs
                0x0209d924        0x0 c:/devkitpro/devkitarm/bin/../lib/gcc/arm-eabi/4.7.0/../../../../arm-eabi/lib/thumb\libstdc++.a(string-inst.o)
 .ARM.extab.text._ZNKSs5beginEv
                0x0209d924        0x0 c:/devkitpro/devkitarm/bin/../lib/gcc/arm-eabi/4.7.0/../../../../arm-eabi/lib/thumb\libstdc++.a(string-inst.o)
 .ARM.extab.text._ZNKSs3endEv
                0x0209d924        0x0 c:/devkitpro/devkitarm/bin/../lib/gcc/arm-eabi/4.7.0/../../../../arm-eabi/lib/thumb\libstdc++.a(string-inst.o)
 .ARM.extab.text._ZNKSs6rbeginEv
                0x0209d924        0x0 c:/devkitpro/devkitarm/bin/../lib/gcc/arm-eabi/4.7.0/../../../../arm-eabi/lib/thumb\libstdc++.a(string-inst.o)
 .ARM.extab.text._ZNKSs4rendEv
                0x0209d924        0x0 c:/devkitpro/devkitarm/bin/../lib/gcc/arm-eabi/4.7.0/../../../../arm-eabi/lib/thumb\libstdc++.a(string-inst.o)
 .ARM.extab.text._ZNKSs6cbeginEv
                0x0209d924        0x0 c:/devkitpro/devkitarm/bin/../lib/gcc/arm-eabi/4.7.0/../../../../arm-eabi/lib/thumb\libstdc++.a(string-inst.o)
 .ARM.extab.text._ZNKSs4cendEv
                0x0209d924        0x0 c:/devkitpro/devkitarm/bin/../lib/gcc/arm-eabi/4.7.0/../../../../arm-eabi/lib/thumb\libstdc++.a(string-inst.o)
 .ARM.extab.text._ZNKSs7crbeginEv
                0x0209d924        0x0 c:/devkitpro/devkitarm/bin/../lib/gcc/arm-eabi/4.7.0/../../../../arm-eabi/lib/thumb\libstdc++.a(string-inst.o)
 .ARM.extab.text._ZNKSs5crendEv
                0x0209d924        0x0 c:/devkitpro/devkitarm/bin/../lib/gcc/arm-eabi/4.7.0/../../../../arm-eabi/lib/thumb\libstdc++.a(string-inst.o)
 .ARM.extab.text._ZNKSs4sizeEv
                0x0209d924        0x0 c:/devkitpro/devkitarm/bin/../lib/gcc/arm-eabi/4.7.0/../../../../arm-eabi/lib/thumb\libstdc++.a(string-inst.o)
 .ARM.extab.text._ZNKSs8max_sizeEv
                0x0209d924        0x0 c:/devkitpro/devkitarm/bin/../lib/gcc/arm-eabi/4.7.0/../../../../arm-eabi/lib/thumb\libstdc++.a(string-inst.o)
 .ARM.extab.text._ZNKSs8capacityEv
                0x0209d924        0x0 c:/devkitpro/devkitarm/bin/../lib/gcc/arm-eabi/4.7.0/../../../../arm-eabi/lib/thumb\libstdc++.a(string-inst.o)
 .ARM.extab.text._ZNKSs5emptyEv
                0x0209d924        0x0 c:/devkitpro/devkitarm/bin/../lib/gcc/arm-eabi/4.7.0/../../../../arm-eabi/lib/thumb\libstdc++.a(string-inst.o)
 .ARM.extab.text._ZNKSsixEj
                0x0209d924        0x0 c:/devkitpro/devkitarm/bin/../lib/gcc/arm-eabi/4.7.0/../../../../arm-eabi/lib/thumb\libstdc++.a(string-inst.o)
 .ARM.extab.text._ZNKSs2atEj
                0x0209d924        0xc c:/devkitpro/devkitarm/bin/../lib/gcc/arm-eabi/4.7.0/../../../../arm-eabi/lib/thumb\libstdc++.a(string-inst.o)
 .ARM.extab.text._ZNKSs5frontEv
                0x0209d930        0x0 c:/devkitpro/devkitarm/bin/../lib/gcc/arm-eabi/4.7.0/../../../../arm-eabi/lib/thumb\libstdc++.a(string-inst.o)
 .ARM.extab.text._ZNKSs4backEv
                0x0209d930        0x0 c:/devkitpro/devkitarm/bin/../lib/gcc/arm-eabi/4.7.0/../../../../arm-eabi/lib/thumb\libstdc++.a(string-inst.o)
 .ARM.extab.text._ZNKSs4copyEPcjj
                0x0209d930        0x0 c:/devkitpro/devkitarm/bin/../lib/gcc/arm-eabi/4.7.0/../../../../arm-eabi/lib/thumb\libstdc++.a(string-inst.o)
 .ARM.extab.text._ZNSs4swapERSs
                0x0209d930        0x0 c:/devkitpro/devkitarm/bin/../lib/gcc/arm-eabi/4.7.0/../../../../arm-eabi/lib/thumb\libstdc++.a(string-inst.o)
 .ARM.extab.text._ZNSs6assignEOSs
                0x0209d930        0x0 c:/devkitpro/devkitarm/bin/../lib/gcc/arm-eabi/4.7.0/../../../../arm-eabi/lib/thumb\libstdc++.a(string-inst.o)
 .ARM.extab.text._ZNSsaSEOSs
                0x0209d930        0x0 c:/devkitpro/devkitarm/bin/../lib/gcc/arm-eabi/4.7.0/../../../../arm-eabi/lib/thumb\libstdc++.a(string-inst.o)
 .ARM.extab.text._ZNKSs5c_strEv
                0x0209d930        0x0 c:/devkitpro/devkitarm/bin/../lib/gcc/arm-eabi/4.7.0/../../../../arm-eabi/lib/thumb\libstdc++.a(string-inst.o)
 .ARM.extab.text._ZNKSs13get_allocatorEv
                0x0209d930        0x0 c:/devkitpro/devkitarm/bin/../lib/gcc/arm-eabi/4.7.0/../../../../arm-eabi/lib/thumb\libstdc++.a(string-inst.o)
 .ARM.extab.text._ZNKSs4findEPKcjj
                0x0209d930        0x0 c:/devkitpro/devkitarm/bin/../lib/gcc/arm-eabi/4.7.0/../../../../arm-eabi/lib/thumb\libstdc++.a(string-inst.o)
 .ARM.extab.text._ZNKSs4findERKSsj
                0x0209d930       0x10 c:/devkitpro/devkitarm/bin/../lib/gcc/arm-eabi/4.7.0/../../../../arm-eabi/lib/thumb\libstdc++.a(string-inst.o)
 .ARM.extab.text._ZNKSs4findEPKcj
                0x0209d940        0x0 c:/devkitpro/devkitarm/bin/../lib/gcc/arm-eabi/4.7.0/../../../../arm-eabi/lib/thumb\libstdc++.a(string-inst.o)
 .ARM.extab.text._ZNKSs4findEcj
                0x0209d940        0x0 c:/devkitpro/devkitarm/bin/../lib/gcc/arm-eabi/4.7.0/../../../../arm-eabi/lib/thumb\libstdc++.a(string-inst.o)
 .ARM.extab.text._ZNKSs5rfindEPKcjj
                0x0209d940        0x0 c:/devkitpro/devkitarm/bin/../lib/gcc/arm-eabi/4.7.0/../../../../arm-eabi/lib/thumb\libstdc++.a(string-inst.o)
 .ARM.extab.text._ZNKSs5rfindERKSsj
                0x0209d940       0x10 c:/devkitpro/devkitarm/bin/../lib/gcc/arm-eabi/4.7.0/../../../../arm-eabi/lib/thumb\libstdc++.a(string-inst.o)
 .ARM.extab.text._ZNKSs5rfindEPKcj
                0x0209d950        0x0 c:/devkitpro/devkitarm/bin/../lib/gcc/arm-eabi/4.7.0/../../../../arm-eabi/lib/thumb\libstdc++.a(string-inst.o)
 .ARM.extab.text._ZNKSs5rfindEcj
                0x0209d950        0x0 c:/devkitpro/devkitarm/bin/../lib/gcc/arm-eabi/4.7.0/../../../../arm-eabi/lib/thumb\libstdc++.a(string-inst.o)
 .ARM.extab.text._ZNKSs13find_first_ofEPKcjj
                0x0209d950        0x0 c:/devkitpro/devkitarm/bin/../lib/gcc/arm-eabi/4.7.0/../../../../arm-eabi/lib/thumb\libstdc++.a(string-inst.o)
 .ARM.extab.text._ZNKSs13find_first_ofERKSsj
                0x0209d950       0x10 c:/devkitpro/devkitarm/bin/../lib/gcc/arm-eabi/4.7.0/../../../../arm-eabi/lib/thumb\libstdc++.a(string-inst.o)
 .ARM.extab.text._ZNKSs13find_first_ofEPKcj
                0x0209d960        0x0 c:/devkitpro/devkitarm/bin/../lib/gcc/arm-eabi/4.7.0/../../../../arm-eabi/lib/thumb\libstdc++.a(string-inst.o)
 .ARM.extab.text._ZNKSs13find_first_ofEcj
                0x0209d960        0x0 c:/devkitpro/devkitarm/bin/../lib/gcc/arm-eabi/4.7.0/../../../../arm-eabi/lib/thumb\libstdc++.a(string-inst.o)
 .ARM.extab.text._ZNKSs12find_last_ofEPKcjj
                0x0209d960        0x0 c:/devkitpro/devkitarm/bin/../lib/gcc/arm-eabi/4.7.0/../../../../arm-eabi/lib/thumb\libstdc++.a(string-inst.o)
 .ARM.extab.text._ZNKSs12find_last_ofERKSsj
                0x0209d960       0x10 c:/devkitpro/devkitarm/bin/../lib/gcc/arm-eabi/4.7.0/../../../../arm-eabi/lib/thumb\libstdc++.a(string-inst.o)
 .ARM.extab.text._ZNKSs12find_last_ofEPKcj
                0x0209d970        0x0 c:/devkitpro/devkitarm/bin/../lib/gcc/arm-eabi/4.7.0/../../../../arm-eabi/lib/thumb\libstdc++.a(string-inst.o)
 .ARM.extab.text._ZNKSs12find_last_ofEcj
                0x0209d970        0x0 c:/devkitpro/devkitarm/bin/../lib/gcc/arm-eabi/4.7.0/../../../../arm-eabi/lib/thumb\libstdc++.a(string-inst.o)
 .ARM.extab.text._ZNKSs17find_first_not_ofEPKcjj
                0x0209d970        0x0 c:/devkitpro/devkitarm/bin/../lib/gcc/arm-eabi/4.7.0/../../../../arm-eabi/lib/thumb\libstdc++.a(string-inst.o)
 .ARM.extab.text._ZNKSs17find_first_not_ofERKSsj
                0x0209d970       0x10 c:/devkitpro/devkitarm/bin/../lib/gcc/arm-eabi/4.7.0/../../../../arm-eabi/lib/thumb\libstdc++.a(string-inst.o)
 .ARM.extab.text._ZNKSs17find_first_not_ofEPKcj
                0x0209d980        0x0 c:/devkitpro/devkitarm/bin/../lib/gcc/arm-eabi/4.7.0/../../../../arm-eabi/lib/thumb\libstdc++.a(string-inst.o)
 .ARM.extab.text._ZNKSs17find_first_not_ofEcj
                0x0209d980        0x0 c:/devkitpro/devkitarm/bin/../lib/gcc/arm-eabi/4.7.0/../../../../arm-eabi/lib/thumb\libstdc++.a(string-inst.o)
 .ARM.extab.text._ZNKSs16find_last_not_ofEPKcjj
                0x0209d980        0x0 c:/devkitpro/devkitarm/bin/../lib/gcc/arm-eabi/4.7.0/../../../../arm-eabi/lib/thumb\libstdc++.a(string-inst.o)
 .ARM.extab.text._ZNKSs16find_last_not_ofERKSsj
                0x0209d980       0x10 c:/devkitpro/devkitarm/bin/../lib/gcc/arm-eabi/4.7.0/../../../../arm-eabi/lib/thumb\libstdc++.a(string-inst.o)
 .ARM.extab.text._ZNKSs16find_last_not_ofEPKcj
                0x0209d990        0x0 c:/devkitpro/devkitarm/bin/../lib/gcc/arm-eabi/4.7.0/../../../../arm-eabi/lib/thumb\libstdc++.a(string-inst.o)
 .ARM.extab.text._ZNKSs16find_last_not_ofEcj
                0x0209d990        0x0 c:/devkitpro/devkitarm/bin/../lib/gcc/arm-eabi/4.7.0/../../../../arm-eabi/lib/thumb\libstdc++.a(string-inst.o)
 .ARM.extab.text._ZNKSs7compareERKSs
                0x0209d990        0x0 c:/devkitpro/devkitarm/bin/../lib/gcc/arm-eabi/4.7.0/../../../../arm-eabi/lib/thumb\libstdc++.a(string-inst.o)
 .ARM.extab.text._ZNKSs7compareEjjRKSs
                0x0209d990        0x0 c:/devkitpro/devkitarm/bin/../lib/gcc/arm-eabi/4.7.0/../../../../arm-eabi/lib/thumb\libstdc++.a(string-inst.o)
 .ARM.extab.text._ZNKSs7compareEjjRKSsjj
                0x0209d990        0x0 c:/devkitpro/devkitarm/bin/../lib/gcc/arm-eabi/4.7.0/../../../../arm-eabi/lib/thumb\libstdc++.a(string-inst.o)
 .ARM.extab.text._ZNKSs7compareEPKc
                0x0209d990        0x0 c:/devkitpro/devkitarm/bin/../lib/gcc/arm-eabi/4.7.0/../../../../arm-eabi/lib/thumb\libstdc++.a(string-inst.o)
 .ARM.extab.text._ZNKSs7compareEjjPKc
                0x0209d990        0x0 c:/devkitpro/devkitarm/bin/../lib/gcc/arm-eabi/4.7.0/../../../../arm-eabi/lib/thumb\libstdc++.a(string-inst.o)
 .ARM.extab.text._ZNKSs7compareEjjPKcj
                0x0209d990        0x0 c:/devkitpro/devkitarm/bin/../lib/gcc/arm-eabi/4.7.0/../../../../arm-eabi/lib/thumb\libstdc++.a(string-inst.o)
 .ARM.extab.text._ZNSs12_Alloc_hiderC2EPcRKSaIcE
                0x0209d990        0x0 c:/devkitpro/devkitarm/bin/../lib/gcc/arm-eabi/4.7.0/../../../../arm-eabi/lib/thumb\libstdc++.a(string-inst.o)
 .ARM.extab.text._ZNSs4_Rep12_S_empty_repEv
                0x0209d990        0x0 c:/devkitpro/devkitarm/bin/../lib/gcc/arm-eabi/4.7.0/../../../../arm-eabi/lib/thumb\libstdc++.a(string-inst.o)
 .ARM.extab.text._ZNKSs4_Rep12_M_is_leakedEv
                0x0209d990        0x0 c:/devkitpro/devkitarm/bin/../lib/gcc/arm-eabi/4.7.0/../../../../arm-eabi/lib/thumb\libstdc++.a(string-inst.o)
 .ARM.extab.text._ZNKSs4_Rep12_M_is_sharedEv
                0x0209d990        0x0 c:/devkitpro/devkitarm/bin/../lib/gcc/arm-eabi/4.7.0/../../../../arm-eabi/lib/thumb\libstdc++.a(string-inst.o)
 .ARM.extab.text._ZNSs4_Rep13_M_set_leakedEv
                0x0209d990        0x0 c:/devkitpro/devkitarm/bin/../lib/gcc/arm-eabi/4.7.0/../../../../arm-eabi/lib/thumb\libstdc++.a(string-inst.o)
 .ARM.extab.text._ZNSs4_Rep15_M_set_sharableEv
                0x0209d990        0x0 c:/devkitpro/devkitarm/bin/../lib/gcc/arm-eabi/4.7.0/../../../../arm-eabi/lib/thumb\libstdc++.a(string-inst.o)
 .ARM.extab.text._ZNSs4_Rep26_M_set_length_and_sharableEj
                0x0209d990        0x0 c:/devkitpro/devkitarm/bin/../lib/gcc/arm-eabi/4.7.0/../../../../arm-eabi/lib/thumb\libstdc++.a(string-inst.o)
 .ARM.extab.text._ZNSs4_Rep10_M_refdataEv
                0x0209d990        0x0 c:/devkitpro/devkitarm/bin/../lib/gcc/arm-eabi/4.7.0/../../../../arm-eabi/lib/thumb\libstdc++.a(string-inst.o)
 .ARM.extab.text._ZNSs4_Rep9_S_createEjjRKSaIcE
                0x0209d990        0x0 c:/devkitpro/devkitarm/bin/../lib/gcc/arm-eabi/4.7.0/../../../../arm-eabi/lib/thumb\libstdc++.a(string-inst.o)
 .ARM.extab.text._ZNSs12_S_constructEjcRKSaIcE
                0x0209d990        0x0 c:/devkitpro/devkitarm/bin/../lib/gcc/arm-eabi/4.7.0/../../../../arm-eabi/lib/thumb\libstdc++.a(string-inst.o)
 .ARM.extab.text._ZNSs18_S_construct_aux_2EjcRKSaIcE
                0x0209d990        0xc c:/devkitpro/devkitarm/bin/../lib/gcc/arm-eabi/4.7.0/../../../../arm-eabi/lib/thumb\libstdc++.a(string-inst.o)
 .ARM.extab.text._ZNSsC2EjcRKSaIcE
                0x0209d99c        0x0 c:/devkitpro/devkitarm/bin/../lib/gcc/arm-eabi/4.7.0/../../../../arm-eabi/lib/thumb\libstdc++.a(string-inst.o)
 .ARM.extab.text._ZNSsC2ERKSaIcE
                0x0209d99c        0x0 c:/devkitpro/devkitarm/bin/../lib/gcc/arm-eabi/4.7.0/../../../../arm-eabi/lib/thumb\libstdc++.a(string-inst.o)
 .ARM.extab.text._ZNSs4_Rep10_M_destroyERKSaIcE
                0x0209d99c        0x0 c:/devkitpro/devkitarm/bin/../lib/gcc/arm-eabi/4.7.0/../../../../arm-eabi/lib/thumb\libstdc++.a(string-inst.o)
 .ARM.extab.text.unlikely._ZNSs4_Rep10_M_disposeERKSaIcE.part.10
                0x0209d99c        0x0 c:/devkitpro/devkitarm/bin/../lib/gcc/arm-eabi/4.7.0/../../../../arm-eabi/lib/thumb\libstdc++.a(string-inst.o)
 .ARM.extab.text._ZNSs4_Rep10_M_disposeERKSaIcE
                0x0209d99c        0x0 c:/devkitpro/devkitarm/bin/../lib/gcc/arm-eabi/4.7.0/../../../../arm-eabi/lib/thumb\libstdc++.a(string-inst.o)
 .ARM.extab.text._ZNSsD2Ev
                0x0209d99c        0x0 c:/devkitpro/devkitarm/bin/../lib/gcc/arm-eabi/4.7.0/../../../../arm-eabi/lib/thumb\libstdc++.a(string-inst.o)
 .ARM.extab.text._ZNSs9_M_mutateEjjj
                0x0209d99c        0xc c:/devkitpro/devkitarm/bin/../lib/gcc/arm-eabi/4.7.0/../../../../arm-eabi/lib/thumb\libstdc++.a(string-inst.o)
 .ARM.extab.text._ZNSs15_M_replace_safeEjjPKcj
                0x0209d9a8        0x0 c:/devkitpro/devkitarm/bin/../lib/gcc/arm-eabi/4.7.0/../../../../arm-eabi/lib/thumb\libstdc++.a(string-inst.o)
 .ARM.extab.text._ZNSs6assignEPKcj
                0x0209d9a8        0x0 c:/devkitpro/devkitarm/bin/../lib/gcc/arm-eabi/4.7.0/../../../../arm-eabi/lib/thumb\libstdc++.a(string-inst.o)
 .ARM.extab.text._ZNSs6assignESt16initializer_listIcE
                0x0209d9a8        0x0 c:/devkitpro/devkitarm/bin/../lib/gcc/arm-eabi/4.7.0/../../../../arm-eabi/lib/thumb\libstdc++.a(string-inst.o)
 .ARM.extab.text._ZNSs6assignEPKc
                0x0209d9a8        0x0 c:/devkitpro/devkitarm/bin/../lib/gcc/arm-eabi/4.7.0/../../../../arm-eabi/lib/thumb\libstdc++.a(string-inst.o)
 .ARM.extab.text._ZNSs6assignERKSsjj
                0x0209d9a8        0x0 c:/devkitpro/devkitarm/bin/../lib/gcc/arm-eabi/4.7.0/../../../../arm-eabi/lib/thumb\libstdc++.a(string-inst.o)
 .ARM.extab.text._ZNSsaSESt16initializer_listIcE
                0x0209d9a8        0x0 c:/devkitpro/devkitarm/bin/../lib/gcc/arm-eabi/4.7.0/../../../../arm-eabi/lib/thumb\libstdc++.a(string-inst.o)
 .ARM.extab.text._ZNSsaSEPKc
                0x0209d9a8        0x0 c:/devkitpro/devkitarm/bin/../lib/gcc/arm-eabi/4.7.0/../../../../arm-eabi/lib/thumb\libstdc++.a(string-inst.o)
 .ARM.extab.text._ZNSs14_M_replace_auxEjjjc
                0x0209d9a8        0x0 c:/devkitpro/devkitarm/bin/../lib/gcc/arm-eabi/4.7.0/../../../../arm-eabi/lib/thumb\libstdc++.a(string-inst.o)
 .ARM.extab.text._ZNSs7replaceEN9__gnu_cxx17__normal_iteratorIPcSsEES2_jc
                0x0209d9a8        0x0 c:/devkitpro/devkitarm/bin/../lib/gcc/arm-eabi/4.7.0/../../../../arm-eabi/lib/thumb\libstdc++.a(string-inst.o)
 .ARM.extab.text._ZNSs7replaceEjjjc
                0x0209d9a8        0x0 c:/devkitpro/devkitarm/bin/../lib/gcc/arm-eabi/4.7.0/../../../../arm-eabi/lib/thumb\libstdc++.a(string-inst.o)
 .ARM.extab.text._ZNSs6insertEN9__gnu_cxx17__normal_iteratorIPcSsEEc
                0x0209d9a8        0x0 c:/devkitpro/devkitarm/bin/../lib/gcc/arm-eabi/4.7.0/../../../../arm-eabi/lib/thumb\libstdc++.a(string-inst.o)
 .ARM.extab.text._ZNSs6insertEjjc
                0x0209d9a8        0x0 c:/devkitpro/devkitarm/bin/../lib/gcc/arm-eabi/4.7.0/../../../../arm-eabi/lib/thumb\libstdc++.a(string-inst.o)
 .ARM.extab.text._ZNSs6assignEjc
                0x0209d9a8        0x0 c:/devkitpro/devkitarm/bin/../lib/gcc/arm-eabi/4.7.0/../../../../arm-eabi/lib/thumb\libstdc++.a(string-inst.o)
 .ARM.extab.text._ZNSs6insertEN9__gnu_cxx17__normal_iteratorIPcSsEEjc
                0x0209d9a8        0x0 c:/devkitpro/devkitarm/bin/../lib/gcc/arm-eabi/4.7.0/../../../../arm-eabi/lib/thumb\libstdc++.a(string-inst.o)
 .ARM.extab.text._ZNSsaSEc
                0x0209d9a8        0x0 c:/devkitpro/devkitarm/bin/../lib/gcc/arm-eabi/4.7.0/../../../../arm-eabi/lib/thumb\libstdc++.a(string-inst.o)
 .ARM.extab.text._ZNSs5eraseEN9__gnu_cxx17__normal_iteratorIPcSsEES2_
                0x0209d9a8        0x0 c:/devkitpro/devkitarm/bin/../lib/gcc/arm-eabi/4.7.0/../../../../arm-eabi/lib/thumb\libstdc++.a(string-inst.o)
 .ARM.extab.text._ZNSs5eraseEN9__gnu_cxx17__normal_iteratorIPcSsEE
                0x0209d9a8        0x0 c:/devkitpro/devkitarm/bin/../lib/gcc/arm-eabi/4.7.0/../../../../arm-eabi/lib/thumb\libstdc++.a(string-inst.o)
 .ARM.extab.text._ZNSs5eraseEjj
                0x0209d9a8        0x0 c:/devkitpro/devkitarm/bin/../lib/gcc/arm-eabi/4.7.0/../../../../arm-eabi/lib/thumb\libstdc++.a(string-inst.o)
 .ARM.extab.text._ZNSs6insertEjPKcj
                0x0209d9a8        0x0 c:/devkitpro/devkitarm/bin/../lib/gcc/arm-eabi/4.7.0/../../../../arm-eabi/lib/thumb\libstdc++.a(string-inst.o)
 .ARM.extab.text._ZNSs6insertEjPKc
                0x0209d9a8        0x0 c:/devkitpro/devkitarm/bin/../lib/gcc/arm-eabi/4.7.0/../../../../arm-eabi/lib/thumb\libstdc++.a(string-inst.o)
 .ARM.extab.text._ZNSs6insertEjRKSsjj
                0x0209d9a8        0x0 c:/devkitpro/devkitarm/bin/../lib/gcc/arm-eabi/4.7.0/../../../../arm-eabi/lib/thumb\libstdc++.a(string-inst.o)
 .ARM.extab.text._ZNSs6insertEN9__gnu_cxx17__normal_iteratorIPcSsEESt16initializer_listIcE
                0x0209d9a8        0x0 c:/devkitpro/devkitarm/bin/../lib/gcc/arm-eabi/4.7.0/../../../../arm-eabi/lib/thumb\libstdc++.a(string-inst.o)
 .ARM.extab.text._ZNSs6insertEjRKSs
                0x0209d9a8        0xc c:/devkitpro/devkitarm/bin/../lib/gcc/arm-eabi/4.7.0/../../../../arm-eabi/lib/thumb\libstdc++.a(string-inst.o)
 .ARM.extab.text._ZNSs5clearEv
                0x0209d9b4       0x10 c:/devkitpro/devkitarm/bin/../lib/gcc/arm-eabi/4.7.0/../../../../arm-eabi/lib/thumb\libstdc++.a(string-inst.o)
 .ARM.extab.text._ZNSs12_M_leak_hardEv
                0x0209d9c4        0x0 c:/devkitpro/devkitarm/bin/../lib/gcc/arm-eabi/4.7.0/../../../../arm-eabi/lib/thumb\libstdc++.a(string-inst.o)
 .ARM.extab.text._ZNSs7_M_leakEv
                0x0209d9c4        0xc c:/devkitpro/devkitarm/bin/../lib/gcc/arm-eabi/4.7.0/../../../../arm-eabi/lib/thumb\libstdc++.a(string-inst.o)
 .ARM.extab.text._ZNSs5beginEv
                0x0209d9d0        0xc c:/devkitpro/devkitarm/bin/../lib/gcc/arm-eabi/4.7.0/../../../../arm-eabi/lib/thumb\libstdc++.a(string-inst.o)
 .ARM.extab.text._ZNSs5frontEv
                0x0209d9dc        0x0 c:/devkitpro/devkitarm/bin/../lib/gcc/arm-eabi/4.7.0/../../../../arm-eabi/lib/thumb\libstdc++.a(string-inst.o)
 .ARM.extab.text._ZNSs3endEv
                0x0209d9dc        0xc c:/devkitpro/devkitarm/bin/../lib/gcc/arm-eabi/4.7.0/../../../../arm-eabi/lib/thumb\libstdc++.a(string-inst.o)
 .ARM.extab.text._ZNSs4rendEv
                0x0209d9e8        0xc c:/devkitpro/devkitarm/bin/../lib/gcc/arm-eabi/4.7.0/../../../../arm-eabi/lib/thumb\libstdc++.a(string-inst.o)
 .ARM.extab.text._ZNSs6rbeginEv
                0x0209d9f4        0xc c:/devkitpro/devkitarm/bin/../lib/gcc/arm-eabi/4.7.0/../../../../arm-eabi/lib/thumb\libstdc++.a(string-inst.o)
 .ARM.extab.text._ZNSsixEj
                0x0209da00        0x0 c:/devkitpro/devkitarm/bin/../lib/gcc/arm-eabi/4.7.0/../../../../arm-eabi/lib/thumb\libstdc++.a(string-inst.o)
 .ARM.extab.text._ZNSs4backEv
                0x0209da00        0x0 c:/devkitpro/devkitarm/bin/../lib/gcc/arm-eabi/4.7.0/../../../../arm-eabi/lib/thumb\libstdc++.a(string-inst.o)
 .ARM.extab.text._ZNSs2atEj
                0x0209da00        0x0 c:/devkitpro/devkitarm/bin/../lib/gcc/arm-eabi/4.7.0/../../../../arm-eabi/lib/thumb\libstdc++.a(string-inst.o)
 .ARM.extab.text._ZNSs8pop_backEv
                0x0209da00        0xc c:/devkitpro/devkitarm/bin/../lib/gcc/arm-eabi/4.7.0/../../../../arm-eabi/lib/thumb\libstdc++.a(string-inst.o)
 .ARM.extab.text._ZNSs4_Rep10_M_refcopyEv
                0x0209da0c        0x0 c:/devkitpro/devkitarm/bin/../lib/gcc/arm-eabi/4.7.0/../../../../arm-eabi/lib/thumb\libstdc++.a(string-inst.o)
 .ARM.extab.text._ZNSs4_Rep8_M_cloneERKSaIcEj
                0x0209da0c        0x0 c:/devkitpro/devkitarm/bin/../lib/gcc/arm-eabi/4.7.0/../../../../arm-eabi/lib/thumb\libstdc++.a(string-inst.o)
 .ARM.extab.text._ZNSs6assignERKSs
                0x0209da0c        0x0 c:/devkitpro/devkitarm/bin/../lib/gcc/arm-eabi/4.7.0/../../../../arm-eabi/lib/thumb\libstdc++.a(string-inst.o)
 .ARM.extab.text._ZNSsaSERKSs
                0x0209da0c        0xc c:/devkitpro/devkitarm/bin/../lib/gcc/arm-eabi/4.7.0/../../../../arm-eabi/lib/thumb\libstdc++.a(string-inst.o)
 .ARM.extab.text._ZNSs7reserveEj
                0x0209da18        0x0 c:/devkitpro/devkitarm/bin/../lib/gcc/arm-eabi/4.7.0/../../../../arm-eabi/lib/thumb\libstdc++.a(string-inst.o)
 .ARM.extab.text._ZNSs9push_backEc
                0x0209da18        0x0 c:/devkitpro/devkitarm/bin/../lib/gcc/arm-eabi/4.7.0/../../../../arm-eabi/lib/thumb\libstdc++.a(string-inst.o)
 .ARM.extab.text._ZNSs6appendEjc
                0x0209da18        0x0 c:/devkitpro/devkitarm/bin/../lib/gcc/arm-eabi/4.7.0/../../../../arm-eabi/lib/thumb\libstdc++.a(string-inst.o)
 .ARM.extab.text._ZNSs6resizeEjc
                0x0209da18        0x0 c:/devkitpro/devkitarm/bin/../lib/gcc/arm-eabi/4.7.0/../../../../arm-eabi/lib/thumb\libstdc++.a(string-inst.o)
 .ARM.extab.text._ZNSs6resizeEj
                0x0209da18        0xc c:/devkitpro/devkitarm/bin/../lib/gcc/arm-eabi/4.7.0/../../../../arm-eabi/lib/thumb\libstdc++.a(string-inst.o)
 .ARM.extab.text._ZNSs6appendEPKcj
                0x0209da24        0x0 c:/devkitpro/devkitarm/bin/../lib/gcc/arm-eabi/4.7.0/../../../../arm-eabi/lib/thumb\libstdc++.a(string-inst.o)
 .ARM.extab.text._ZNSs6appendESt16initializer_listIcE
                0x0209da24        0x0 c:/devkitpro/devkitarm/bin/../lib/gcc/arm-eabi/4.7.0/../../../../arm-eabi/lib/thumb\libstdc++.a(string-inst.o)
 .ARM.extab.text._ZNSs6appendEPKc
                0x0209da24        0x0 c:/devkitpro/devkitarm/bin/../lib/gcc/arm-eabi/4.7.0/../../../../arm-eabi/lib/thumb\libstdc++.a(string-inst.o)
 .ARM.extab.text._ZNSspLESt16initializer_listIcE
                0x0209da24        0x0 c:/devkitpro/devkitarm/bin/../lib/gcc/arm-eabi/4.7.0/../../../../arm-eabi/lib/thumb\libstdc++.a(string-inst.o)
 .ARM.extab.text._ZNSspLEPKc
                0x0209da24        0x0 c:/devkitpro/devkitarm/bin/../lib/gcc/arm-eabi/4.7.0/../../../../arm-eabi/lib/thumb\libstdc++.a(string-inst.o)
 .ARM.extab.text._ZNSs6appendERKSsjj
                0x0209da24        0x0 c:/devkitpro/devkitarm/bin/../lib/gcc/arm-eabi/4.7.0/../../../../arm-eabi/lib/thumb\libstdc++.a(string-inst.o)
 .ARM.extab.text._ZNSs6appendERKSs
                0x0209da24        0x0 c:/devkitpro/devkitarm/bin/../lib/gcc/arm-eabi/4.7.0/../../../../arm-eabi/lib/thumb\libstdc++.a(string-inst.o)
 .ARM.extab.text._ZNSspLERKSs
                0x0209da24        0xc c:/devkitpro/devkitarm/bin/../lib/gcc/arm-eabi/4.7.0/../../../../arm-eabi/lib/thumb\libstdc++.a(string-inst.o)
 .ARM.extab.text._ZNSs13shrink_to_fitEv
                0x0209da30       0x20 c:/devkitpro/devkitarm/bin/../lib/gcc/arm-eabi/4.7.0/../../../../arm-eabi/lib/thumb\libstdc++.a(string-inst.o)
 .ARM.extab.text._ZNSspLEc
                0x0209da50        0x0 c:/devkitpro/devkitarm/bin/../lib/gcc/arm-eabi/4.7.0/../../../../arm-eabi/lib/thumb\libstdc++.a(string-inst.o)
 .ARM.extab.text._ZNSs4_Rep7_M_grabERKSaIcES2_
                0x0209da50        0xc c:/devkitpro/devkitarm/bin/../lib/gcc/arm-eabi/4.7.0/../../../../arm-eabi/lib/thumb\libstdc++.a(string-inst.o)
 .ARM.extab.text._ZNSsC2ERKSs
                0x0209da5c        0x0 c:/devkitpro/devkitarm/bin/../lib/gcc/arm-eabi/4.7.0/../../../../arm-eabi/lib/thumb\libstdc++.a(string-inst.o)
 .ARM.extab.text._ZStplIcSt11char_traitsIcESaIcEESbIT_T0_T1_EPKS3_RKS6_
                0x0209da5c       0x14 c:/devkitpro/devkitarm/bin/../lib/gcc/arm-eabi/4.7.0/../../../../arm-eabi/lib/thumb\libstdc++.a(string-inst.o)
 .ARM.extab.text._ZStplIcSt11char_traitsIcESaIcEESbIT_T0_T1_ES3_RKS6_
                0x0209da70       0x14 c:/devkitpro/devkitarm/bin/../lib/gcc/arm-eabi/4.7.0/../../../../arm-eabi/lib/thumb\libstdc++.a(string-inst.o)
 .ARM.extab.text._ZStplIcSt11char_traitsIcESaIcEESbIT_T0_T1_ERKS6_S8_
                0x0209da84       0x18 c:/devkitpro/devkitarm/bin/../lib/gcc/arm-eabi/4.7.0/../../../../arm-eabi/lib/thumb\libstdc++.a(string-inst.o)
 .ARM.extab.text._ZNSs12_S_constructIN9__gnu_cxx17__normal_iteratorIPcSsEEEES2_T_S4_RKSaIcESt20forward_iterator_tag
                0x0209da9c        0x0 c:/devkitpro/devkitarm/bin/../lib/gcc/arm-eabi/4.7.0/../../../../arm-eabi/lib/thumb\libstdc++.a(string-inst.o)
 .ARM.extab.text._ZNSsC2IN9__gnu_cxx17__normal_iteratorIPcSsEEEET_S4_RKSaIcE
                0x0209da9c        0x0 c:/devkitpro/devkitarm/bin/../lib/gcc/arm-eabi/4.7.0/../../../../arm-eabi/lib/thumb\libstdc++.a(string-inst.o)
 .ARM.extab.text._ZNSs12_S_constructIPcEES0_T_S1_RKSaIcESt20forward_iterator_tag
                0x0209da9c        0x0 c:/devkitpro/devkitarm/bin/../lib/gcc/arm-eabi/4.7.0/../../../../arm-eabi/lib/thumb\libstdc++.a(string-inst.o)
 .ARM.extab.text._ZNSsC2IPcEET_S1_RKSaIcE
                0x0209da9c        0x0 c:/devkitpro/devkitarm/bin/../lib/gcc/arm-eabi/4.7.0/../../../../arm-eabi/lib/thumb\libstdc++.a(string-inst.o)
 .ARM.extab.text._ZNSsC2ERKSsjjRKSaIcE
                0x0209da9c        0x0 c:/devkitpro/devkitarm/bin/../lib/gcc/arm-eabi/4.7.0/../../../../arm-eabi/lib/thumb\libstdc++.a(string-inst.o)
 .ARM.extab.text._ZNSsC2ERKSsjj
                0x0209da9c        0x0 c:/devkitpro/devkitarm/bin/../lib/gcc/arm-eabi/4.7.0/../../../../arm-eabi/lib/thumb\libstdc++.a(string-inst.o)
 .ARM.extab.text._ZNKSs6substrEjj
                0x0209da9c        0x0 c:/devkitpro/devkitarm/bin/../lib/gcc/arm-eabi/4.7.0/../../../../arm-eabi/lib/thumb\libstdc++.a(string-inst.o)
 .ARM.extab.text._ZNSs12_S_constructIPKcEEPcT_S3_RKSaIcESt20forward_iterator_tag
                0x0209da9c        0x0 c:/devkitpro/devkitarm/bin/../lib/gcc/arm-eabi/4.7.0/../../../../arm-eabi/lib/thumb\libstdc++.a(string-inst.o)
 .ARM.extab.text._ZNSsC2EPKcjRKSaIcE
                0x0209da9c        0x0 c:/devkitpro/devkitarm/bin/../lib/gcc/arm-eabi/4.7.0/../../../../arm-eabi/lib/thumb\libstdc++.a(string-inst.o)
 .ARM.extab.text._ZNSs7replaceEjjPKcj
                0x0209da9c       0x20 c:/devkitpro/devkitarm/bin/../lib/gcc/arm-eabi/4.7.0/../../../../arm-eabi/lib/thumb\libstdc++.a(string-inst.o)
 .ARM.extab.text._ZNSs7replaceEN9__gnu_cxx17__normal_iteratorIPcSsEES2_NS0_IPKcSsEES5_
                0x0209dabc        0x0 c:/devkitpro/devkitarm/bin/../lib/gcc/arm-eabi/4.7.0/../../../../arm-eabi/lib/thumb\libstdc++.a(string-inst.o)
 .ARM.extab.text._ZNSs7replaceEN9__gnu_cxx17__normal_iteratorIPcSsEES2_S2_S2_
                0x0209dabc        0x0 c:/devkitpro/devkitarm/bin/../lib/gcc/arm-eabi/4.7.0/../../../../arm-eabi/lib/thumb\libstdc++.a(string-inst.o)
 .ARM.extab.text._ZNSs7replaceEN9__gnu_cxx17__normal_iteratorIPcSsEES2_PKcS4_
                0x0209dabc        0x0 c:/devkitpro/devkitarm/bin/../lib/gcc/arm-eabi/4.7.0/../../../../arm-eabi/lib/thumb\libstdc++.a(string-inst.o)
 .ARM.extab.text._ZNSs7replaceEN9__gnu_cxx17__normal_iteratorIPcSsEES2_S1_S1_
                0x0209dabc        0x0 c:/devkitpro/devkitarm/bin/../lib/gcc/arm-eabi/4.7.0/../../../../arm-eabi/lib/thumb\libstdc++.a(string-inst.o)
 .ARM.extab.text._ZNSs7replaceEN9__gnu_cxx17__normal_iteratorIPcSsEES2_PKcj
                0x0209dabc        0x0 c:/devkitpro/devkitarm/bin/../lib/gcc/arm-eabi/4.7.0/../../../../arm-eabi/lib/thumb\libstdc++.a(string-inst.o)
 .ARM.extab.text._ZNSs7replaceEjjPKc
                0x0209dabc        0x0 c:/devkitpro/devkitarm/bin/../lib/gcc/arm-eabi/4.7.0/../../../../arm-eabi/lib/thumb\libstdc++.a(string-inst.o)
 .ARM.extab.text._ZNSs7replaceEjjRKSsjj
                0x0209dabc        0x0 c:/devkitpro/devkitarm/bin/../lib/gcc/arm-eabi/4.7.0/../../../../arm-eabi/lib/thumb\libstdc++.a(string-inst.o)
 .ARM.extab.text._ZNSs7replaceEjjRKSs
                0x0209dabc        0x0 c:/devkitpro/devkitarm/bin/../lib/gcc/arm-eabi/4.7.0/../../../../arm-eabi/lib/thumb\libstdc++.a(string-inst.o)
 .ARM.extab.text._ZNSs7replaceEN9__gnu_cxx17__normal_iteratorIPcSsEES2_PKc
                0x0209dabc        0x0 c:/devkitpro/devkitarm/bin/../lib/gcc/arm-eabi/4.7.0/../../../../arm-eabi/lib/thumb\libstdc++.a(string-inst.o)
 .ARM.extab.text._ZNSs7replaceEN9__gnu_cxx17__normal_iteratorIPcSsEES2_RKSs
                0x0209dabc        0x0 c:/devkitpro/devkitarm/bin/../lib/gcc/arm-eabi/4.7.0/../../../../arm-eabi/lib/thumb\libstdc++.a(string-inst.o)
 .ARM.extab.text._ZNSs7replaceEN9__gnu_cxx17__normal_iteratorIPcSsEES2_St16initializer_listIcE
                0x0209dabc        0x0 c:/devkitpro/devkitarm/bin/../lib/gcc/arm-eabi/4.7.0/../../../../arm-eabi/lib/thumb\libstdc++.a(string-inst.o)
 .ARM.extab.text._ZNSsC2IPKcEET_S2_RKSaIcE
                0x0209dabc        0x0 c:/devkitpro/devkitarm/bin/../lib/gcc/arm-eabi/4.7.0/../../../../arm-eabi/lib/thumb\libstdc++.a(string-inst.o)
 .ARM.extab.text._ZNSsC2ESt16initializer_listIcERKSaIcE
                0x0209dabc        0x0 c:/devkitpro/devkitarm/bin/../lib/gcc/arm-eabi/4.7.0/../../../../arm-eabi/lib/thumb\libstdc++.a(string-inst.o)
 .ARM.extab.text._ZNSsC2EPKcRKSaIcE
                0x0209dabc        0x0 c:/devkitpro/devkitarm/bin/../lib/gcc/arm-eabi/4.7.0/../../../../arm-eabi/lib/thumb\libstdc++.a(string-inst.o)
 .ARM.extab.text._ZN9__gnu_cxxeqIPcSsEEbRKNS_17__normal_iteratorIT_T0_EES7_
                0x0209dabc        0x0 c:/devkitpro/devkitarm/bin/../lib/gcc/arm-eabi/4.7.0/../../../../arm-eabi/lib/thumb\libstdc++.a(string-inst.o)
 .ARM.extab.text._ZN9__gnu_cxxeqIPKcSsEEbRKNS_17__normal_iteratorIT_T0_EES8_
                0x0209dabc        0x0 c:/devkitpro/devkitarm/bin/../lib/gcc/arm-eabi/4.7.0/../../../../arm-eabi/lib/thumb\libstdc++.a(string-inst.o)
 .ARM.extab.text._ZSt21__throw_bad_exceptionv
                0x0209dabc        0xc c:/devkitpro/devkitarm/bin/../lib/gcc/arm-eabi/4.7.0/../../../../arm-eabi/lib/thumb\libstdc++.a(functexcept.o)
 .ARM.extab.text._ZSt17__throw_bad_allocv
                0x0209dac8        0xc c:/devkitpro/devkitarm/bin/../lib/gcc/arm-eabi/4.7.0/../../../../arm-eabi/lib/thumb\libstdc++.a(functexcept.o)
 .ARM.extab.text._ZSt16__throw_bad_castv
                0x0209dad4        0xc c:/devkitpro/devkitarm/bin/../lib/gcc/arm-eabi/4.7.0/../../../../arm-eabi/lib/thumb\libstdc++.a(functexcept.o)
 .ARM.extab.text._ZSt18__throw_bad_typeidv
                0x0209dae0        0xc c:/devkitpro/devkitarm/bin/../lib/gcc/arm-eabi/4.7.0/../../../../arm-eabi/lib/thumb\libstdc++.a(functexcept.o)
 .ARM.extab.text._ZSt19__throw_logic_errorPKc
                0x0209daec       0x18 c:/devkitpro/devkitarm/bin/../lib/gcc/arm-eabi/4.7.0/../../../../arm-eabi/lib/thumb\libstdc++.a(functexcept.o)
 .ARM.extab.text._ZSt20__throw_domain_errorPKc
                0x0209db04       0x18 c:/devkitpro/devkitarm/bin/../lib/gcc/arm-eabi/4.7.0/../../../../arm-eabi/lib/thumb\libstdc++.a(functexcept.o)
 .ARM.extab.text._ZSt24__throw_invalid_argumentPKc
                0x0209db1c       0x18 c:/devkitpro/devkitarm/bin/../lib/gcc/arm-eabi/4.7.0/../../../../arm-eabi/lib/thumb\libstdc++.a(functexcept.o)
 .ARM.extab.text._ZSt20__throw_length_errorPKc
                0x0209db34       0x18 c:/devkitpro/devkitarm/bin/../lib/gcc/arm-eabi/4.7.0/../../../../arm-eabi/lib/thumb\libstdc++.a(functexcept.o)
 .ARM.extab.text._ZSt20__throw_out_of_rangePKc
                0x0209db4c       0x18 c:/devkitpro/devkitarm/bin/../lib/gcc/arm-eabi/4.7.0/../../../../arm-eabi/lib/thumb\libstdc++.a(functexcept.o)
 .ARM.extab.text._ZSt21__throw_runtime_errorPKc
                0x0209db64       0x18 c:/devkitpro/devkitarm/bin/../lib/gcc/arm-eabi/4.7.0/../../../../arm-eabi/lib/thumb\libstdc++.a(functexcept.o)
 .ARM.extab.text._ZSt19__throw_range_errorPKc
                0x0209db7c       0x18 c:/devkitpro/devkitarm/bin/../lib/gcc/arm-eabi/4.7.0/../../../../arm-eabi/lib/thumb\libstdc++.a(functexcept.o)
 .ARM.extab.text._ZSt22__throw_overflow_errorPKc
                0x0209db94       0x18 c:/devkitpro/devkitarm/bin/../lib/gcc/arm-eabi/4.7.0/../../../../arm-eabi/lib/thumb\libstdc++.a(functexcept.o)
 .ARM.extab.text._ZSt23__throw_underflow_errorPKc
                0x0209dbac       0x18 c:/devkitpro/devkitarm/bin/../lib/gcc/arm-eabi/4.7.0/../../../../arm-eabi/lib/thumb\libstdc++.a(functexcept.o)
 .ARM.extab.text._ZSt19__throw_ios_failurePKc
                0x0209dbc4       0x14 c:/devkitpro/devkitarm/bin/../lib/gcc/arm-eabi/4.7.0/../../../../arm-eabi/lib/thumb\libstdc++.a(functexcept.o)
 .ARM.extab.text._ZSt20__throw_system_errori
                0x0209dbd8       0x18 c:/devkitpro/devkitarm/bin/../lib/gcc/arm-eabi/4.7.0/../../../../arm-eabi/lib/thumb\libstdc++.a(functexcept.o)
 .ARM.extab.text._ZSt20__throw_future_errori
                0x0209dbf0       0x18 c:/devkitpro/devkitarm/bin/../lib/gcc/arm-eabi/4.7.0/../../../../arm-eabi/lib/thumb\libstdc++.a(functexcept.o)
 .ARM.extab.text._ZSt25__throw_bad_function_callv
                0x0209dc08        0xc c:/devkitpro/devkitarm/bin/../lib/gcc/arm-eabi/4.7.0/../../../../arm-eabi/lib/thumb\libstdc++.a(functexcept.o)
 .ARM.extab.text._ZSt19__throw_regex_errorNSt15regex_constants10error_typeE
                0x0209dc14       0x14 c:/devkitpro/devkitarm/bin/../lib/gcc/arm-eabi/4.7.0/../../../../arm-eabi/lib/thumb\libstdc++.a(functexcept.o)
 .ARM.extab.text.__cxa_type_match
                0x0209dc28        0xc c:/devkitpro/devkitarm/bin/../lib/gcc/arm-eabi/4.7.0/../../../../arm-eabi/lib/thumb\libstdc++.a(eh_arm.o)
 .ARM.extab.text.__cxa_begin_cleanup
                0x0209dc34        0x0 c:/devkitpro/devkitarm/bin/../lib/gcc/arm-eabi/4.7.0/../../../../arm-eabi/lib/thumb\libstdc++.a(eh_arm.o)
 .ARM.extab.text.__gnu_end_cleanup
                0x0209dc34        0x0 c:/devkitpro/devkitarm/bin/../lib/gcc/arm-eabi/4.7.0/../../../../arm-eabi/lib/thumb\libstdc++.a(eh_arm.o)
 .ARM.extab.text._ZL23__gxx_exception_cleanup19_Unwind_Reason_CodeP21_Unwind_Control_Block
                0x0209dc34        0x0 c:/devkitpro/devkitarm/bin/../lib/gcc/arm-eabi/4.7.0/../../../../arm-eabi/lib/thumb\libstdc++.a(eh_throw.o)
 .ARM.extab.text.__cxa_throw
                0x0209dc34        0x0 c:/devkitpro/devkitarm/bin/../lib/gcc/arm-eabi/4.7.0/../../../../arm-eabi/lib/thumb\libstdc++.a(eh_throw.o)
 .ARM.extab.text.__cxa_rethrow
                0x0209dc34        0x0 c:/devkitpro/devkitarm/bin/../lib/gcc/arm-eabi/4.7.0/../../../../arm-eabi/lib/thumb\libstdc++.a(eh_throw.o)
 .ARM.extab.text.__cxa_pure_virtual
                0x0209dc34        0xc c:/devkitpro/devkitarm/bin/../lib/gcc/arm-eabi/4.7.0/../../../../arm-eabi/lib/thumb\libstdc++.a(pure.o)
 .ARM.extab.text.__cxa_deleted_virtual
                0x0209dc40        0xc c:/devkitpro/devkitarm/bin/../lib/gcc/arm-eabi/4.7.0/../../../../arm-eabi/lib/thumb\libstdc++.a(pure.o)
 .ARM.extab.text._ZNKSt8bad_cast4whatEv
                0x0209dc4c        0x0 c:/devkitpro/devkitarm/bin/../lib/gcc/arm-eabi/4.7.0/../../../../arm-eabi/lib/thumb\libstdc++.a(bad_cast.o)
 .ARM.extab.text._ZNSt8bad_castD2Ev
                0x0209dc4c        0x0 c:/devkitpro/devkitarm/bin/../lib/gcc/arm-eabi/4.7.0/../../../../arm-eabi/lib/thumb\libstdc++.a(bad_cast.o)
 .ARM.extab.text._ZNSt8bad_castD0Ev
                0x0209dc4c        0x0 c:/devkitpro/devkitarm/bin/../lib/gcc/arm-eabi/4.7.0/../../../../arm-eabi/lib/thumb\libstdc++.a(bad_cast.o)
 .ARM.extab.text.__cxa_get_globals_fast
                0x0209dc4c        0x0 c:/devkitpro/devkitarm/bin/../lib/gcc/arm-eabi/4.7.0/../../../../arm-eabi/lib/thumb\libstdc++.a(eh_globals.o)
 .ARM.extab.text.__cxa_get_globals
                0x0209dc4c        0x0 c:/devkitpro/devkitarm/bin/../lib/gcc/arm-eabi/4.7.0/../../../../arm-eabi/lib/thumb\libstdc++.a(eh_globals.o)
 .ARM.extab.text.__cxa_get_exception_ptr
                0x0209dc4c        0x0 c:/devkitpro/devkitarm/bin/../lib/gcc/arm-eabi/4.7.0/../../../../arm-eabi/lib/thumb\libstdc++.a(eh_catch.o)
 .ARM.extab.text.__cxa_begin_catch
                0x0209dc4c       0x1c c:/devkitpro/devkitarm/bin/../lib/gcc/arm-eabi/4.7.0/../../../../arm-eabi/lib/thumb\libstdc++.a(eh_catch.o)
 .ARM.extab.text.__cxa_end_catch
                0x0209dc68        0xc c:/devkitpro/devkitarm/bin/../lib/gcc/arm-eabi/4.7.0/../../../../arm-eabi/lib/thumb\libstdc++.a(eh_catch.o)
 .ARM.extab.text._ZSt18uncaught_exceptionv
                0x0209dc74        0x0 c:/devkitpro/devkitarm/bin/../lib/gcc/arm-eabi/4.7.0/../../../../arm-eabi/lib/thumb\libstdc++.a(eh_catch.o)
 .ARM.extab.text._ZNK10__cxxabiv120__si_class_type_info12__do_dyncastEiNS_17__class_type_info10__sub_kindEPKS1_PKvS4_S6_RNS1_16__dyncast_resultE
                0x0209dc74        0xc c:/devkitpro/devkitarm/bin/../lib/gcc/arm-eabi/4.7.0/../../../../arm-eabi/lib/thumb\libstdc++.a(si_class_type_info.o)
 .ARM.extab.text._ZN10__cxxabiv120__si_class_type_infoD2Ev
                0x0209dc80        0x0 c:/devkitpro/devkitarm/bin/../lib/gcc/arm-eabi/4.7.0/../../../../arm-eabi/lib/thumb\libstdc++.a(si_class_type_info.o)
 .ARM.extab.text._ZN10__cxxabiv120__si_class_type_infoD0Ev
                0x0209dc80        0x0 c:/devkitpro/devkitarm/bin/../lib/gcc/arm-eabi/4.7.0/../../../../arm-eabi/lib/thumb\libstdc++.a(si_class_type_info.o)
 .ARM.extab.text._ZNK10__cxxabiv120__si_class_type_info11__do_upcastEPKNS_17__class_type_infoEPKvRNS1_15__upcast_resultE
                0x0209dc80        0x0 c:/devkitpro/devkitarm/bin/../lib/gcc/arm-eabi/4.7.0/../../../../arm-eabi/lib/thumb\libstdc++.a(si_class_type_info.o)
 .ARM.extab.text._ZNK10__cxxabiv120__si_class_type_info20__do_find_public_srcEiPKvPKNS_17__class_type_infoES2_
                0x0209dc80        0x0 c:/devkitpro/devkitarm/bin/../lib/gcc/arm-eabi/4.7.0/../../../../arm-eabi/lib/thumb\libstdc++.a(si_class_type_info.o)
 .ARM.extab.text._ZNSt9type_infoD2Ev
                0x0209dc80        0x0 c:/devkitpro/devkitarm/bin/../lib/gcc/arm-eabi/4.7.0/../../../../arm-eabi/lib/thumb\libstdc++.a(tinfo.o)
 .ARM.extab.text._ZNKSt9type_info14__is_pointer_pEv
                0x0209dc80        0x0 c:/devkitpro/devkitarm/bin/../lib/gcc/arm-eabi/4.7.0/../../../../arm-eabi/lib/thumb\libstdc++.a(tinfo.o)
 .ARM.extab.text._ZNKSt9type_info15__is_function_pEv
                0x0209dc80        0x0 c:/devkitpro/devkitarm/bin/../lib/gcc/arm-eabi/4.7.0/../../../../arm-eabi/lib/thumb\libstdc++.a(tinfo.o)
 .ARM.extab.text._ZNKSt9type_info11__do_upcastEPKN10__cxxabiv117__class_type_infoEPPv
                0x0209dc80        0x0 c:/devkitpro/devkitarm/bin/../lib/gcc/arm-eabi/4.7.0/../../../../arm-eabi/lib/thumb\libstdc++.a(tinfo.o)
 .ARM.extab.text._ZNSt9type_infoD0Ev
                0x0209dc80        0x0 c:/devkitpro/devkitarm/bin/../lib/gcc/arm-eabi/4.7.0/../../../../arm-eabi/lib/thumb\libstdc++.a(tinfo.o)
 .ARM.extab.text._ZNKSt9type_infoeqERKS_
                0x0209dc80        0x0 c:/devkitpro/devkitarm/bin/../lib/gcc/arm-eabi/4.7.0/../../../../arm-eabi/lib/thumb\libstdc++.a(tinfo.o)
 .ARM.extab.text._ZNKSt9type_info10__do_catchEPKS_PPvj
                0x0209dc80        0x0 c:/devkitpro/devkitarm/bin/../lib/gcc/arm-eabi/4.7.0/../../../../arm-eabi/lib/thumb\libstdc++.a(tinfo.o)
 .ARM.extab.text._ZNKSt10bad_typeid4whatEv
                0x0209dc80        0x0 c:/devkitpro/devkitarm/bin/../lib/gcc/arm-eabi/4.7.0/../../../../arm-eabi/lib/thumb\libstdc++.a(bad_typeid.o)
 .ARM.extab.text._ZNSt10bad_typeidD2Ev
                0x0209dc80        0x0 c:/devkitpro/devkitarm/bin/../lib/gcc/arm-eabi/4.7.0/../../../../arm-eabi/lib/thumb\libstdc++.a(bad_typeid.o)
 .ARM.extab.text._ZNSt10bad_typeidD0Ev
                0x0209dc80        0x0 c:/devkitpro/devkitarm/bin/../lib/gcc/arm-eabi/4.7.0/../../../../arm-eabi/lib/thumb\libstdc++.a(bad_typeid.o)
 .ARM.extab.text._ZNKSt8ios_base7failure4whatEv
                0x0209dc80        0x0 c:/devkitpro/devkitarm/bin/../lib/gcc/arm-eabi/4.7.0/../../../../arm-eabi/lib/thumb\libstdc++.a(ios_failure.o)
 .ARM.extab.text._ZNSt8ios_base7failureD2Ev
                0x0209dc80        0x0 c:/devkitpro/devkitarm/bin/../lib/gcc/arm-eabi/4.7.0/../../../../arm-eabi/lib/thumb\libstdc++.a(ios_failure.o)
 .ARM.extab.text._ZNSt8ios_base7failureD0Ev
                0x0209dc80        0x0 c:/devkitpro/devkitarm/bin/../lib/gcc/arm-eabi/4.7.0/../../../../arm-eabi/lib/thumb\libstdc++.a(ios_failure.o)
 .ARM.extab.text._ZNSt8ios_base7failureC2ERKSs
                0x0209dc80       0x20 c:/devkitpro/devkitarm/bin/../lib/gcc/arm-eabi/4.7.0/../../../../arm-eabi/lib/thumb\libstdc++.a(ios_failure.o)
 .ARM.extab.text._ZNKSt11logic_error4whatEv
                0x0209dca0        0x0 c:/devkitpro/devkitarm/bin/../lib/gcc/arm-eabi/4.7.0/../../../../arm-eabi/lib/thumb\libstdc++.a(stdexcept.o)
 .ARM.extab.text._ZNKSt13runtime_error4whatEv
                0x0209dca0        0x0 c:/devkitpro/devkitarm/bin/../lib/gcc/arm-eabi/4.7.0/../../../../arm-eabi/lib/thumb\libstdc++.a(stdexcept.o)
 .ARM.extab.text._ZNSt11logic_errorD2Ev
                0x0209dca0        0x0 c:/devkitpro/devkitarm/bin/../lib/gcc/arm-eabi/4.7.0/../../../../arm-eabi/lib/thumb\libstdc++.a(stdexcept.o)
 .ARM.extab.text._ZNSt11logic_errorD0Ev
                0x0209dca0        0x0 c:/devkitpro/devkitarm/bin/../lib/gcc/arm-eabi/4.7.0/../../../../arm-eabi/lib/thumb\libstdc++.a(stdexcept.o)
 .ARM.extab.text._ZNSt12out_of_rangeD2Ev
                0x0209dca0        0x0 c:/devkitpro/devkitarm/bin/../lib/gcc/arm-eabi/4.7.0/../../../../arm-eabi/lib/thumb\libstdc++.a(stdexcept.o)
 .ARM.extab.text._ZNSt12out_of_rangeD0Ev
                0x0209dca0        0x0 c:/devkitpro/devkitarm/bin/../lib/gcc/arm-eabi/4.7.0/../../../../arm-eabi/lib/thumb\libstdc++.a(stdexcept.o)
 .ARM.extab.text._ZNSt12length_errorD2Ev
                0x0209dca0        0x0 c:/devkitpro/devkitarm/bin/../lib/gcc/arm-eabi/4.7.0/../../../../arm-eabi/lib/thumb\libstdc++.a(stdexcept.o)
 .ARM.extab.text._ZNSt12length_errorD0Ev
                0x0209dca0        0x0 c:/devkitpro/devkitarm/bin/../lib/gcc/arm-eabi/4.7.0/../../../../arm-eabi/lib/thumb\libstdc++.a(stdexcept.o)
 .ARM.extab.text._ZNSt16invalid_argumentD2Ev
                0x0209dca0        0x0 c:/devkitpro/devkitarm/bin/../lib/gcc/arm-eabi/4.7.0/../../../../arm-eabi/lib/thumb\libstdc++.a(stdexcept.o)
 .ARM.extab.text._ZNSt16invalid_argumentD0Ev
                0x0209dca0        0x0 c:/devkitpro/devkitarm/bin/../lib/gcc/arm-eabi/4.7.0/../../../../arm-eabi/lib/thumb\libstdc++.a(stdexcept.o)
 .ARM.extab.text._ZNSt12domain_errorD2Ev
                0x0209dca0        0x0 c:/devkitpro/devkitarm/bin/../lib/gcc/arm-eabi/4.7.0/../../../../arm-eabi/lib/thumb\libstdc++.a(stdexcept.o)
 .ARM.extab.text._ZNSt12domain_errorD0Ev
                0x0209dca0        0x0 c:/devkitpro/devkitarm/bin/../lib/gcc/arm-eabi/4.7.0/../../../../arm-eabi/lib/thumb\libstdc++.a(stdexcept.o)
 .ARM.extab.text._ZNSt13runtime_errorD2Ev
                0x0209dca0        0x0 c:/devkitpro/devkitarm/bin/../lib/gcc/arm-eabi/4.7.0/../../../../arm-eabi/lib/thumb\libstdc++.a(stdexcept.o)
 .ARM.extab.text._ZNSt13runtime_errorD0Ev
                0x0209dca0        0x0 c:/devkitpro/devkitarm/bin/../lib/gcc/arm-eabi/4.7.0/../../../../arm-eabi/lib/thumb\libstdc++.a(stdexcept.o)
 .ARM.extab.text._ZNSt15underflow_errorD2Ev
                0x0209dca0        0x0 c:/devkitpro/devkitarm/bin/../lib/gcc/arm-eabi/4.7.0/../../../../arm-eabi/lib/thumb\libstdc++.a(stdexcept.o)
 .ARM.extab.text._ZNSt15underflow_errorD0Ev
                0x0209dca0        0x0 c:/devkitpro/devkitarm/bin/../lib/gcc/arm-eabi/4.7.0/../../../../arm-eabi/lib/thumb\libstdc++.a(stdexcept.o)
 .ARM.extab.text._ZNSt14overflow_errorD2Ev
                0x0209dca0        0x0 c:/devkitpro/devkitarm/bin/../lib/gcc/arm-eabi/4.7.0/../../../../arm-eabi/lib/thumb\libstdc++.a(stdexcept.o)
 .ARM.extab.text._ZNSt14overflow_errorD0Ev
                0x0209dca0        0x0 c:/devkitpro/devkitarm/bin/../lib/gcc/arm-eabi/4.7.0/../../../../arm-eabi/lib/thumb\libstdc++.a(stdexcept.o)
 .ARM.extab.text._ZNSt11range_errorD2Ev
                0x0209dca0        0x0 c:/devkitpro/devkitarm/bin/../lib/gcc/arm-eabi/4.7.0/../../../../arm-eabi/lib/thumb\libstdc++.a(stdexcept.o)
 .ARM.extab.text._ZNSt11range_errorD0Ev
                0x0209dca0        0x0 c:/devkitpro/devkitarm/bin/../lib/gcc/arm-eabi/4.7.0/../../../../arm-eabi/lib/thumb\libstdc++.a(stdexcept.o)
 .ARM.extab.text._ZNSt11logic_errorC2ERKSs
                0x0209dca0       0x14 c:/devkitpro/devkitarm/bin/../lib/gcc/arm-eabi/4.7.0/../../../../arm-eabi/lib/thumb\libstdc++.a(stdexcept.o)
 .ARM.extab.text._ZNSt12domain_errorC2ERKSs
                0x0209dcb4        0x0 c:/devkitpro/devkitarm/bin/../lib/gcc/arm-eabi/4.7.0/../../../../arm-eabi/lib/thumb\libstdc++.a(stdexcept.o)
 .ARM.extab.text._ZNSt16invalid_argumentC2ERKSs
                0x0209dcb4        0x0 c:/devkitpro/devkitarm/bin/../lib/gcc/arm-eabi/4.7.0/../../../../arm-eabi/lib/thumb\libstdc++.a(stdexcept.o)
 .ARM.extab.text._ZNSt12length_errorC2ERKSs
                0x0209dcb4        0x0 c:/devkitpro/devkitarm/bin/../lib/gcc/arm-eabi/4.7.0/../../../../arm-eabi/lib/thumb\libstdc++.a(stdexcept.o)
 .ARM.extab.text._ZNSt12out_of_rangeC2ERKSs
                0x0209dcb4        0x0 c:/devkitpro/devkitarm/bin/../lib/gcc/arm-eabi/4.7.0/../../../../arm-eabi/lib/thumb\libstdc++.a(stdexcept.o)
 .ARM.extab.text._ZNSt13runtime_errorC2ERKSs
                0x0209dcb4       0x14 c:/devkitpro/devkitarm/bin/../lib/gcc/arm-eabi/4.7.0/../../../../arm-eabi/lib/thumb\libstdc++.a(stdexcept.o)
 .ARM.extab.text._ZNSt11range_errorC2ERKSs
                0x0209dcc8        0x0 c:/devkitpro/devkitarm/bin/../lib/gcc/arm-eabi/4.7.0/../../../../arm-eabi/lib/thumb\libstdc++.a(stdexcept.o)
 .ARM.extab.text._ZNSt14overflow_errorC2ERKSs
                0x0209dcc8        0x0 c:/devkitpro/devkitarm/bin/../lib/gcc/arm-eabi/4.7.0/../../../../arm-eabi/lib/thumb\libstdc++.a(stdexcept.o)
 .ARM.extab.text._ZNSt15underflow_errorC2ERKSs
                0x0209dcc8        0x0 c:/devkitpro/devkitarm/bin/../lib/gcc/arm-eabi/4.7.0/../../../../arm-eabi/lib/thumb\libstdc++.a(stdexcept.o)
 .ARM.extab.text._ZNSt17bad_function_callD2Ev
                0x0209dcc8        0x0 c:/devkitpro/devkitarm/bin/../lib/gcc/arm-eabi/4.7.0/../../../../arm-eabi/lib/thumb\libstdc++.a(functional.o)
 .ARM.extab.text._ZNSt17bad_function_callD0Ev
                0x0209dcc8        0x0 c:/devkitpro/devkitarm/bin/../lib/gcc/arm-eabi/4.7.0/../../../../arm-eabi/lib/thumb\libstdc++.a(functional.o)
 .ARM.extab.text._ZNK12_GLOBAL__N_121future_error_category4nameEv
                0x0209dcc8        0x0 c:/devkitpro/devkitarm/bin/../lib/gcc/arm-eabi/4.7.0/../../../../arm-eabi/lib/thumb\libstdc++.a(future.o)
 .ARM.extab.text._ZNSt12future_errorD2Ev
                0x0209dcc8        0x0 c:/devkitpro/devkitarm/bin/../lib/gcc/arm-eabi/4.7.0/../../../../arm-eabi/lib/thumb\libstdc++.a(future.o)
 .ARM.extab.text._ZNSt12future_errorD0Ev
                0x0209dcc8        0x0 c:/devkitpro/devkitarm/bin/../lib/gcc/arm-eabi/4.7.0/../../../../arm-eabi/lib/thumb\libstdc++.a(future.o)
 .ARM.extab.text._ZN12_GLOBAL__N_121future_error_categoryD2Ev
                0x0209dcc8        0x0 c:/devkitpro/devkitarm/bin/../lib/gcc/arm-eabi/4.7.0/../../../../arm-eabi/lib/thumb\libstdc++.a(future.o)
 .ARM.extab.text._ZN12_GLOBAL__N_121future_error_categoryD0Ev
                0x0209dcc8        0x0 c:/devkitpro/devkitarm/bin/../lib/gcc/arm-eabi/4.7.0/../../../../arm-eabi/lib/thumb\libstdc++.a(future.o)
 .ARM.extab.text._ZNKSt12future_error4whatEv
                0x0209dcc8        0xc c:/devkitpro/devkitarm/bin/../lib/gcc/arm-eabi/4.7.0/../../../../arm-eabi/lib/thumb\libstdc++.a(future.o)
 .ARM.extab.text._ZNK12_GLOBAL__N_121future_error_category7messageEi
                0x0209dcd4       0x14 c:/devkitpro/devkitarm/bin/../lib/gcc/arm-eabi/4.7.0/../../../../arm-eabi/lib/thumb\libstdc++.a(future.o)
 .ARM.extab.text._ZSt15future_categoryv
                0x0209dce8        0x0 c:/devkitpro/devkitarm/bin/../lib/gcc/arm-eabi/4.7.0/../../../../arm-eabi/lib/thumb\libstdc++.a(future.o)
 .ARM.extab.text._ZNSt11regex_errorD2Ev
                0x0209dce8        0x0 c:/devkitpro/devkitarm/bin/../lib/gcc/arm-eabi/4.7.0/../../../../arm-eabi/lib/thumb\libstdc++.a(regex.o)
 .ARM.extab.text._ZNSt11regex_errorD0Ev
                0x0209dce8        0x0 c:/devkitpro/devkitarm/bin/../lib/gcc/arm-eabi/4.7.0/../../../../arm-eabi/lib/thumb\libstdc++.a(regex.o)
 .ARM.extab.text._ZNSt11regex_errorC2ENSt15regex_constants10error_typeE
                0x0209dce8       0x18 c:/devkitpro/devkitarm/bin/../lib/gcc/arm-eabi/4.7.0/../../../../arm-eabi/lib/thumb\libstdc++.a(regex.o)
 .ARM.extab.text._ZNK12_GLOBAL__N_122generic_error_category4nameEv
                0x0209dd00        0x0 c:/devkitpro/devkitarm/bin/../lib/gcc/arm-eabi/4.7.0/../../../../arm-eabi/lib/thumb\libstdc++.a(system_error.o)
 .ARM.extab.text._ZNK12_GLOBAL__N_121system_error_category4nameEv
                0x0209dd00        0x0 c:/devkitpro/devkitarm/bin/../lib/gcc/arm-eabi/4.7.0/../../../../arm-eabi/lib/thumb\libstdc++.a(system_error.o)
 .ARM.extab.text._ZNSt14error_categoryD2Ev
                0x0209dd00        0x0 c:/devkitpro/devkitarm/bin/../lib/gcc/arm-eabi/4.7.0/../../../../arm-eabi/lib/thumb\libstdc++.a(system_error.o)
 .ARM.extab.text._ZNKSt14error_category23default_error_conditionEi
                0x0209dd00        0x0 c:/devkitpro/devkitarm/bin/../lib/gcc/arm-eabi/4.7.0/../../../../arm-eabi/lib/thumb\libstdc++.a(system_error.o)
 .ARM.extab.text._ZNKSt14error_category10equivalentEiRKSt15error_condition
                0x0209dd00        0x0 c:/devkitpro/devkitarm/bin/../lib/gcc/arm-eabi/4.7.0/../../../../arm-eabi/lib/thumb\libstdc++.a(system_error.o)
 .ARM.extab.text._ZNKSt14error_category10equivalentERKSt10error_codei
                0x0209dd00        0x0 c:/devkitpro/devkitarm/bin/../lib/gcc/arm-eabi/4.7.0/../../../../arm-eabi/lib/thumb\libstdc++.a(system_error.o)
 .ARM.extab.text._ZN12_GLOBAL__N_121system_error_categoryD2Ev
                0x0209dd00        0x0 c:/devkitpro/devkitarm/bin/../lib/gcc/arm-eabi/4.7.0/../../../../arm-eabi/lib/thumb\libstdc++.a(system_error.o)
 .ARM.extab.text._ZN12_GLOBAL__N_122generic_error_categoryD2Ev
                0x0209dd00        0x0 c:/devkitpro/devkitarm/bin/../lib/gcc/arm-eabi/4.7.0/../../../../arm-eabi/lib/thumb\libstdc++.a(system_error.o)
 .ARM.extab.text._ZNK12_GLOBAL__N_122generic_error_category7messageEi
                0x0209dd00        0x0 c:/devkitpro/devkitarm/bin/../lib/gcc/arm-eabi/4.7.0/../../../../arm-eabi/lib/thumb\libstdc++.a(system_error.o)
 .ARM.extab.text._ZNK12_GLOBAL__N_121system_error_category7messageEi
                0x0209dd00        0x0 c:/devkitpro/devkitarm/bin/../lib/gcc/arm-eabi/4.7.0/../../../../arm-eabi/lib/thumb\libstdc++.a(system_error.o)
 .ARM.extab.text._ZNSt14error_categoryD0Ev
                0x0209dd00        0x0 c:/devkitpro/devkitarm/bin/../lib/gcc/arm-eabi/4.7.0/../../../../arm-eabi/lib/thumb\libstdc++.a(system_error.o)
 .ARM.extab.text._ZN12_GLOBAL__N_121system_error_categoryD0Ev
                0x0209dd00        0x0 c:/devkitpro/devkitarm/bin/../lib/gcc/arm-eabi/4.7.0/../../../../arm-eabi/lib/thumb\libstdc++.a(system_error.o)
 .ARM.extab.text._ZN12_GLOBAL__N_122generic_error_categoryD0Ev
                0x0209dd00        0x0 c:/devkitpro/devkitarm/bin/../lib/gcc/arm-eabi/4.7.0/../../../../arm-eabi/lib/thumb\libstdc++.a(system_error.o)
 .ARM.extab.text._ZNSt12system_errorD2Ev
                0x0209dd00        0x0 c:/devkitpro/devkitarm/bin/../lib/gcc/arm-eabi/4.7.0/../../../../arm-eabi/lib/thumb\libstdc++.a(system_error.o)
 .ARM.extab.text._ZNSt12system_errorD0Ev
                0x0209dd00        0x0 c:/devkitpro/devkitarm/bin/../lib/gcc/arm-eabi/4.7.0/../../../../arm-eabi/lib/thumb\libstdc++.a(system_error.o)
 .ARM.extab.text._ZNSt14error_categoryC2Ev
                0x0209dd00        0x0 c:/devkitpro/devkitarm/bin/../lib/gcc/arm-eabi/4.7.0/../../../../arm-eabi/lib/thumb\libstdc++.a(system_error.o)
 .ARM.extab.text._ZSt15system_categoryv
                0x0209dd00        0x0 c:/devkitpro/devkitarm/bin/../lib/gcc/arm-eabi/4.7.0/../../../../arm-eabi/lib/thumb\libstdc++.a(system_error.o)
 .ARM.extab.text._ZSt16generic_categoryv
                0x0209dd00        0x0 c:/devkitpro/devkitarm/bin/../lib/gcc/arm-eabi/4.7.0/../../../../arm-eabi/lib/thumb\libstdc++.a(system_error.o)
 .ARM.extab.text._ZNKSt10error_code23default_error_conditionEv
                0x0209dd00        0x0 c:/devkitpro/devkitarm/bin/../lib/gcc/arm-eabi/4.7.0/../../../../arm-eabi/lib/thumb\libstdc++.a(system_error.o)
 .ARM.extab.text.startup._GLOBAL__sub_I__ZNSt14error_categoryC2Ev
                0x0209dd00        0x0 c:/devkitpro/devkitarm/bin/../lib/gcc/arm-eabi/4.7.0/../../../../arm-eabi/lib/thumb\libstdc++.a(system_error.o)
 .ARM.extab.text.__cxa_guard_acquire
                0x0209dd00        0xc c:/devkitpro/devkitarm/bin/../lib/gcc/arm-eabi/4.7.0/../../../../arm-eabi/lib/thumb\libstdc++.a(guard.o)
 .ARM.extab.text.__cxa_guard_abort
                0x0209dd0c        0x0 c:/devkitpro/devkitarm/bin/../lib/gcc/arm-eabi/4.7.0/../../../../arm-eabi/lib/thumb\libstdc++.a(guard.o)
 .ARM.extab.text.__cxa_guard_release
                0x0209dd0c        0x0 c:/devkitpro/devkitarm/bin/../lib/gcc/arm-eabi/4.7.0/../../../../arm-eabi/lib/thumb\libstdc++.a(guard.o)
 .ARM.extab.text._ZN9__gnu_cxx27__verbose_terminate_handlerEv
                0x0209dd0c       0x34 c:/devkitpro/devkitarm/bin/../lib/gcc/arm-eabi/4.7.0/../../../../arm-eabi/lib/thumb\libstdc++.a(vterminate.o)
 .ARM.extab.text._ZN9__gnu_cxx20recursive_init_errorD2Ev
                0x0209dd40        0x0 c:/devkitpro/devkitarm/bin/../lib/gcc/arm-eabi/4.7.0/../../../../arm-eabi/lib/thumb\libstdc++.a(guard_error.o)
 .ARM.extab.text._ZN9__gnu_cxx20recursive_init_errorD0Ev
                0x0209dd40        0x0 c:/devkitpro/devkitarm/bin/../lib/gcc/arm-eabi/4.7.0/../../../../arm-eabi/lib/thumb\libstdc++.a(guard_error.o)
 .ARM.extab.text.__aeabi_atexit
                0x0209dd40        0x0 c:/devkitpro/devkitarm/bin/../lib/gcc/arm-eabi/4.7.0/../../../../arm-eabi/lib/thumb\libstdc++.a(atexit_arm.o)
 .ARM.extab.text.__cxa_current_exception_type
                0x0209dd40        0x0 c:/devkitpro/devkitarm/bin/../lib/gcc/arm-eabi/4.7.0/../../../../arm-eabi/lib/thumb\libstdc++.a(eh_type.o)
 .ARM.extab     0x0209dd40        0xc c:/devkitpro/devkitarm/bin/../lib/gcc/arm-eabi/4.7.0/thumb\libgcc.a(_divdi3.o)
 .ARM.extab     0x0209dd4c        0xc c:/devkitpro/devkitarm/bin/../lib/gcc/arm-eabi/4.7.0/thumb\libgcc.a(_udivdi3.o)
                0x0209dd58                __exidx_start = .

ARM.exidx       0x0209dd58      0x5e8
 *(.ARM.exidx* .gnu.linkonce.armexidx.*)
 .ARM.exidx.text._Znwj
                0x0209dd70        0x8 c:/devkitpro/devkitarm/bin/../lib/gcc/arm-eabi/4.7.0/../../../../arm-eabi/lib/thumb\libstdc++.a(new_op.o)
 .ARM.exidx.text._ZN10__cxxabiv1L24__is_gxx_exception_classEPc
                0x0209dd78        0x8 c:/devkitpro/devkitarm/bin/../lib/gcc/arm-eabi/4.7.0/../../../../arm-eabi/lib/thumb\libstdc++.a(eh_call.o)
 .ARM.exidx.text.__cxa_call_terminate
                0x0209dd80        0x0 c:/devkitpro/devkitarm/bin/../lib/gcc/arm-eabi/4.7.0/../../../../arm-eabi/lib/thumb\libstdc++.a(eh_call.o)
                                  0x8 (size before relaxing)
 .ARM.exidx.text.__cxa_call_unexpected
                0x0209dd80        0x8 c:/devkitpro/devkitarm/bin/../lib/gcc/arm-eabi/4.7.0/../../../../arm-eabi/lib/thumb\libstdc++.a(eh_call.o)
 .ARM.exidx.text._ZL12read_sleb128PKhPl
                0x0209dd88        0x8 c:/devkitpro/devkitarm/bin/../lib/gcc/arm-eabi/4.7.0/../../../../arm-eabi/lib/thumb\libstdc++.a(eh_personality.o)
 .ARM.exidx.text._ZL28read_encoded_value_with_basehjPKhPj
                0x0209dd90        0x8 c:/devkitpro/devkitarm/bin/../lib/gcc/arm-eabi/4.7.0/../../../../arm-eabi/lib/thumb\libstdc++.a(eh_personality.o)
 .ARM.exidx.text._ZL21base_of_encoded_valuehP15_Unwind_Context
                0x0209dd98        0x8 c:/devkitpro/devkitarm/bin/../lib/gcc/arm-eabi/4.7.0/../../../../arm-eabi/lib/thumb\libstdc++.a(eh_personality.o)
 .ARM.exidx.text._ZL17parse_lsda_headerP15_Unwind_ContextPKhP16lsda_header_info
                0x0209dda0        0x8 c:/devkitpro/devkitarm/bin/../lib/gcc/arm-eabi/4.7.0/../../../../arm-eabi/lib/thumb\libstdc++.a(eh_personality.o)
 .ARM.exidx.text.__gxx_personality_v0
                0x0209dda8        0x8 c:/devkitpro/devkitarm/bin/../lib/gcc/arm-eabi/4.7.0/../../../../arm-eabi/lib/thumb\libstdc++.a(eh_personality.o)
 .ARM.exidx.text._ZdlPv
                0x0209ddb0        0x8 c:/devkitpro/devkitarm/bin/../lib/gcc/arm-eabi/4.7.0/../../../../arm-eabi/lib/thumb\libstdc++.a(del_op.o)
 .ARM.exidx.text._ZN10__cxxabiv111__terminateEPFvvE
                0x0209ddb8        0x8 c:/devkitpro/devkitarm/bin/../lib/gcc/arm-eabi/4.7.0/../../../../arm-eabi/lib/thumb\libstdc++.a(eh_terminate.o)
 .ARM.exidx.text._ZSt9terminatev
                0x0209ddc0        0x8 c:/devkitpro/devkitarm/bin/../lib/gcc/arm-eabi/4.7.0/../../../../arm-eabi/lib/thumb\libstdc++.a(eh_terminate.o)
 .ARM.exidx.text._ZN10__cxxabiv112__unexpectedEPFvvE
                0x0209ddc8        0x8 c:/devkitpro/devkitarm/bin/../lib/gcc/arm-eabi/4.7.0/../../../../arm-eabi/lib/thumb\libstdc++.a(eh_terminate.o)
 .ARM.exidx.text._ZSt10unexpectedv
                0x0209ddd0        0x8 c:/devkitpro/devkitarm/bin/../lib/gcc/arm-eabi/4.7.0/../../../../arm-eabi/lib/thumb\libstdc++.a(eh_terminate.o)
 .ARM.exidx.text._ZSt13set_terminatePFvvE
                0x0209ddd8        0x8 c:/devkitpro/devkitarm/bin/../lib/gcc/arm-eabi/4.7.0/../../../../arm-eabi/lib/thumb\libstdc++.a(eh_terminate.o)
 .ARM.exidx.text._ZSt14set_unexpectedPFvvE
                0x0209dde0        0x0 c:/devkitpro/devkitarm/bin/../lib/gcc/arm-eabi/4.7.0/../../../../arm-eabi/lib/thumb\libstdc++.a(eh_terminate.o)
                                  0x8 (size before relaxing)
 .ARM.exidx.text._ZNSt9exceptionD2Ev
                0x0209dde0        0x0 c:/devkitpro/devkitarm/bin/../lib/gcc/arm-eabi/4.7.0/../../../../arm-eabi/lib/thumb\libstdc++.a(eh_exception.o)
                                  0x8 (size before relaxing)
 .ARM.exidx.text._ZNSt13bad_exceptionD2Ev
                0x0209dde0        0x0 c:/devkitpro/devkitarm/bin/../lib/gcc/arm-eabi/4.7.0/../../../../arm-eabi/lib/thumb\libstdc++.a(eh_exception.o)
                                  0x8 (size before relaxing)
 .ARM.exidx.text._ZN10__cxxabiv115__forced_unwindD2Ev
                0x0209dde0        0x0 c:/devkitpro/devkitarm/bin/../lib/gcc/arm-eabi/4.7.0/../../../../arm-eabi/lib/thumb\libstdc++.a(eh_exception.o)
                                  0x8 (size before relaxing)
 .ARM.exidx.text._ZN10__cxxabiv119__foreign_exceptionD2Ev
                0x0209dde0        0x0 c:/devkitpro/devkitarm/bin/../lib/gcc/arm-eabi/4.7.0/../../../../arm-eabi/lib/thumb\libstdc++.a(eh_exception.o)
                                  0x8 (size before relaxing)
 .ARM.exidx.text._ZNKSt9exception4whatEv
                0x0209dde0        0x0 c:/devkitpro/devkitarm/bin/../lib/gcc/arm-eabi/4.7.0/../../../../arm-eabi/lib/thumb\libstdc++.a(eh_exception.o)
                                  0x8 (size before relaxing)
 .ARM.exidx.text._ZNKSt13bad_exception4whatEv
                0x0209dde0        0x0 c:/devkitpro/devkitarm/bin/../lib/gcc/arm-eabi/4.7.0/../../../../arm-eabi/lib/thumb\libstdc++.a(eh_exception.o)
                                  0x8 (size before relaxing)
 .ARM.exidx.text._ZN10__cxxabiv119__foreign_exceptionD0Ev
                0x0209dde0        0x0 c:/devkitpro/devkitarm/bin/../lib/gcc/arm-eabi/4.7.0/../../../../arm-eabi/lib/thumb\libstdc++.a(eh_exception.o)
                                  0x8 (size before relaxing)
 .ARM.exidx.text._ZN10__cxxabiv115__forced_unwindD0Ev
                0x0209dde0        0x0 c:/devkitpro/devkitarm/bin/../lib/gcc/arm-eabi/4.7.0/../../../../arm-eabi/lib/thumb\libstdc++.a(eh_exception.o)
                                  0x8 (size before relaxing)
 .ARM.exidx.text._ZNSt9exceptionD0Ev
                0x0209dde0        0x0 c:/devkitpro/devkitarm/bin/../lib/gcc/arm-eabi/4.7.0/../../../../arm-eabi/lib/thumb\libstdc++.a(eh_exception.o)
                                  0x8 (size before relaxing)
 .ARM.exidx.text._ZNSt13bad_exceptionD0Ev
                0x0209dde0        0x0 c:/devkitpro/devkitarm/bin/../lib/gcc/arm-eabi/4.7.0/../../../../arm-eabi/lib/thumb\libstdc++.a(eh_exception.o)
                                  0x8 (size before relaxing)
 .ARM.exidx.text.__cxa_allocate_exception
                0x0209dde0        0x0 c:/devkitpro/devkitarm/bin/../lib/gcc/arm-eabi/4.7.0/../../../../arm-eabi/lib/thumb\libstdc++.a(eh_alloc.o)
                                  0x8 (size before relaxing)
 .ARM.exidx.text.__cxa_free_exception
                0x0209dde0        0x0 c:/devkitpro/devkitarm/bin/../lib/gcc/arm-eabi/4.7.0/../../../../arm-eabi/lib/thumb\libstdc++.a(eh_alloc.o)
                                  0x8 (size before relaxing)
 .ARM.exidx.text.__cxa_allocate_dependent_exception
                0x0209dde0        0x0 c:/devkitpro/devkitarm/bin/../lib/gcc/arm-eabi/4.7.0/../../../../arm-eabi/lib/thumb\libstdc++.a(eh_alloc.o)
                                  0x8 (size before relaxing)
 .ARM.exidx.text.__cxa_free_dependent_exception
                0x0209dde0        0x0 c:/devkitpro/devkitarm/bin/../lib/gcc/arm-eabi/4.7.0/../../../../arm-eabi/lib/thumb\libstdc++.a(eh_alloc.o)
                                  0x8 (size before relaxing)
 .ARM.exidx.text._ZNKSt9bad_alloc4whatEv
                0x0209dde0        0x0 c:/devkitpro/devkitarm/bin/../lib/gcc/arm-eabi/4.7.0/../../../../arm-eabi/lib/thumb\libstdc++.a(bad_alloc.o)
                                  0x8 (size before relaxing)
 .ARM.exidx.text._ZNSt9bad_allocD2Ev
                0x0209dde0        0x0 c:/devkitpro/devkitarm/bin/../lib/gcc/arm-eabi/4.7.0/../../../../arm-eabi/lib/thumb\libstdc++.a(bad_alloc.o)
                                  0x8 (size before relaxing)
 .ARM.exidx.text._ZNSt9bad_allocD0Ev
                0x0209dde0        0x0 c:/devkitpro/devkitarm/bin/../lib/gcc/arm-eabi/4.7.0/../../../../arm-eabi/lib/thumb\libstdc++.a(bad_alloc.o)
                                  0x8 (size before relaxing)
 .ARM.exidx.text._ZNK10__cxxabiv117__class_type_info11__do_upcastEPKS0_PPv
                0x0209dde0        0x8 c:/devkitpro/devkitarm/bin/../lib/gcc/arm-eabi/4.7.0/../../../../arm-eabi/lib/thumb\libstdc++.a(class_type_info.o)
 .ARM.exidx.text._ZNK10__cxxabiv117__class_type_info20__do_find_public_srcEiPKvPKS0_S2_
                0x0209dde8        0x8 c:/devkitpro/devkitarm/bin/../lib/gcc/arm-eabi/4.7.0/../../../../arm-eabi/lib/thumb\libstdc++.a(class_type_info.o)
 .ARM.exidx.text._ZNK10__cxxabiv117__class_type_info11__do_upcastEPKS0_PKvRNS0_15__upcast_resultE
                0x0209ddf0        0x8 c:/devkitpro/devkitarm/bin/../lib/gcc/arm-eabi/4.7.0/../../../../arm-eabi/lib/thumb\libstdc++.a(class_type_info.o)
 .ARM.exidx.text._ZN10__cxxabiv117__class_type_infoD2Ev
                0x0209ddf8        0x8 c:/devkitpro/devkitarm/bin/../lib/gcc/arm-eabi/4.7.0/../../../../arm-eabi/lib/thumb\libstdc++.a(class_type_info.o)
 .ARM.exidx.text._ZN10__cxxabiv117__class_type_infoD0Ev
                0x0209de00        0x0 c:/devkitpro/devkitarm/bin/../lib/gcc/arm-eabi/4.7.0/../../../../arm-eabi/lib/thumb\libstdc++.a(class_type_info.o)
                                  0x8 (size before relaxing)
 .ARM.exidx.text._ZNK10__cxxabiv117__class_type_info12__do_dyncastEiNS0_10__sub_kindEPKS0_PKvS3_S5_RNS0_16__dyncast_resultE
                0x0209de00        0x8 c:/devkitpro/devkitarm/bin/../lib/gcc/arm-eabi/4.7.0/../../../../arm-eabi/lib/thumb\libstdc++.a(class_type_info.o)
 .ARM.exidx.text._ZNK10__cxxabiv117__class_type_info10__do_catchEPKSt9type_infoPPvj
                0x0209de08        0x8 c:/devkitpro/devkitarm/bin/../lib/gcc/arm-eabi/4.7.0/../../../../arm-eabi/lib/thumb\libstdc++.a(class_type_info.o)
 .ARM.exidx.text._ZSt15set_new_handlerPFvvE
                0x0209de10        0x8 c:/devkitpro/devkitarm/bin/../lib/gcc/arm-eabi/4.7.0/../../../../arm-eabi/lib/thumb\libstdc++.a(new_handler.o)
 .ARM.exidx.text.unlikely._ZNSs4_Rep26_M_set_length_and_sharableEj.part.4
                0x0209de18        0x0 c:/devkitpro/devkitarm/bin/../lib/gcc/arm-eabi/4.7.0/../../../../arm-eabi/lib/thumb\libstdc++.a(string-inst.o)
                                  0x8 (size before relaxing)
 .ARM.exidx.text._ZNKSs4dataEv
                0x0209de18        0x0 c:/devkitpro/devkitarm/bin/../lib/gcc/arm-eabi/4.7.0/../../../../arm-eabi/lib/thumb\libstdc++.a(string-inst.o)
                                  0x8 (size before relaxing)
 .ARM.exidx.text._ZNKSs6lengthEv
                0x0209de18        0x0 c:/devkitpro/devkitarm/bin/../lib/gcc/arm-eabi/4.7.0/../../../../arm-eabi/lib/thumb\libstdc++.a(string-inst.o)
                                  0x8 (size before relaxing)
 .ARM.exidx.text._ZNKSs7_M_dataEv
                0x0209de18        0x0 c:/devkitpro/devkitarm/bin/../lib/gcc/arm-eabi/4.7.0/../../../../arm-eabi/lib/thumb\libstdc++.a(string-inst.o)
                                  0x8 (size before relaxing)
 .ARM.exidx.text._ZNSs7_M_dataEPc
                0x0209de18        0x0 c:/devkitpro/devkitarm/bin/../lib/gcc/arm-eabi/4.7.0/../../../../arm-eabi/lib/thumb\libstdc++.a(string-inst.o)
                                  0x8 (size before relaxing)
 .ARM.exidx.text._ZNKSs6_M_repEv
                0x0209de18        0x0 c:/devkitpro/devkitarm/bin/../lib/gcc/arm-eabi/4.7.0/../../../../arm-eabi/lib/thumb\libstdc++.a(string-inst.o)
                                  0x8 (size before relaxing)
 .ARM.exidx.text._ZNKSs9_M_ibeginEv
                0x0209de18        0x0 c:/devkitpro/devkitarm/bin/../lib/gcc/arm-eabi/4.7.0/../../../../arm-eabi/lib/thumb\libstdc++.a(string-inst.o)
                                  0x8 (size before relaxing)
 .ARM.exidx.text._ZNKSs7_M_iendEv
                0x0209de18        0x0 c:/devkitpro/devkitarm/bin/../lib/gcc/arm-eabi/4.7.0/../../../../arm-eabi/lib/thumb\libstdc++.a(string-inst.o)
                                  0x8 (size before relaxing)
 .ARM.exidx.text._ZNKSs8_M_checkEjPKc
                0x0209de18        0x8 c:/devkitpro/devkitarm/bin/../lib/gcc/arm-eabi/4.7.0/../../../../arm-eabi/lib/thumb\libstdc++.a(string-inst.o)
 .ARM.exidx.text._ZNKSs15_M_check_lengthEjjPKc
                0x0209de20        0x8 c:/devkitpro/devkitarm/bin/../lib/gcc/arm-eabi/4.7.0/../../../../arm-eabi/lib/thumb\libstdc++.a(string-inst.o)
 .ARM.exidx.text._ZNKSs8_M_limitEjj
                0x0209de28        0x8 c:/devkitpro/devkitarm/bin/../lib/gcc/arm-eabi/4.7.0/../../../../arm-eabi/lib/thumb\libstdc++.a(string-inst.o)
 .ARM.exidx.text._ZNKSs11_M_disjunctEPKc
                0x0209de30        0x0 c:/devkitpro/devkitarm/bin/../lib/gcc/arm-eabi/4.7.0/../../../../arm-eabi/lib/thumb\libstdc++.a(string-inst.o)
                                  0x8 (size before relaxing)
 .ARM.exidx.text._ZNSs7_M_copyEPcPKcj
                0x0209de30        0x0 c:/devkitpro/devkitarm/bin/../lib/gcc/arm-eabi/4.7.0/../../../../arm-eabi/lib/thumb\libstdc++.a(string-inst.o)
                                  0x8 (size before relaxing)
 .ARM.exidx.text._ZNSs7_M_moveEPcPKcj
                0x0209de30        0x0 c:/devkitpro/devkitarm/bin/../lib/gcc/arm-eabi/4.7.0/../../../../arm-eabi/lib/thumb\libstdc++.a(string-inst.o)
                                  0x8 (size before relaxing)
 .ARM.exidx.text._ZNSs9_M_assignEPcjc
                0x0209de30        0x0 c:/devkitpro/devkitarm/bin/../lib/gcc/arm-eabi/4.7.0/../../../../arm-eabi/lib/thumb\libstdc++.a(string-inst.o)
                                  0x8 (size before relaxing)
 .ARM.exidx.text._ZNSs13_S_copy_charsEPcN9__gnu_cxx17__normal_iteratorIS_SsEES2_
                0x0209de30        0x0 c:/devkitpro/devkitarm/bin/../lib/gcc/arm-eabi/4.7.0/../../../../arm-eabi/lib/thumb\libstdc++.a(string-inst.o)
                                  0x8 (size before relaxing)
 .ARM.exidx.text._ZNSs13_S_copy_charsEPcN9__gnu_cxx17__normal_iteratorIPKcSsEES4_
                0x0209de30        0x0 c:/devkitpro/devkitarm/bin/../lib/gcc/arm-eabi/4.7.0/../../../../arm-eabi/lib/thumb\libstdc++.a(string-inst.o)
                                  0x8 (size before relaxing)
 .ARM.exidx.text._ZNSs13_S_copy_charsEPcS_S_
                0x0209de30        0x0 c:/devkitpro/devkitarm/bin/../lib/gcc/arm-eabi/4.7.0/../../../../arm-eabi/lib/thumb\libstdc++.a(string-inst.o)
                                  0x8 (size before relaxing)
 .ARM.exidx.text._ZNSs13_S_copy_charsEPcPKcS1_
                0x0209de30        0x0 c:/devkitpro/devkitarm/bin/../lib/gcc/arm-eabi/4.7.0/../../../../arm-eabi/lib/thumb\libstdc++.a(string-inst.o)
                                  0x8 (size before relaxing)
 .ARM.exidx.text._ZNSs10_S_compareEjj
                0x0209de30        0x0 c:/devkitpro/devkitarm/bin/../lib/gcc/arm-eabi/4.7.0/../../../../arm-eabi/lib/thumb\libstdc++.a(string-inst.o)
                                  0x8 (size before relaxing)
 .ARM.exidx.text._ZNSs12_S_empty_repEv
                0x0209de30        0x0 c:/devkitpro/devkitarm/bin/../lib/gcc/arm-eabi/4.7.0/../../../../arm-eabi/lib/thumb\libstdc++.a(string-inst.o)
                                  0x8 (size before relaxing)
 .ARM.exidx.text._ZNSsC2Ev
                0x0209de30        0x0 c:/devkitpro/devkitarm/bin/../lib/gcc/arm-eabi/4.7.0/../../../../arm-eabi/lib/thumb\libstdc++.a(string-inst.o)
                                  0x8 (size before relaxing)
 .ARM.exidx.text._ZNSsC2EOSs
                0x0209de30        0x0 c:/devkitpro/devkitarm/bin/../lib/gcc/arm-eabi/4.7.0/../../../../arm-eabi/lib/thumb\libstdc++.a(string-inst.o)
                                  0x8 (size before relaxing)
 .ARM.exidx.text._ZNKSs5beginEv
                0x0209de30        0x0 c:/devkitpro/devkitarm/bin/../lib/gcc/arm-eabi/4.7.0/../../../../arm-eabi/lib/thumb\libstdc++.a(string-inst.o)
                                  0x8 (size before relaxing)
 .ARM.exidx.text._ZNKSs3endEv
                0x0209de30        0x0 c:/devkitpro/devkitarm/bin/../lib/gcc/arm-eabi/4.7.0/../../../../arm-eabi/lib/thumb\libstdc++.a(string-inst.o)
                                  0x8 (size before relaxing)
 .ARM.exidx.text._ZNKSs6rbeginEv
                0x0209de30        0x0 c:/devkitpro/devkitarm/bin/../lib/gcc/arm-eabi/4.7.0/../../../../arm-eabi/lib/thumb\libstdc++.a(string-inst.o)
                                  0x8 (size before relaxing)
 .ARM.exidx.text._ZNKSs4rendEv
                0x0209de30        0x0 c:/devkitpro/devkitarm/bin/../lib/gcc/arm-eabi/4.7.0/../../../../arm-eabi/lib/thumb\libstdc++.a(string-inst.o)
                                  0x8 (size before relaxing)
 .ARM.exidx.text._ZNKSs6cbeginEv
                0x0209de30        0x0 c:/devkitpro/devkitarm/bin/../lib/gcc/arm-eabi/4.7.0/../../../../arm-eabi/lib/thumb\libstdc++.a(string-inst.o)
                                  0x8 (size before relaxing)
 .ARM.exidx.text._ZNKSs4cendEv
                0x0209de30        0x0 c:/devkitpro/devkitarm/bin/../lib/gcc/arm-eabi/4.7.0/../../../../arm-eabi/lib/thumb\libstdc++.a(string-inst.o)
                                  0x8 (size before relaxing)
 .ARM.exidx.text._ZNKSs7crbeginEv
                0x0209de30        0x0 c:/devkitpro/devkitarm/bin/../lib/gcc/arm-eabi/4.7.0/../../../../arm-eabi/lib/thumb\libstdc++.a(string-inst.o)
                                  0x8 (size before relaxing)
 .ARM.exidx.text._ZNKSs5crendEv
                0x0209de30        0x0 c:/devkitpro/devkitarm/bin/../lib/gcc/arm-eabi/4.7.0/../../../../arm-eabi/lib/thumb\libstdc++.a(string-inst.o)
                                  0x8 (size before relaxing)
 .ARM.exidx.text._ZNKSs4sizeEv
                0x0209de30        0x0 c:/devkitpro/devkitarm/bin/../lib/gcc/arm-eabi/4.7.0/../../../../arm-eabi/lib/thumb\libstdc++.a(string-inst.o)
                                  0x8 (size before relaxing)
 .ARM.exidx.text._ZNKSs8max_sizeEv
                0x0209de30        0x0 c:/devkitpro/devkitarm/bin/../lib/gcc/arm-eabi/4.7.0/../../../../arm-eabi/lib/thumb\libstdc++.a(string-inst.o)
                                  0x8 (size before relaxing)
 .ARM.exidx.text._ZNKSs8capacityEv
                0x0209de30        0x0 c:/devkitpro/devkitarm/bin/../lib/gcc/arm-eabi/4.7.0/../../../../arm-eabi/lib/thumb\libstdc++.a(string-inst.o)
                                  0x8 (size before relaxing)
 .ARM.exidx.text._ZNKSs5emptyEv
                0x0209de30        0x0 c:/devkitpro/devkitarm/bin/../lib/gcc/arm-eabi/4.7.0/../../../../arm-eabi/lib/thumb\libstdc++.a(string-inst.o)
                                  0x8 (size before relaxing)
 .ARM.exidx.text._ZNKSsixEj
                0x0209de30        0x0 c:/devkitpro/devkitarm/bin/../lib/gcc/arm-eabi/4.7.0/../../../../arm-eabi/lib/thumb\libstdc++.a(string-inst.o)
                                  0x8 (size before relaxing)
 .ARM.exidx.text._ZNKSs2atEj
                0x0209de30        0x8 c:/devkitpro/devkitarm/bin/../lib/gcc/arm-eabi/4.7.0/../../../../arm-eabi/lib/thumb\libstdc++.a(string-inst.o)
 .ARM.exidx.text._ZNKSs5frontEv
                0x0209de38        0x8 c:/devkitpro/devkitarm/bin/../lib/gcc/arm-eabi/4.7.0/../../../../arm-eabi/lib/thumb\libstdc++.a(string-inst.o)
 .ARM.exidx.text._ZNKSs4backEv
                0x0209de40        0x0 c:/devkitpro/devkitarm/bin/../lib/gcc/arm-eabi/4.7.0/../../../../arm-eabi/lib/thumb\libstdc++.a(string-inst.o)
                                  0x8 (size before relaxing)
 .ARM.exidx.text._ZNKSs4copyEPcjj
                0x0209de40        0x8 c:/devkitpro/devkitarm/bin/../lib/gcc/arm-eabi/4.7.0/../../../../arm-eabi/lib/thumb\libstdc++.a(string-inst.o)
 .ARM.exidx.text._ZNSs4swapERSs
                0x0209de48        0x8 c:/devkitpro/devkitarm/bin/../lib/gcc/arm-eabi/4.7.0/../../../../arm-eabi/lib/thumb\libstdc++.a(string-inst.o)
 .ARM.exidx.text._ZNSs6assignEOSs
                0x0209de50        0x8 c:/devkitpro/devkitarm/bin/../lib/gcc/arm-eabi/4.7.0/../../../../arm-eabi/lib/thumb\libstdc++.a(string-inst.o)
 .ARM.exidx.text._ZNSsaSEOSs
                0x0209de58        0x0 c:/devkitpro/devkitarm/bin/../lib/gcc/arm-eabi/4.7.0/../../../../arm-eabi/lib/thumb\libstdc++.a(string-inst.o)
                                  0x8 (size before relaxing)
 .ARM.exidx.text._ZNKSs5c_strEv
                0x0209de58        0x8 c:/devkitpro/devkitarm/bin/../lib/gcc/arm-eabi/4.7.0/../../../../arm-eabi/lib/thumb\libstdc++.a(string-inst.o)
 .ARM.exidx.text._ZNKSs13get_allocatorEv
                0x0209de60        0x0 c:/devkitpro/devkitarm/bin/../lib/gcc/arm-eabi/4.7.0/../../../../arm-eabi/lib/thumb\libstdc++.a(string-inst.o)
                                  0x8 (size before relaxing)
 .ARM.exidx.text._ZNKSs4findEPKcjj
                0x0209de60        0x0 c:/devkitpro/devkitarm/bin/../lib/gcc/arm-eabi/4.7.0/../../../../arm-eabi/lib/thumb\libstdc++.a(string-inst.o)
                                  0x8 (size before relaxing)
 .ARM.exidx.text._ZNKSs4findERKSsj
                0x0209de60        0x8 c:/devkitpro/devkitarm/bin/../lib/gcc/arm-eabi/4.7.0/../../../../arm-eabi/lib/thumb\libstdc++.a(string-inst.o)
 .ARM.exidx.text._ZNKSs4findEPKcj
                0x0209de68        0x8 c:/devkitpro/devkitarm/bin/../lib/gcc/arm-eabi/4.7.0/../../../../arm-eabi/lib/thumb\libstdc++.a(string-inst.o)
 .ARM.exidx.text._ZNKSs4findEcj
                0x0209de70        0x8 c:/devkitpro/devkitarm/bin/../lib/gcc/arm-eabi/4.7.0/../../../../arm-eabi/lib/thumb\libstdc++.a(string-inst.o)
 .ARM.exidx.text._ZNKSs5rfindEPKcjj
                0x0209de78        0x0 c:/devkitpro/devkitarm/bin/../lib/gcc/arm-eabi/4.7.0/../../../../arm-eabi/lib/thumb\libstdc++.a(string-inst.o)
                                  0x8 (size before relaxing)
 .ARM.exidx.text._ZNKSs5rfindERKSsj
                0x0209de78        0x8 c:/devkitpro/devkitarm/bin/../lib/gcc/arm-eabi/4.7.0/../../../../arm-eabi/lib/thumb\libstdc++.a(string-inst.o)
 .ARM.exidx.text._ZNKSs5rfindEPKcj
                0x0209de80        0x8 c:/devkitpro/devkitarm/bin/../lib/gcc/arm-eabi/4.7.0/../../../../arm-eabi/lib/thumb\libstdc++.a(string-inst.o)
 .ARM.exidx.text._ZNKSs5rfindEcj
                0x0209de88        0x8 c:/devkitpro/devkitarm/bin/../lib/gcc/arm-eabi/4.7.0/../../../../arm-eabi/lib/thumb\libstdc++.a(string-inst.o)
 .ARM.exidx.text._ZNKSs13find_first_ofEPKcjj
                0x0209de90        0x0 c:/devkitpro/devkitarm/bin/../lib/gcc/arm-eabi/4.7.0/../../../../arm-eabi/lib/thumb\libstdc++.a(string-inst.o)
                                  0x8 (size before relaxing)
 .ARM.exidx.text._ZNKSs13find_first_ofERKSsj
                0x0209de90        0x8 c:/devkitpro/devkitarm/bin/../lib/gcc/arm-eabi/4.7.0/../../../../arm-eabi/lib/thumb\libstdc++.a(string-inst.o)
 .ARM.exidx.text._ZNKSs13find_first_ofEPKcj
                0x0209de98        0x8 c:/devkitpro/devkitarm/bin/../lib/gcc/arm-eabi/4.7.0/../../../../arm-eabi/lib/thumb\libstdc++.a(string-inst.o)
 .ARM.exidx.text._ZNKSs13find_first_ofEcj
                0x0209dea0        0x8 c:/devkitpro/devkitarm/bin/../lib/gcc/arm-eabi/4.7.0/../../../../arm-eabi/lib/thumb\libstdc++.a(string-inst.o)
 .ARM.exidx.text._ZNKSs12find_last_ofEPKcjj
                0x0209dea8        0x0 c:/devkitpro/devkitarm/bin/../lib/gcc/arm-eabi/4.7.0/../../../../arm-eabi/lib/thumb\libstdc++.a(string-inst.o)
                                  0x8 (size before relaxing)
 .ARM.exidx.text._ZNKSs12find_last_ofERKSsj
                0x0209dea8        0x8 c:/devkitpro/devkitarm/bin/../lib/gcc/arm-eabi/4.7.0/../../../../arm-eabi/lib/thumb\libstdc++.a(string-inst.o)
 .ARM.exidx.text._ZNKSs12find_last_ofEPKcj
                0x0209deb0        0x8 c:/devkitpro/devkitarm/bin/../lib/gcc/arm-eabi/4.7.0/../../../../arm-eabi/lib/thumb\libstdc++.a(string-inst.o)
 .ARM.exidx.text._ZNKSs12find_last_ofEcj
                0x0209deb8        0x8 c:/devkitpro/devkitarm/bin/../lib/gcc/arm-eabi/4.7.0/../../../../arm-eabi/lib/thumb\libstdc++.a(string-inst.o)
 .ARM.exidx.text._ZNKSs17find_first_not_ofEPKcjj
                0x0209dec0        0x0 c:/devkitpro/devkitarm/bin/../lib/gcc/arm-eabi/4.7.0/../../../../arm-eabi/lib/thumb\libstdc++.a(string-inst.o)
                                  0x8 (size before relaxing)
 .ARM.exidx.text._ZNKSs17find_first_not_ofERKSsj
                0x0209dec0        0x8 c:/devkitpro/devkitarm/bin/../lib/gcc/arm-eabi/4.7.0/../../../../arm-eabi/lib/thumb\libstdc++.a(string-inst.o)
 .ARM.exidx.text._ZNKSs17find_first_not_ofEPKcj
                0x0209dec8        0x8 c:/devkitpro/devkitarm/bin/../lib/gcc/arm-eabi/4.7.0/../../../../arm-eabi/lib/thumb\libstdc++.a(string-inst.o)
 .ARM.exidx.text._ZNKSs17find_first_not_ofEcj
                0x0209ded0        0x8 c:/devkitpro/devkitarm/bin/../lib/gcc/arm-eabi/4.7.0/../../../../arm-eabi/lib/thumb\libstdc++.a(string-inst.o)
 .ARM.exidx.text._ZNKSs16find_last_not_ofEPKcjj
                0x0209ded8        0x0 c:/devkitpro/devkitarm/bin/../lib/gcc/arm-eabi/4.7.0/../../../../arm-eabi/lib/thumb\libstdc++.a(string-inst.o)
                                  0x8 (size before relaxing)
 .ARM.exidx.text._ZNKSs16find_last_not_ofERKSsj
                0x0209ded8        0x8 c:/devkitpro/devkitarm/bin/../lib/gcc/arm-eabi/4.7.0/../../../../arm-eabi/lib/thumb\libstdc++.a(string-inst.o)
 .ARM.exidx.text._ZNKSs16find_last_not_ofEPKcj
                0x0209dee0        0x8 c:/devkitpro/devkitarm/bin/../lib/gcc/arm-eabi/4.7.0/../../../../arm-eabi/lib/thumb\libstdc++.a(string-inst.o)
 .ARM.exidx.text._ZNKSs16find_last_not_ofEcj
                0x0209dee8        0x8 c:/devkitpro/devkitarm/bin/../lib/gcc/arm-eabi/4.7.0/../../../../arm-eabi/lib/thumb\libstdc++.a(string-inst.o)
 .ARM.exidx.text._ZNKSs7compareERKSs
                0x0209def0        0x0 c:/devkitpro/devkitarm/bin/../lib/gcc/arm-eabi/4.7.0/../../../../arm-eabi/lib/thumb\libstdc++.a(string-inst.o)
                                  0x8 (size before relaxing)
 .ARM.exidx.text._ZNKSs7compareEjjRKSs
                0x0209def0        0x8 c:/devkitpro/devkitarm/bin/../lib/gcc/arm-eabi/4.7.0/../../../../arm-eabi/lib/thumb\libstdc++.a(string-inst.o)
 .ARM.exidx.text._ZNKSs7compareEjjRKSsjj
                0x0209def8        0x8 c:/devkitpro/devkitarm/bin/../lib/gcc/arm-eabi/4.7.0/../../../../arm-eabi/lib/thumb\libstdc++.a(string-inst.o)
 .ARM.exidx.text._ZNKSs7compareEPKc
                0x0209df00        0x8 c:/devkitpro/devkitarm/bin/../lib/gcc/arm-eabi/4.7.0/../../../../arm-eabi/lib/thumb\libstdc++.a(string-inst.o)
 .ARM.exidx.text._ZNKSs7compareEjjPKc
                0x0209df08        0x8 c:/devkitpro/devkitarm/bin/../lib/gcc/arm-eabi/4.7.0/../../../../arm-eabi/lib/thumb\libstdc++.a(string-inst.o)
 .ARM.exidx.text._ZNKSs7compareEjjPKcj
                0x0209df10        0x8 c:/devkitpro/devkitarm/bin/../lib/gcc/arm-eabi/4.7.0/../../../../arm-eabi/lib/thumb\libstdc++.a(string-inst.o)
 .ARM.exidx.text._ZNSs12_Alloc_hiderC2EPcRKSaIcE
                0x0209df18        0x8 c:/devkitpro/devkitarm/bin/../lib/gcc/arm-eabi/4.7.0/../../../../arm-eabi/lib/thumb\libstdc++.a(string-inst.o)
 .ARM.exidx.text._ZNSs4_Rep12_S_empty_repEv
                0x0209df20        0x0 c:/devkitpro/devkitarm/bin/../lib/gcc/arm-eabi/4.7.0/../../../../arm-eabi/lib/thumb\libstdc++.a(string-inst.o)
                                  0x8 (size before relaxing)
 .ARM.exidx.text._ZNKSs4_Rep12_M_is_leakedEv
                0x0209df20        0x0 c:/devkitpro/devkitarm/bin/../lib/gcc/arm-eabi/4.7.0/../../../../arm-eabi/lib/thumb\libstdc++.a(string-inst.o)
                                  0x8 (size before relaxing)
 .ARM.exidx.text._ZNKSs4_Rep12_M_is_sharedEv
                0x0209df20        0x0 c:/devkitpro/devkitarm/bin/../lib/gcc/arm-eabi/4.7.0/../../../../arm-eabi/lib/thumb\libstdc++.a(string-inst.o)
                                  0x8 (size before relaxing)
 .ARM.exidx.text._ZNSs4_Rep13_M_set_leakedEv
                0x0209df20        0x0 c:/devkitpro/devkitarm/bin/../lib/gcc/arm-eabi/4.7.0/../../../../arm-eabi/lib/thumb\libstdc++.a(string-inst.o)
                                  0x8 (size before relaxing)
 .ARM.exidx.text._ZNSs4_Rep15_M_set_sharableEv
                0x0209df20        0x0 c:/devkitpro/devkitarm/bin/../lib/gcc/arm-eabi/4.7.0/../../../../arm-eabi/lib/thumb\libstdc++.a(string-inst.o)
                                  0x8 (size before relaxing)
 .ARM.exidx.text._ZNSs4_Rep26_M_set_length_and_sharableEj
                0x0209df20        0x0 c:/devkitpro/devkitarm/bin/../lib/gcc/arm-eabi/4.7.0/../../../../arm-eabi/lib/thumb\libstdc++.a(string-inst.o)
                                  0x8 (size before relaxing)
 .ARM.exidx.text._ZNSs4_Rep10_M_refdataEv
                0x0209df20        0x0 c:/devkitpro/devkitarm/bin/../lib/gcc/arm-eabi/4.7.0/../../../../arm-eabi/lib/thumb\libstdc++.a(string-inst.o)
                                  0x8 (size before relaxing)
 .ARM.exidx.text._ZNSs4_Rep9_S_createEjjRKSaIcE
                0x0209df20        0x8 c:/devkitpro/devkitarm/bin/../lib/gcc/arm-eabi/4.7.0/../../../../arm-eabi/lib/thumb\libstdc++.a(string-inst.o)
 .ARM.exidx.text._ZNSs12_S_constructEjcRKSaIcE
                0x0209df28        0x8 c:/devkitpro/devkitarm/bin/../lib/gcc/arm-eabi/4.7.0/../../../../arm-eabi/lib/thumb\libstdc++.a(string-inst.o)
 .ARM.exidx.text._ZNSs18_S_construct_aux_2EjcRKSaIcE
                0x0209df30        0x8 c:/devkitpro/devkitarm/bin/../lib/gcc/arm-eabi/4.7.0/../../../../arm-eabi/lib/thumb\libstdc++.a(string-inst.o)
 .ARM.exidx.text._ZNSsC2EjcRKSaIcE
                0x0209df38        0x8 c:/devkitpro/devkitarm/bin/../lib/gcc/arm-eabi/4.7.0/../../../../arm-eabi/lib/thumb\libstdc++.a(string-inst.o)
 .ARM.exidx.text._ZNSsC2ERKSaIcE
                0x0209df40        0x0 c:/devkitpro/devkitarm/bin/../lib/gcc/arm-eabi/4.7.0/../../../../arm-eabi/lib/thumb\libstdc++.a(string-inst.o)
                                  0x8 (size before relaxing)
 .ARM.exidx.text._ZNSs4_Rep10_M_destroyERKSaIcE
                0x0209df40        0x8 c:/devkitpro/devkitarm/bin/../lib/gcc/arm-eabi/4.7.0/../../../../arm-eabi/lib/thumb\libstdc++.a(string-inst.o)
 .ARM.exidx.text.unlikely._ZNSs4_Rep10_M_disposeERKSaIcE.part.10
                0x0209df48        0x0 c:/devkitpro/devkitarm/bin/../lib/gcc/arm-eabi/4.7.0/../../../../arm-eabi/lib/thumb\libstdc++.a(string-inst.o)
                                  0x8 (size before relaxing)
 .ARM.exidx.text._ZNSs4_Rep10_M_disposeERKSaIcE
                0x0209df48        0x0 c:/devkitpro/devkitarm/bin/../lib/gcc/arm-eabi/4.7.0/../../../../arm-eabi/lib/thumb\libstdc++.a(string-inst.o)
                                  0x8 (size before relaxing)
 .ARM.exidx.text._ZNSsD2Ev
                0x0209df48        0x0 c:/devkitpro/devkitarm/bin/../lib/gcc/arm-eabi/4.7.0/../../../../arm-eabi/lib/thumb\libstdc++.a(string-inst.o)
                                  0x8 (size before relaxing)
 .ARM.exidx.text._ZNSs9_M_mutateEjjj
                0x0209df48        0x8 c:/devkitpro/devkitarm/bin/../lib/gcc/arm-eabi/4.7.0/../../../../arm-eabi/lib/thumb\libstdc++.a(string-inst.o)
 .ARM.exidx.text._ZNSs15_M_replace_safeEjjPKcj
                0x0209df50        0x8 c:/devkitpro/devkitarm/bin/../lib/gcc/arm-eabi/4.7.0/../../../../arm-eabi/lib/thumb\libstdc++.a(string-inst.o)
 .ARM.exidx.text._ZNSs6assignEPKcj
                0x0209df58        0x8 c:/devkitpro/devkitarm/bin/../lib/gcc/arm-eabi/4.7.0/../../../../arm-eabi/lib/thumb\libstdc++.a(string-inst.o)
 .ARM.exidx.text._ZNSs6assignESt16initializer_listIcE
                0x0209df60        0x8 c:/devkitpro/devkitarm/bin/../lib/gcc/arm-eabi/4.7.0/../../../../arm-eabi/lib/thumb\libstdc++.a(string-inst.o)
 .ARM.exidx.text._ZNSs6assignEPKc
                0x0209df68        0x8 c:/devkitpro/devkitarm/bin/../lib/gcc/arm-eabi/4.7.0/../../../../arm-eabi/lib/thumb\libstdc++.a(string-inst.o)
 .ARM.exidx.text._ZNSs6assignERKSsjj
                0x0209df70        0x8 c:/devkitpro/devkitarm/bin/../lib/gcc/arm-eabi/4.7.0/../../../../arm-eabi/lib/thumb\libstdc++.a(string-inst.o)
 .ARM.exidx.text._ZNSsaSESt16initializer_listIcE
                0x0209df78        0x8 c:/devkitpro/devkitarm/bin/../lib/gcc/arm-eabi/4.7.0/../../../../arm-eabi/lib/thumb\libstdc++.a(string-inst.o)
 .ARM.exidx.text._ZNSsaSEPKc
                0x0209df80        0x8 c:/devkitpro/devkitarm/bin/../lib/gcc/arm-eabi/4.7.0/../../../../arm-eabi/lib/thumb\libstdc++.a(string-inst.o)
 .ARM.exidx.text._ZNSs14_M_replace_auxEjjjc
                0x0209df88        0x8 c:/devkitpro/devkitarm/bin/../lib/gcc/arm-eabi/4.7.0/../../../../arm-eabi/lib/thumb\libstdc++.a(string-inst.o)
 .ARM.exidx.text._ZNSs7replaceEN9__gnu_cxx17__normal_iteratorIPcSsEES2_jc
                0x0209df90        0x8 c:/devkitpro/devkitarm/bin/../lib/gcc/arm-eabi/4.7.0/../../../../arm-eabi/lib/thumb\libstdc++.a(string-inst.o)
 .ARM.exidx.text._ZNSs7replaceEjjjc
                0x0209df98        0x0 c:/devkitpro/devkitarm/bin/../lib/gcc/arm-eabi/4.7.0/../../../../arm-eabi/lib/thumb\libstdc++.a(string-inst.o)
                                  0x8 (size before relaxing)
 .ARM.exidx.text._ZNSs6insertEN9__gnu_cxx17__normal_iteratorIPcSsEEc
                0x0209df98        0x8 c:/devkitpro/devkitarm/bin/../lib/gcc/arm-eabi/4.7.0/../../../../arm-eabi/lib/thumb\libstdc++.a(string-inst.o)
 .ARM.exidx.text._ZNSs6insertEjjc
                0x0209dfa0        0x0 c:/devkitpro/devkitarm/bin/../lib/gcc/arm-eabi/4.7.0/../../../../arm-eabi/lib/thumb\libstdc++.a(string-inst.o)
                                  0x8 (size before relaxing)
 .ARM.exidx.text._ZNSs6assignEjc
                0x0209dfa0        0x8 c:/devkitpro/devkitarm/bin/../lib/gcc/arm-eabi/4.7.0/../../../../arm-eabi/lib/thumb\libstdc++.a(string-inst.o)
 .ARM.exidx.text._ZNSs6insertEN9__gnu_cxx17__normal_iteratorIPcSsEEjc
                0x0209dfa8        0x8 c:/devkitpro/devkitarm/bin/../lib/gcc/arm-eabi/4.7.0/../../../../arm-eabi/lib/thumb\libstdc++.a(string-inst.o)
 .ARM.exidx.text._ZNSsaSEc
                0x0209dfb0        0x0 c:/devkitpro/devkitarm/bin/../lib/gcc/arm-eabi/4.7.0/../../../../arm-eabi/lib/thumb\libstdc++.a(string-inst.o)
                                  0x8 (size before relaxing)
 .ARM.exidx.text._ZNSs5eraseEN9__gnu_cxx17__normal_iteratorIPcSsEES2_
                0x0209dfb0        0x8 c:/devkitpro/devkitarm/bin/../lib/gcc/arm-eabi/4.7.0/../../../../arm-eabi/lib/thumb\libstdc++.a(string-inst.o)
 .ARM.exidx.text._ZNSs5eraseEN9__gnu_cxx17__normal_iteratorIPcSsEE
                0x0209dfb8        0x0 c:/devkitpro/devkitarm/bin/../lib/gcc/arm-eabi/4.7.0/../../../../arm-eabi/lib/thumb\libstdc++.a(string-inst.o)
                                  0x8 (size before relaxing)
 .ARM.exidx.text._ZNSs5eraseEjj
                0x0209dfb8        0x8 c:/devkitpro/devkitarm/bin/../lib/gcc/arm-eabi/4.7.0/../../../../arm-eabi/lib/thumb\libstdc++.a(string-inst.o)
 .ARM.exidx.text._ZNSs6insertEjPKcj
                0x0209dfc0        0x8 c:/devkitpro/devkitarm/bin/../lib/gcc/arm-eabi/4.7.0/../../../../arm-eabi/lib/thumb\libstdc++.a(string-inst.o)
 .ARM.exidx.text._ZNSs6insertEjPKc
                0x0209dfc8        0x8 c:/devkitpro/devkitarm/bin/../lib/gcc/arm-eabi/4.7.0/../../../../arm-eabi/lib/thumb\libstdc++.a(string-inst.o)
 .ARM.exidx.text._ZNSs6insertEjRKSsjj
                0x0209dfd0        0x8 c:/devkitpro/devkitarm/bin/../lib/gcc/arm-eabi/4.7.0/../../../../arm-eabi/lib/thumb\libstdc++.a(string-inst.o)
 .ARM.exidx.text._ZNSs6insertEN9__gnu_cxx17__normal_iteratorIPcSsEESt16initializer_listIcE
                0x0209dfd8        0x8 c:/devkitpro/devkitarm/bin/../lib/gcc/arm-eabi/4.7.0/../../../../arm-eabi/lib/thumb\libstdc++.a(string-inst.o)
 .ARM.exidx.text._ZNSs6insertEjRKSs
                0x0209dfe0        0x8 c:/devkitpro/devkitarm/bin/../lib/gcc/arm-eabi/4.7.0/../../../../arm-eabi/lib/thumb\libstdc++.a(string-inst.o)
 .ARM.exidx.text._ZNSs5clearEv
                0x0209dfe8        0x8 c:/devkitpro/devkitarm/bin/../lib/gcc/arm-eabi/4.7.0/../../../../arm-eabi/lib/thumb\libstdc++.a(string-inst.o)
 .ARM.exidx.text._ZNSs12_M_leak_hardEv
                0x0209dff0        0x8 c:/devkitpro/devkitarm/bin/../lib/gcc/arm-eabi/4.7.0/../../../../arm-eabi/lib/thumb\libstdc++.a(string-inst.o)
 .ARM.exidx.text._ZNSs7_M_leakEv
                0x0209dff8        0x8 c:/devkitpro/devkitarm/bin/../lib/gcc/arm-eabi/4.7.0/../../../../arm-eabi/lib/thumb\libstdc++.a(string-inst.o)
 .ARM.exidx.text._ZNSs5beginEv
                0x0209e000        0x8 c:/devkitpro/devkitarm/bin/../lib/gcc/arm-eabi/4.7.0/../../../../arm-eabi/lib/thumb\libstdc++.a(string-inst.o)
 .ARM.exidx.text._ZNSs5frontEv
                0x0209e008        0x8 c:/devkitpro/devkitarm/bin/../lib/gcc/arm-eabi/4.7.0/../../../../arm-eabi/lib/thumb\libstdc++.a(string-inst.o)
 .ARM.exidx.text._ZNSs3endEv
                0x0209e010        0x8 c:/devkitpro/devkitarm/bin/../lib/gcc/arm-eabi/4.7.0/../../../../arm-eabi/lib/thumb\libstdc++.a(string-inst.o)
 .ARM.exidx.text._ZNSs4rendEv
                0x0209e018        0x8 c:/devkitpro/devkitarm/bin/../lib/gcc/arm-eabi/4.7.0/../../../../arm-eabi/lib/thumb\libstdc++.a(string-inst.o)
 .ARM.exidx.text._ZNSs6rbeginEv
                0x0209e020        0x8 c:/devkitpro/devkitarm/bin/../lib/gcc/arm-eabi/4.7.0/../../../../arm-eabi/lib/thumb\libstdc++.a(string-inst.o)
 .ARM.exidx.text._ZNSsixEj
                0x0209e028        0x8 c:/devkitpro/devkitarm/bin/../lib/gcc/arm-eabi/4.7.0/../../../../arm-eabi/lib/thumb\libstdc++.a(string-inst.o)
 .ARM.exidx.text._ZNSs4backEv
                0x0209e030        0x0 c:/devkitpro/devkitarm/bin/../lib/gcc/arm-eabi/4.7.0/../../../../arm-eabi/lib/thumb\libstdc++.a(string-inst.o)
                                  0x8 (size before relaxing)
 .ARM.exidx.text._ZNSs2atEj
                0x0209e030        0x0 c:/devkitpro/devkitarm/bin/../lib/gcc/arm-eabi/4.7.0/../../../../arm-eabi/lib/thumb\libstdc++.a(string-inst.o)
                                  0x8 (size before relaxing)
 .ARM.exidx.text._ZNSs8pop_backEv
                0x0209e030        0x8 c:/devkitpro/devkitarm/bin/../lib/gcc/arm-eabi/4.7.0/../../../../arm-eabi/lib/thumb\libstdc++.a(string-inst.o)
 .ARM.exidx.text._ZNSs4_Rep10_M_refcopyEv
                0x0209e038        0x8 c:/devkitpro/devkitarm/bin/../lib/gcc/arm-eabi/4.7.0/../../../../arm-eabi/lib/thumb\libstdc++.a(string-inst.o)
 .ARM.exidx.text._ZNSs4_Rep8_M_cloneERKSaIcEj
                0x0209e040        0x8 c:/devkitpro/devkitarm/bin/../lib/gcc/arm-eabi/4.7.0/../../../../arm-eabi/lib/thumb\libstdc++.a(string-inst.o)
 .ARM.exidx.text._ZNSs6assignERKSs
                0x0209e048        0x8 c:/devkitpro/devkitarm/bin/../lib/gcc/arm-eabi/4.7.0/../../../../arm-eabi/lib/thumb\libstdc++.a(string-inst.o)
 .ARM.exidx.text._ZNSsaSERKSs
                0x0209e050        0x8 c:/devkitpro/devkitarm/bin/../lib/gcc/arm-eabi/4.7.0/../../../../arm-eabi/lib/thumb\libstdc++.a(string-inst.o)
 .ARM.exidx.text._ZNSs7reserveEj
                0x0209e058        0x8 c:/devkitpro/devkitarm/bin/../lib/gcc/arm-eabi/4.7.0/../../../../arm-eabi/lib/thumb\libstdc++.a(string-inst.o)
 .ARM.exidx.text._ZNSs9push_backEc
                0x0209e060        0x8 c:/devkitpro/devkitarm/bin/../lib/gcc/arm-eabi/4.7.0/../../../../arm-eabi/lib/thumb\libstdc++.a(string-inst.o)
 .ARM.exidx.text._ZNSs6appendEjc
                0x0209e068        0x8 c:/devkitpro/devkitarm/bin/../lib/gcc/arm-eabi/4.7.0/../../../../arm-eabi/lib/thumb\libstdc++.a(string-inst.o)
 .ARM.exidx.text._ZNSs6resizeEjc
                0x0209e070        0x8 c:/devkitpro/devkitarm/bin/../lib/gcc/arm-eabi/4.7.0/../../../../arm-eabi/lib/thumb\libstdc++.a(string-inst.o)
 .ARM.exidx.text._ZNSs6resizeEj
                0x0209e078        0x8 c:/devkitpro/devkitarm/bin/../lib/gcc/arm-eabi/4.7.0/../../../../arm-eabi/lib/thumb\libstdc++.a(string-inst.o)
 .ARM.exidx.text._ZNSs6appendEPKcj
                0x0209e080        0x8 c:/devkitpro/devkitarm/bin/../lib/gcc/arm-eabi/4.7.0/../../../../arm-eabi/lib/thumb\libstdc++.a(string-inst.o)
 .ARM.exidx.text._ZNSs6appendESt16initializer_listIcE
                0x0209e088        0x8 c:/devkitpro/devkitarm/bin/../lib/gcc/arm-eabi/4.7.0/../../../../arm-eabi/lib/thumb\libstdc++.a(string-inst.o)
 .ARM.exidx.text._ZNSs6appendEPKc
                0x0209e090        0x8 c:/devkitpro/devkitarm/bin/../lib/gcc/arm-eabi/4.7.0/../../../../arm-eabi/lib/thumb\libstdc++.a(string-inst.o)
 .ARM.exidx.text._ZNSspLESt16initializer_listIcE
                0x0209e098        0x8 c:/devkitpro/devkitarm/bin/../lib/gcc/arm-eabi/4.7.0/../../../../arm-eabi/lib/thumb\libstdc++.a(string-inst.o)
 .ARM.exidx.text._ZNSspLEPKc
                0x0209e0a0        0x8 c:/devkitpro/devkitarm/bin/../lib/gcc/arm-eabi/4.7.0/../../../../arm-eabi/lib/thumb\libstdc++.a(string-inst.o)
 .ARM.exidx.text._ZNSs6appendERKSsjj
                0x0209e0a8        0x8 c:/devkitpro/devkitarm/bin/../lib/gcc/arm-eabi/4.7.0/../../../../arm-eabi/lib/thumb\libstdc++.a(string-inst.o)
 .ARM.exidx.text._ZNSs6appendERKSs
                0x0209e0b0        0x0 c:/devkitpro/devkitarm/bin/../lib/gcc/arm-eabi/4.7.0/../../../../arm-eabi/lib/thumb\libstdc++.a(string-inst.o)
                                  0x8 (size before relaxing)
 .ARM.exidx.text._ZNSspLERKSs
                0x0209e0b0        0x8 c:/devkitpro/devkitarm/bin/../lib/gcc/arm-eabi/4.7.0/../../../../arm-eabi/lib/thumb\libstdc++.a(string-inst.o)
 .ARM.exidx.text._ZNSs13shrink_to_fitEv
                0x0209e0b8        0x8 c:/devkitpro/devkitarm/bin/../lib/gcc/arm-eabi/4.7.0/../../../../arm-eabi/lib/thumb\libstdc++.a(string-inst.o)
 .ARM.exidx.text._ZNSspLEc
                0x0209e0c0        0x8 c:/devkitpro/devkitarm/bin/../lib/gcc/arm-eabi/4.7.0/../../../../arm-eabi/lib/thumb\libstdc++.a(string-inst.o)
 .ARM.exidx.text._ZNSs4_Rep7_M_grabERKSaIcES2_
                0x0209e0c8        0x8 c:/devkitpro/devkitarm/bin/../lib/gcc/arm-eabi/4.7.0/../../../../arm-eabi/lib/thumb\libstdc++.a(string-inst.o)
 .ARM.exidx.text._ZNSsC2ERKSs
                0x0209e0d0        0x8 c:/devkitpro/devkitarm/bin/../lib/gcc/arm-eabi/4.7.0/../../../../arm-eabi/lib/thumb\libstdc++.a(string-inst.o)
 .ARM.exidx.text._ZStplIcSt11char_traitsIcESaIcEESbIT_T0_T1_EPKS3_RKS6_
                0x0209e0d8        0x8 c:/devkitpro/devkitarm/bin/../lib/gcc/arm-eabi/4.7.0/../../../../arm-eabi/lib/thumb\libstdc++.a(string-inst.o)
 .ARM.exidx.text._ZStplIcSt11char_traitsIcESaIcEESbIT_T0_T1_ES3_RKS6_
                0x0209e0e0        0x8 c:/devkitpro/devkitarm/bin/../lib/gcc/arm-eabi/4.7.0/../../../../arm-eabi/lib/thumb\libstdc++.a(string-inst.o)
 .ARM.exidx.text._ZStplIcSt11char_traitsIcESaIcEESbIT_T0_T1_ERKS6_S8_
                0x0209e0e8        0x8 c:/devkitpro/devkitarm/bin/../lib/gcc/arm-eabi/4.7.0/../../../../arm-eabi/lib/thumb\libstdc++.a(string-inst.o)
 .ARM.exidx.text._ZNSs12_S_constructIN9__gnu_cxx17__normal_iteratorIPcSsEEEES2_T_S4_RKSaIcESt20forward_iterator_tag
                0x0209e0f0        0x8 c:/devkitpro/devkitarm/bin/../lib/gcc/arm-eabi/4.7.0/../../../../arm-eabi/lib/thumb\libstdc++.a(string-inst.o)
 .ARM.exidx.text._ZNSsC2IN9__gnu_cxx17__normal_iteratorIPcSsEEEET_S4_RKSaIcE
                0x0209e0f8        0x8 c:/devkitpro/devkitarm/bin/../lib/gcc/arm-eabi/4.7.0/../../../../arm-eabi/lib/thumb\libstdc++.a(string-inst.o)
 .ARM.exidx.text._ZNSs12_S_constructIPcEES0_T_S1_RKSaIcESt20forward_iterator_tag
                0x0209e100        0x8 c:/devkitpro/devkitarm/bin/../lib/gcc/arm-eabi/4.7.0/../../../../arm-eabi/lib/thumb\libstdc++.a(string-inst.o)
 .ARM.exidx.text._ZNSsC2IPcEET_S1_RKSaIcE
                0x0209e108        0x8 c:/devkitpro/devkitarm/bin/../lib/gcc/arm-eabi/4.7.0/../../../../arm-eabi/lib/thumb\libstdc++.a(string-inst.o)
 .ARM.exidx.text._ZNSsC2ERKSsjjRKSaIcE
                0x0209e110        0x8 c:/devkitpro/devkitarm/bin/../lib/gcc/arm-eabi/4.7.0/../../../../arm-eabi/lib/thumb\libstdc++.a(string-inst.o)
 .ARM.exidx.text._ZNSsC2ERKSsjj
                0x0209e118        0x8 c:/devkitpro/devkitarm/bin/../lib/gcc/arm-eabi/4.7.0/../../../../arm-eabi/lib/thumb\libstdc++.a(string-inst.o)
 .ARM.exidx.text._ZNKSs6substrEjj
                0x0209e120        0x8 c:/devkitpro/devkitarm/bin/../lib/gcc/arm-eabi/4.7.0/../../../../arm-eabi/lib/thumb\libstdc++.a(string-inst.o)
 .ARM.exidx.text._ZNSs12_S_constructIPKcEEPcT_S3_RKSaIcESt20forward_iterator_tag
                0x0209e128        0x8 c:/devkitpro/devkitarm/bin/../lib/gcc/arm-eabi/4.7.0/../../../../arm-eabi/lib/thumb\libstdc++.a(string-inst.o)
 .ARM.exidx.text._ZNSsC2EPKcjRKSaIcE
                0x0209e130        0x8 c:/devkitpro/devkitarm/bin/../lib/gcc/arm-eabi/4.7.0/../../../../arm-eabi/lib/thumb\libstdc++.a(string-inst.o)
 .ARM.exidx.text._ZNSs7replaceEjjPKcj
                0x0209e138        0x8 c:/devkitpro/devkitarm/bin/../lib/gcc/arm-eabi/4.7.0/../../../../arm-eabi/lib/thumb\libstdc++.a(string-inst.o)
 .ARM.exidx.text._ZNSs7replaceEN9__gnu_cxx17__normal_iteratorIPcSsEES2_NS0_IPKcSsEES5_
                0x0209e140        0x8 c:/devkitpro/devkitarm/bin/../lib/gcc/arm-eabi/4.7.0/../../../../arm-eabi/lib/thumb\libstdc++.a(string-inst.o)
 .ARM.exidx.text._ZNSs7replaceEN9__gnu_cxx17__normal_iteratorIPcSsEES2_S2_S2_
                0x0209e148        0x0 c:/devkitpro/devkitarm/bin/../lib/gcc/arm-eabi/4.7.0/../../../../arm-eabi/lib/thumb\libstdc++.a(string-inst.o)
                                  0x8 (size before relaxing)
 .ARM.exidx.text._ZNSs7replaceEN9__gnu_cxx17__normal_iteratorIPcSsEES2_PKcS4_
                0x0209e148        0x0 c:/devkitpro/devkitarm/bin/../lib/gcc/arm-eabi/4.7.0/../../../../arm-eabi/lib/thumb\libstdc++.a(string-inst.o)
                                  0x8 (size before relaxing)
 .ARM.exidx.text._ZNSs7replaceEN9__gnu_cxx17__normal_iteratorIPcSsEES2_S1_S1_
                0x0209e148        0x0 c:/devkitpro/devkitarm/bin/../lib/gcc/arm-eabi/4.7.0/../../../../arm-eabi/lib/thumb\libstdc++.a(string-inst.o)
                                  0x8 (size before relaxing)
 .ARM.exidx.text._ZNSs7replaceEN9__gnu_cxx17__normal_iteratorIPcSsEES2_PKcj
                0x0209e148        0x0 c:/devkitpro/devkitarm/bin/../lib/gcc/arm-eabi/4.7.0/../../../../arm-eabi/lib/thumb\libstdc++.a(string-inst.o)
                                  0x8 (size before relaxing)
 .ARM.exidx.text._ZNSs7replaceEjjPKc
                0x0209e148        0x8 c:/devkitpro/devkitarm/bin/../lib/gcc/arm-eabi/4.7.0/../../../../arm-eabi/lib/thumb\libstdc++.a(string-inst.o)
 .ARM.exidx.text._ZNSs7replaceEjjRKSsjj
                0x0209e150        0x8 c:/devkitpro/devkitarm/bin/../lib/gcc/arm-eabi/4.7.0/../../../../arm-eabi/lib/thumb\libstdc++.a(string-inst.o)
 .ARM.exidx.text._ZNSs7replaceEjjRKSs
                0x0209e158        0x8 c:/devkitpro/devkitarm/bin/../lib/gcc/arm-eabi/4.7.0/../../../../arm-eabi/lib/thumb\libstdc++.a(string-inst.o)
 .ARM.exidx.text._ZNSs7replaceEN9__gnu_cxx17__normal_iteratorIPcSsEES2_PKc
                0x0209e160        0x8 c:/devkitpro/devkitarm/bin/../lib/gcc/arm-eabi/4.7.0/../../../../arm-eabi/lib/thumb\libstdc++.a(string-inst.o)
 .ARM.exidx.text._ZNSs7replaceEN9__gnu_cxx17__normal_iteratorIPcSsEES2_RKSs
                0x0209e168        0x8 c:/devkitpro/devkitarm/bin/../lib/gcc/arm-eabi/4.7.0/../../../../arm-eabi/lib/thumb\libstdc++.a(string-inst.o)
 .ARM.exidx.text._ZNSs7replaceEN9__gnu_cxx17__normal_iteratorIPcSsEES2_St16initializer_listIcE
                0x0209e170        0x8 c:/devkitpro/devkitarm/bin/../lib/gcc/arm-eabi/4.7.0/../../../../arm-eabi/lib/thumb\libstdc++.a(string-inst.o)
 .ARM.exidx.text._ZNSsC2IPKcEET_S2_RKSaIcE
                0x0209e178        0x8 c:/devkitpro/devkitarm/bin/../lib/gcc/arm-eabi/4.7.0/../../../../arm-eabi/lib/thumb\libstdc++.a(string-inst.o)
 .ARM.exidx.text._ZNSsC2ESt16initializer_listIcERKSaIcE
                0x0209e180        0x8 c:/devkitpro/devkitarm/bin/../lib/gcc/arm-eabi/4.7.0/../../../../arm-eabi/lib/thumb\libstdc++.a(string-inst.o)
 .ARM.exidx.text._ZNSsC2EPKcRKSaIcE
                0x0209e188        0x8 c:/devkitpro/devkitarm/bin/../lib/gcc/arm-eabi/4.7.0/../../../../arm-eabi/lib/thumb\libstdc++.a(string-inst.o)
 .ARM.exidx.text._ZN9__gnu_cxxeqIPcSsEEbRKNS_17__normal_iteratorIT_T0_EES7_
                0x0209e190        0x8 c:/devkitpro/devkitarm/bin/../lib/gcc/arm-eabi/4.7.0/../../../../arm-eabi/lib/thumb\libstdc++.a(string-inst.o)
 .ARM.exidx.text._ZN9__gnu_cxxeqIPKcSsEEbRKNS_17__normal_iteratorIT_T0_EES8_
                0x0209e198        0x0 c:/devkitpro/devkitarm/bin/../lib/gcc/arm-eabi/4.7.0/../../../../arm-eabi/lib/thumb\libstdc++.a(string-inst.o)
                                  0x8 (size before relaxing)
 .ARM.exidx.text._ZSt21__throw_bad_exceptionv
                0x0209e198        0x8 c:/devkitpro/devkitarm/bin/../lib/gcc/arm-eabi/4.7.0/../../../../arm-eabi/lib/thumb\libstdc++.a(functexcept.o)
 .ARM.exidx.text._ZSt17__throw_bad_allocv
                0x0209e1a0        0x8 c:/devkitpro/devkitarm/bin/../lib/gcc/arm-eabi/4.7.0/../../../../arm-eabi/lib/thumb\libstdc++.a(functexcept.o)
 .ARM.exidx.text._ZSt16__throw_bad_castv
                0x0209e1a8        0x8 c:/devkitpro/devkitarm/bin/../lib/gcc/arm-eabi/4.7.0/../../../../arm-eabi/lib/thumb\libstdc++.a(functexcept.o)
 .ARM.exidx.text._ZSt18__throw_bad_typeidv
                0x0209e1b0        0x8 c:/devkitpro/devkitarm/bin/../lib/gcc/arm-eabi/4.7.0/../../../../arm-eabi/lib/thumb\libstdc++.a(functexcept.o)
 .ARM.exidx.text._ZSt19__throw_logic_errorPKc
                0x0209e1b8        0x8 c:/devkitpro/devkitarm/bin/../lib/gcc/arm-eabi/4.7.0/../../../../arm-eabi/lib/thumb\libstdc++.a(functexcept.o)
 .ARM.exidx.text._ZSt20__throw_domain_errorPKc
                0x0209e1c0        0x8 c:/devkitpro/devkitarm/bin/../lib/gcc/arm-eabi/4.7.0/../../../../arm-eabi/lib/thumb\libstdc++.a(functexcept.o)
 .ARM.exidx.text._ZSt24__throw_invalid_argumentPKc
                0x0209e1c8        0x8 c:/devkitpro/devkitarm/bin/../lib/gcc/arm-eabi/4.7.0/../../../../arm-eabi/lib/thumb\libstdc++.a(functexcept.o)
 .ARM.exidx.text._ZSt20__throw_length_errorPKc
                0x0209e1d0        0x8 c:/devkitpro/devkitarm/bin/../lib/gcc/arm-eabi/4.7.0/../../../../arm-eabi/lib/thumb\libstdc++.a(functexcept.o)
 .ARM.exidx.text._ZSt20__throw_out_of_rangePKc
                0x0209e1d8        0x8 c:/devkitpro/devkitarm/bin/../lib/gcc/arm-eabi/4.7.0/../../../../arm-eabi/lib/thumb\libstdc++.a(functexcept.o)
 .ARM.exidx.text._ZSt21__throw_runtime_errorPKc
                0x0209e1e0        0x8 c:/devkitpro/devkitarm/bin/../lib/gcc/arm-eabi/4.7.0/../../../../arm-eabi/lib/thumb\libstdc++.a(functexcept.o)
 .ARM.exidx.text._ZSt19__throw_range_errorPKc
                0x0209e1e8        0x8 c:/devkitpro/devkitarm/bin/../lib/gcc/arm-eabi/4.7.0/../../../../arm-eabi/lib/thumb\libstdc++.a(functexcept.o)
 .ARM.exidx.text._ZSt22__throw_overflow_errorPKc
                0x0209e1f0        0x8 c:/devkitpro/devkitarm/bin/../lib/gcc/arm-eabi/4.7.0/../../../../arm-eabi/lib/thumb\libstdc++.a(functexcept.o)
 .ARM.exidx.text._ZSt23__throw_underflow_errorPKc
                0x0209e1f8        0x8 c:/devkitpro/devkitarm/bin/../lib/gcc/arm-eabi/4.7.0/../../../../arm-eabi/lib/thumb\libstdc++.a(functexcept.o)
 .ARM.exidx.text._ZSt19__throw_ios_failurePKc
                0x0209e200        0x8 c:/devkitpro/devkitarm/bin/../lib/gcc/arm-eabi/4.7.0/../../../../arm-eabi/lib/thumb\libstdc++.a(functexcept.o)
 .ARM.exidx.text._ZSt20__throw_system_errori
                0x0209e208        0x8 c:/devkitpro/devkitarm/bin/../lib/gcc/arm-eabi/4.7.0/../../../../arm-eabi/lib/thumb\libstdc++.a(functexcept.o)
 .ARM.exidx.text._ZSt20__throw_future_errori
                0x0209e210        0x8 c:/devkitpro/devkitarm/bin/../lib/gcc/arm-eabi/4.7.0/../../../../arm-eabi/lib/thumb\libstdc++.a(functexcept.o)
 .ARM.exidx.text._ZSt25__throw_bad_function_callv
                0x0209e218        0x8 c:/devkitpro/devkitarm/bin/../lib/gcc/arm-eabi/4.7.0/../../../../arm-eabi/lib/thumb\libstdc++.a(functexcept.o)
 .ARM.exidx.text._ZSt19__throw_regex_errorNSt15regex_constants10error_typeE
                0x0209e220       0x10 c:/devkitpro/devkitarm/bin/../lib/gcc/arm-eabi/4.7.0/../../../../arm-eabi/lib/thumb\libstdc++.a(functexcept.o)
                                  0x8 (size before relaxing)
 .ARM.exidx.text.__cxa_type_match
                0x0209e230        0x8 c:/devkitpro/devkitarm/bin/../lib/gcc/arm-eabi/4.7.0/../../../../arm-eabi/lib/thumb\libstdc++.a(eh_arm.o)
 .ARM.exidx.text.__cxa_begin_cleanup
                0x0209e238        0x8 c:/devkitpro/devkitarm/bin/../lib/gcc/arm-eabi/4.7.0/../../../../arm-eabi/lib/thumb\libstdc++.a(eh_arm.o)
 .ARM.exidx.text.__gnu_end_cleanup
                0x0209e240        0x0 c:/devkitpro/devkitarm/bin/../lib/gcc/arm-eabi/4.7.0/../../../../arm-eabi/lib/thumb\libstdc++.a(eh_arm.o)
                                  0x8 (size before relaxing)
 .ARM.exidx.text._ZL23__gxx_exception_cleanup19_Unwind_Reason_CodeP21_Unwind_Control_Block
                0x0209e240        0x8 c:/devkitpro/devkitarm/bin/../lib/gcc/arm-eabi/4.7.0/../../../../arm-eabi/lib/thumb\libstdc++.a(eh_throw.o)
 .ARM.exidx.text.__cxa_throw
                0x0209e248        0x8 c:/devkitpro/devkitarm/bin/../lib/gcc/arm-eabi/4.7.0/../../../../arm-eabi/lib/thumb\libstdc++.a(eh_throw.o)
 .ARM.exidx.text.__cxa_rethrow
                0x0209e250        0x8 c:/devkitpro/devkitarm/bin/../lib/gcc/arm-eabi/4.7.0/../../../../arm-eabi/lib/thumb\libstdc++.a(eh_throw.o)
 .ARM.exidx.text.__cxa_pure_virtual
                0x0209e258        0x8 c:/devkitpro/devkitarm/bin/../lib/gcc/arm-eabi/4.7.0/../../../../arm-eabi/lib/thumb\libstdc++.a(pure.o)
 .ARM.exidx.text.__cxa_deleted_virtual
                0x0209e260        0x8 c:/devkitpro/devkitarm/bin/../lib/gcc/arm-eabi/4.7.0/../../../../arm-eabi/lib/thumb\libstdc++.a(pure.o)
 .ARM.exidx.text._ZNKSt8bad_cast4whatEv
                0x0209e268        0x8 c:/devkitpro/devkitarm/bin/../lib/gcc/arm-eabi/4.7.0/../../../../arm-eabi/lib/thumb\libstdc++.a(bad_cast.o)
 .ARM.exidx.text._ZNSt8bad_castD2Ev
                0x0209e270        0x0 c:/devkitpro/devkitarm/bin/../lib/gcc/arm-eabi/4.7.0/../../../../arm-eabi/lib/thumb\libstdc++.a(bad_cast.o)
                                  0x8 (size before relaxing)
 .ARM.exidx.text._ZNSt8bad_castD0Ev
                0x0209e270        0x0 c:/devkitpro/devkitarm/bin/../lib/gcc/arm-eabi/4.7.0/../../../../arm-eabi/lib/thumb\libstdc++.a(bad_cast.o)
                                  0x8 (size before relaxing)
 .ARM.exidx.text.__cxa_get_globals_fast
                0x0209e270        0x0 c:/devkitpro/devkitarm/bin/../lib/gcc/arm-eabi/4.7.0/../../../../arm-eabi/lib/thumb\libstdc++.a(eh_globals.o)
                                  0x8 (size before relaxing)
 .ARM.exidx.text.__cxa_get_globals
                0x0209e270        0x0 c:/devkitpro/devkitarm/bin/../lib/gcc/arm-eabi/4.7.0/../../../../arm-eabi/lib/thumb\libstdc++.a(eh_globals.o)
                                  0x8 (size before relaxing)
 .ARM.exidx.text.__cxa_get_exception_ptr
                0x0209e270        0x0 c:/devkitpro/devkitarm/bin/../lib/gcc/arm-eabi/4.7.0/../../../../arm-eabi/lib/thumb\libstdc++.a(eh_catch.o)
                                  0x8 (size before relaxing)
 .ARM.exidx.text.__cxa_begin_catch
                0x0209e270        0x8 c:/devkitpro/devkitarm/bin/../lib/gcc/arm-eabi/4.7.0/../../../../arm-eabi/lib/thumb\libstdc++.a(eh_catch.o)
 .ARM.exidx.text.__cxa_end_catch
                0x0209e278        0x8 c:/devkitpro/devkitarm/bin/../lib/gcc/arm-eabi/4.7.0/../../../../arm-eabi/lib/thumb\libstdc++.a(eh_catch.o)
 .ARM.exidx.text._ZSt18uncaught_exceptionv
                0x0209e280        0x8 c:/devkitpro/devkitarm/bin/../lib/gcc/arm-eabi/4.7.0/../../../../arm-eabi/lib/thumb\libstdc++.a(eh_catch.o)
 .ARM.exidx.text._ZNK10__cxxabiv120__si_class_type_info12__do_dyncastEiNS_17__class_type_info10__sub_kindEPKS1_PKvS4_S6_RNS1_16__dyncast_resultE
                0x0209e288        0x8 c:/devkitpro/devkitarm/bin/../lib/gcc/arm-eabi/4.7.0/../../../../arm-eabi/lib/thumb\libstdc++.a(si_class_type_info.o)
 .ARM.exidx.text._ZN10__cxxabiv120__si_class_type_infoD2Ev
                0x0209e290        0x8 c:/devkitpro/devkitarm/bin/../lib/gcc/arm-eabi/4.7.0/../../../../arm-eabi/lib/thumb\libstdc++.a(si_class_type_info.o)
 .ARM.exidx.text._ZN10__cxxabiv120__si_class_type_infoD0Ev
                0x0209e298        0x0 c:/devkitpro/devkitarm/bin/../lib/gcc/arm-eabi/4.7.0/../../../../arm-eabi/lib/thumb\libstdc++.a(si_class_type_info.o)
                                  0x8 (size before relaxing)
 .ARM.exidx.text._ZNK10__cxxabiv120__si_class_type_info11__do_upcastEPKNS_17__class_type_infoEPKvRNS1_15__upcast_resultE
                0x0209e298        0x8 c:/devkitpro/devkitarm/bin/../lib/gcc/arm-eabi/4.7.0/../../../../arm-eabi/lib/thumb\libstdc++.a(si_class_type_info.o)
 .ARM.exidx.text._ZNK10__cxxabiv120__si_class_type_info20__do_find_public_srcEiPKvPKNS_17__class_type_infoES2_
                0x0209e2a0        0x8 c:/devkitpro/devkitarm/bin/../lib/gcc/arm-eabi/4.7.0/../../../../arm-eabi/lib/thumb\libstdc++.a(si_class_type_info.o)
 .ARM.exidx.text._ZNSt9type_infoD2Ev
                0x0209e2a8        0x8 c:/devkitpro/devkitarm/bin/../lib/gcc/arm-eabi/4.7.0/../../../../arm-eabi/lib/thumb\libstdc++.a(tinfo.o)
 .ARM.exidx.text._ZNKSt9type_info14__is_pointer_pEv
                0x0209e2b0        0x0 c:/devkitpro/devkitarm/bin/../lib/gcc/arm-eabi/4.7.0/../../../../arm-eabi/lib/thumb\libstdc++.a(tinfo.o)
                                  0x8 (size before relaxing)
 .ARM.exidx.text._ZNKSt9type_info15__is_function_pEv
                0x0209e2b0        0x0 c:/devkitpro/devkitarm/bin/../lib/gcc/arm-eabi/4.7.0/../../../../arm-eabi/lib/thumb\libstdc++.a(tinfo.o)
                                  0x8 (size before relaxing)
 .ARM.exidx.text._ZNKSt9type_info11__do_upcastEPKN10__cxxabiv117__class_type_infoEPPv
                0x0209e2b0        0x0 c:/devkitpro/devkitarm/bin/../lib/gcc/arm-eabi/4.7.0/../../../../arm-eabi/lib/thumb\libstdc++.a(tinfo.o)
                                  0x8 (size before relaxing)
 .ARM.exidx.text._ZNSt9type_infoD0Ev
                0x0209e2b0        0x0 c:/devkitpro/devkitarm/bin/../lib/gcc/arm-eabi/4.7.0/../../../../arm-eabi/lib/thumb\libstdc++.a(tinfo.o)
                                  0x8 (size before relaxing)
 .ARM.exidx.text._ZNKSt9type_infoeqERKS_
                0x0209e2b0        0x0 c:/devkitpro/devkitarm/bin/../lib/gcc/arm-eabi/4.7.0/../../../../arm-eabi/lib/thumb\libstdc++.a(tinfo.o)
                                  0x8 (size before relaxing)
 .ARM.exidx.text._ZNKSt9type_info10__do_catchEPKS_PPvj
                0x0209e2b0        0x0 c:/devkitpro/devkitarm/bin/../lib/gcc/arm-eabi/4.7.0/../../../../arm-eabi/lib/thumb\libstdc++.a(tinfo.o)
                                  0x8 (size before relaxing)
 .ARM.exidx.text._ZNKSt10bad_typeid4whatEv
                0x0209e2b0        0x0 c:/devkitpro/devkitarm/bin/../lib/gcc/arm-eabi/4.7.0/../../../../arm-eabi/lib/thumb\libstdc++.a(bad_typeid.o)
                                  0x8 (size before relaxing)
 .ARM.exidx.text._ZNSt10bad_typeidD2Ev
                0x0209e2b0        0x0 c:/devkitpro/devkitarm/bin/../lib/gcc/arm-eabi/4.7.0/../../../../arm-eabi/lib/thumb\libstdc++.a(bad_typeid.o)
                                  0x8 (size before relaxing)
 .ARM.exidx.text._ZNSt10bad_typeidD0Ev
                0x0209e2b0        0x0 c:/devkitpro/devkitarm/bin/../lib/gcc/arm-eabi/4.7.0/../../../../arm-eabi/lib/thumb\libstdc++.a(bad_typeid.o)
                                  0x8 (size before relaxing)
 .ARM.exidx.text._ZNKSt8ios_base7failure4whatEv
                0x0209e2b0        0x0 c:/devkitpro/devkitarm/bin/../lib/gcc/arm-eabi/4.7.0/../../../../arm-eabi/lib/thumb\libstdc++.a(ios_failure.o)
                                  0x8 (size before relaxing)
 .ARM.exidx.text._ZNSt8ios_base7failureD2Ev
                0x0209e2b0        0x0 c:/devkitpro/devkitarm/bin/../lib/gcc/arm-eabi/4.7.0/../../../../arm-eabi/lib/thumb\libstdc++.a(ios_failure.o)
                                  0x8 (size before relaxing)
 .ARM.exidx.text._ZNSt8ios_base7failureD0Ev
                0x0209e2b0        0x0 c:/devkitpro/devkitarm/bin/../lib/gcc/arm-eabi/4.7.0/../../../../arm-eabi/lib/thumb\libstdc++.a(ios_failure.o)
                                  0x8 (size before relaxing)
 .ARM.exidx.text._ZNSt8ios_base7failureC2ERKSs
                0x0209e2b0        0x8 c:/devkitpro/devkitarm/bin/../lib/gcc/arm-eabi/4.7.0/../../../../arm-eabi/lib/thumb\libstdc++.a(ios_failure.o)
 .ARM.exidx.text._ZNKSt11logic_error4whatEv
                0x0209e2b8        0x8 c:/devkitpro/devkitarm/bin/../lib/gcc/arm-eabi/4.7.0/../../../../arm-eabi/lib/thumb\libstdc++.a(stdexcept.o)
 .ARM.exidx.text._ZNKSt13runtime_error4whatEv
                0x0209e2c0        0x0 c:/devkitpro/devkitarm/bin/../lib/gcc/arm-eabi/4.7.0/../../../../arm-eabi/lib/thumb\libstdc++.a(stdexcept.o)
                                  0x8 (size before relaxing)
 .ARM.exidx.text._ZNSt11logic_errorD2Ev
                0x0209e2c0        0x0 c:/devkitpro/devkitarm/bin/../lib/gcc/arm-eabi/4.7.0/../../../../arm-eabi/lib/thumb\libstdc++.a(stdexcept.o)
                                  0x8 (size before relaxing)
 .ARM.exidx.text._ZNSt11logic_errorD0Ev
                0x0209e2c0        0x0 c:/devkitpro/devkitarm/bin/../lib/gcc/arm-eabi/4.7.0/../../../../arm-eabi/lib/thumb\libstdc++.a(stdexcept.o)
                                  0x8 (size before relaxing)
 .ARM.exidx.text._ZNSt12out_of_rangeD2Ev
                0x0209e2c0        0x0 c:/devkitpro/devkitarm/bin/../lib/gcc/arm-eabi/4.7.0/../../../../arm-eabi/lib/thumb\libstdc++.a(stdexcept.o)
                                  0x8 (size before relaxing)
 .ARM.exidx.text._ZNSt12out_of_rangeD0Ev
                0x0209e2c0        0x0 c:/devkitpro/devkitarm/bin/../lib/gcc/arm-eabi/4.7.0/../../../../arm-eabi/lib/thumb\libstdc++.a(stdexcept.o)
                                  0x8 (size before relaxing)
 .ARM.exidx.text._ZNSt12length_errorD2Ev
                0x0209e2c0        0x0 c:/devkitpro/devkitarm/bin/../lib/gcc/arm-eabi/4.7.0/../../../../arm-eabi/lib/thumb\libstdc++.a(stdexcept.o)
                                  0x8 (size before relaxing)
 .ARM.exidx.text._ZNSt12length_errorD0Ev
                0x0209e2c0        0x0 c:/devkitpro/devkitarm/bin/../lib/gcc/arm-eabi/4.7.0/../../../../arm-eabi/lib/thumb\libstdc++.a(stdexcept.o)
                                  0x8 (size before relaxing)
 .ARM.exidx.text._ZNSt16invalid_argumentD2Ev
                0x0209e2c0        0x0 c:/devkitpro/devkitarm/bin/../lib/gcc/arm-eabi/4.7.0/../../../../arm-eabi/lib/thumb\libstdc++.a(stdexcept.o)
                                  0x8 (size before relaxing)
 .ARM.exidx.text._ZNSt16invalid_argumentD0Ev
                0x0209e2c0        0x0 c:/devkitpro/devkitarm/bin/../lib/gcc/arm-eabi/4.7.0/../../../../arm-eabi/lib/thumb\libstdc++.a(stdexcept.o)
                                  0x8 (size before relaxing)
 .ARM.exidx.text._ZNSt12domain_errorD2Ev
                0x0209e2c0        0x0 c:/devkitpro/devkitarm/bin/../lib/gcc/arm-eabi/4.7.0/../../../../arm-eabi/lib/thumb\libstdc++.a(stdexcept.o)
                                  0x8 (size before relaxing)
 .ARM.exidx.text._ZNSt12domain_errorD0Ev
                0x0209e2c0        0x0 c:/devkitpro/devkitarm/bin/../lib/gcc/arm-eabi/4.7.0/../../../../arm-eabi/lib/thumb\libstdc++.a(stdexcept.o)
                                  0x8 (size before relaxing)
 .ARM.exidx.text._ZNSt13runtime_errorD2Ev
                0x0209e2c0        0x0 c:/devkitpro/devkitarm/bin/../lib/gcc/arm-eabi/4.7.0/../../../../arm-eabi/lib/thumb\libstdc++.a(stdexcept.o)
                                  0x8 (size before relaxing)
 .ARM.exidx.text._ZNSt13runtime_errorD0Ev
                0x0209e2c0        0x0 c:/devkitpro/devkitarm/bin/../lib/gcc/arm-eabi/4.7.0/../../../../arm-eabi/lib/thumb\libstdc++.a(stdexcept.o)
                                  0x8 (size before relaxing)
 .ARM.exidx.text._ZNSt15underflow_errorD2Ev
                0x0209e2c0        0x0 c:/devkitpro/devkitarm/bin/../lib/gcc/arm-eabi/4.7.0/../../../../arm-eabi/lib/thumb\libstdc++.a(stdexcept.o)
                                  0x8 (size before relaxing)
 .ARM.exidx.text._ZNSt15underflow_errorD0Ev
                0x0209e2c0        0x0 c:/devkitpro/devkitarm/bin/../lib/gcc/arm-eabi/4.7.0/../../../../arm-eabi/lib/thumb\libstdc++.a(stdexcept.o)
                                  0x8 (size before relaxing)
 .ARM.exidx.text._ZNSt14overflow_errorD2Ev
                0x0209e2c0        0x0 c:/devkitpro/devkitarm/bin/../lib/gcc/arm-eabi/4.7.0/../../../../arm-eabi/lib/thumb\libstdc++.a(stdexcept.o)
                                  0x8 (size before relaxing)
 .ARM.exidx.text._ZNSt14overflow_errorD0Ev
                0x0209e2c0        0x0 c:/devkitpro/devkitarm/bin/../lib/gcc/arm-eabi/4.7.0/../../../../arm-eabi/lib/thumb\libstdc++.a(stdexcept.o)
                                  0x8 (size before relaxing)
 .ARM.exidx.text._ZNSt11range_errorD2Ev
                0x0209e2c0        0x0 c:/devkitpro/devkitarm/bin/../lib/gcc/arm-eabi/4.7.0/../../../../arm-eabi/lib/thumb\libstdc++.a(stdexcept.o)
                                  0x8 (size before relaxing)
 .ARM.exidx.text._ZNSt11range_errorD0Ev
                0x0209e2c0        0x0 c:/devkitpro/devkitarm/bin/../lib/gcc/arm-eabi/4.7.0/../../../../arm-eabi/lib/thumb\libstdc++.a(stdexcept.o)
                                  0x8 (size before relaxing)
 .ARM.exidx.text._ZNSt11logic_errorC2ERKSs
                0x0209e2c0        0x8 c:/devkitpro/devkitarm/bin/../lib/gcc/arm-eabi/4.7.0/../../../../arm-eabi/lib/thumb\libstdc++.a(stdexcept.o)
 .ARM.exidx.text._ZNSt12domain_errorC2ERKSs
                0x0209e2c8        0x8 c:/devkitpro/devkitarm/bin/../lib/gcc/arm-eabi/4.7.0/../../../../arm-eabi/lib/thumb\libstdc++.a(stdexcept.o)
 .ARM.exidx.text._ZNSt16invalid_argumentC2ERKSs
                0x0209e2d0        0x0 c:/devkitpro/devkitarm/bin/../lib/gcc/arm-eabi/4.7.0/../../../../arm-eabi/lib/thumb\libstdc++.a(stdexcept.o)
                                  0x8 (size before relaxing)
 .ARM.exidx.text._ZNSt12length_errorC2ERKSs
                0x0209e2d0        0x0 c:/devkitpro/devkitarm/bin/../lib/gcc/arm-eabi/4.7.0/../../../../arm-eabi/lib/thumb\libstdc++.a(stdexcept.o)
                                  0x8 (size before relaxing)
 .ARM.exidx.text._ZNSt12out_of_rangeC2ERKSs
                0x0209e2d0        0x0 c:/devkitpro/devkitarm/bin/../lib/gcc/arm-eabi/4.7.0/../../../../arm-eabi/lib/thumb\libstdc++.a(stdexcept.o)
                                  0x8 (size before relaxing)
 .ARM.exidx.text._ZNSt13runtime_errorC2ERKSs
                0x0209e2d0        0x8 c:/devkitpro/devkitarm/bin/../lib/gcc/arm-eabi/4.7.0/../../../../arm-eabi/lib/thumb\libstdc++.a(stdexcept.o)
 .ARM.exidx.text._ZNSt11range_errorC2ERKSs
                0x0209e2d8        0x8 c:/devkitpro/devkitarm/bin/../lib/gcc/arm-eabi/4.7.0/../../../../arm-eabi/lib/thumb\libstdc++.a(stdexcept.o)
 .ARM.exidx.text._ZNSt14overflow_errorC2ERKSs
                0x0209e2e0        0x0 c:/devkitpro/devkitarm/bin/../lib/gcc/arm-eabi/4.7.0/../../../../arm-eabi/lib/thumb\libstdc++.a(stdexcept.o)
                                  0x8 (size before relaxing)
 .ARM.exidx.text._ZNSt15underflow_errorC2ERKSs
                0x0209e2e0        0x0 c:/devkitpro/devkitarm/bin/../lib/gcc/arm-eabi/4.7.0/../../../../arm-eabi/lib/thumb\libstdc++.a(stdexcept.o)
                                  0x8 (size before relaxing)
 .ARM.exidx.text._ZNSt17bad_function_callD2Ev
                0x0209e2e0        0x8 c:/devkitpro/devkitarm/bin/../lib/gcc/arm-eabi/4.7.0/../../../../arm-eabi/lib/thumb\libstdc++.a(functional.o)
 .ARM.exidx.text._ZNSt17bad_function_callD0Ev
                0x0209e2e8        0x0 c:/devkitpro/devkitarm/bin/../lib/gcc/arm-eabi/4.7.0/../../../../arm-eabi/lib/thumb\libstdc++.a(functional.o)
                                  0x8 (size before relaxing)
 .ARM.exidx.text._ZNK12_GLOBAL__N_121future_error_category4nameEv
                0x0209e2e8        0x0 c:/devkitpro/devkitarm/bin/../lib/gcc/arm-eabi/4.7.0/../../../../arm-eabi/lib/thumb\libstdc++.a(future.o)
                                  0x8 (size before relaxing)
 .ARM.exidx.text._ZNSt12future_errorD2Ev
                0x0209e2e8        0x0 c:/devkitpro/devkitarm/bin/../lib/gcc/arm-eabi/4.7.0/../../../../arm-eabi/lib/thumb\libstdc++.a(future.o)
                                  0x8 (size before relaxing)
 .ARM.exidx.text._ZNSt12future_errorD0Ev
                0x0209e2e8        0x0 c:/devkitpro/devkitarm/bin/../lib/gcc/arm-eabi/4.7.0/../../../../arm-eabi/lib/thumb\libstdc++.a(future.o)
                                  0x8 (size before relaxing)
 .ARM.exidx.text._ZN12_GLOBAL__N_121future_error_categoryD2Ev
                0x0209e2e8        0x0 c:/devkitpro/devkitarm/bin/../lib/gcc/arm-eabi/4.7.0/../../../../arm-eabi/lib/thumb\libstdc++.a(future.o)
                                  0x8 (size before relaxing)
 .ARM.exidx.text._ZN12_GLOBAL__N_121future_error_categoryD0Ev
                0x0209e2e8        0x0 c:/devkitpro/devkitarm/bin/../lib/gcc/arm-eabi/4.7.0/../../../../arm-eabi/lib/thumb\libstdc++.a(future.o)
                                  0x8 (size before relaxing)
 .ARM.exidx.text._ZNKSt12future_error4whatEv
                0x0209e2e8        0x8 c:/devkitpro/devkitarm/bin/../lib/gcc/arm-eabi/4.7.0/../../../../arm-eabi/lib/thumb\libstdc++.a(future.o)
 .ARM.exidx.text._ZNK12_GLOBAL__N_121future_error_category7messageEi
                0x0209e2f0        0x8 c:/devkitpro/devkitarm/bin/../lib/gcc/arm-eabi/4.7.0/../../../../arm-eabi/lib/thumb\libstdc++.a(future.o)
 .ARM.exidx.text._ZSt15future_categoryv
                0x0209e2f8        0x8 c:/devkitpro/devkitarm/bin/../lib/gcc/arm-eabi/4.7.0/../../../../arm-eabi/lib/thumb\libstdc++.a(future.o)
 .ARM.exidx.text._ZNSt11regex_errorD2Ev
                0x0209e300        0x0 c:/devkitpro/devkitarm/bin/../lib/gcc/arm-eabi/4.7.0/../../../../arm-eabi/lib/thumb\libstdc++.a(regex.o)
                                  0x8 (size before relaxing)
 .ARM.exidx.text._ZNSt11regex_errorD0Ev
                0x0209e300        0x0 c:/devkitpro/devkitarm/bin/../lib/gcc/arm-eabi/4.7.0/../../../../arm-eabi/lib/thumb\libstdc++.a(regex.o)
                                  0x8 (size before relaxing)
 .ARM.exidx.text._ZNSt11regex_errorC2ENSt15regex_constants10error_typeE
                0x0209e300        0x8 c:/devkitpro/devkitarm/bin/../lib/gcc/arm-eabi/4.7.0/../../../../arm-eabi/lib/thumb\libstdc++.a(regex.o)
 .ARM.exidx.text._ZNK12_GLOBAL__N_122generic_error_category4nameEv
                0x0209e308        0x8 c:/devkitpro/devkitarm/bin/../lib/gcc/arm-eabi/4.7.0/../../../../arm-eabi/lib/thumb\libstdc++.a(system_error.o)
 .ARM.exidx.text._ZNK12_GLOBAL__N_121system_error_category4nameEv
                0x0209e310        0x0 c:/devkitpro/devkitarm/bin/../lib/gcc/arm-eabi/4.7.0/../../../../arm-eabi/lib/thumb\libstdc++.a(system_error.o)
                                  0x8 (size before relaxing)
 .ARM.exidx.text._ZNSt14error_categoryD2Ev
                0x0209e310        0x0 c:/devkitpro/devkitarm/bin/../lib/gcc/arm-eabi/4.7.0/../../../../arm-eabi/lib/thumb\libstdc++.a(system_error.o)
                                  0x8 (size before relaxing)
 .ARM.exidx.text._ZNKSt14error_category23default_error_conditionEi
                0x0209e310        0x0 c:/devkitpro/devkitarm/bin/../lib/gcc/arm-eabi/4.7.0/../../../../arm-eabi/lib/thumb\libstdc++.a(system_error.o)
                                  0x8 (size before relaxing)
 .ARM.exidx.text._ZNKSt14error_category10equivalentEiRKSt15error_condition
                0x0209e310        0x0 c:/devkitpro/devkitarm/bin/../lib/gcc/arm-eabi/4.7.0/../../../../arm-eabi/lib/thumb\libstdc++.a(system_error.o)
                                  0x8 (size before relaxing)
 .ARM.exidx.text._ZNKSt14error_category10equivalentERKSt10error_codei
                0x0209e310        0x0 c:/devkitpro/devkitarm/bin/../lib/gcc/arm-eabi/4.7.0/../../../../arm-eabi/lib/thumb\libstdc++.a(system_error.o)
                                  0x8 (size before relaxing)
 .ARM.exidx.text._ZN12_GLOBAL__N_121system_error_categoryD2Ev
                0x0209e310        0x0 c:/devkitpro/devkitarm/bin/../lib/gcc/arm-eabi/4.7.0/../../../../arm-eabi/lib/thumb\libstdc++.a(system_error.o)
                                  0x8 (size before relaxing)
 .ARM.exidx.text._ZN12_GLOBAL__N_122generic_error_categoryD2Ev
                0x0209e310        0x0 c:/devkitpro/devkitarm/bin/../lib/gcc/arm-eabi/4.7.0/../../../../arm-eabi/lib/thumb\libstdc++.a(system_error.o)
                                  0x8 (size before relaxing)
 .ARM.exidx.text._ZNK12_GLOBAL__N_122generic_error_category7messageEi
                0x0209e310        0x8 c:/devkitpro/devkitarm/bin/../lib/gcc/arm-eabi/4.7.0/../../../../arm-eabi/lib/thumb\libstdc++.a(system_error.o)
 .ARM.exidx.text._ZNK12_GLOBAL__N_121system_error_category7messageEi
                0x0209e318        0x0 c:/devkitpro/devkitarm/bin/../lib/gcc/arm-eabi/4.7.0/../../../../arm-eabi/lib/thumb\libstdc++.a(system_error.o)
                                  0x8 (size before relaxing)
 .ARM.exidx.text._ZNSt14error_categoryD0Ev
                0x0209e318        0x8 c:/devkitpro/devkitarm/bin/../lib/gcc/arm-eabi/4.7.0/../../../../arm-eabi/lib/thumb\libstdc++.a(system_error.o)
 .ARM.exidx.text._ZN12_GLOBAL__N_121system_error_categoryD0Ev
                0x0209e320        0x0 c:/devkitpro/devkitarm/bin/../lib/gcc/arm-eabi/4.7.0/../../../../arm-eabi/lib/thumb\libstdc++.a(system_error.o)
                                  0x8 (size before relaxing)
 .ARM.exidx.text._ZN12_GLOBAL__N_122generic_error_categoryD0Ev
                0x0209e320        0x0 c:/devkitpro/devkitarm/bin/../lib/gcc/arm-eabi/4.7.0/../../../../arm-eabi/lib/thumb\libstdc++.a(system_error.o)
                                  0x8 (size before relaxing)
 .ARM.exidx.text._ZNSt12system_errorD2Ev
                0x0209e320        0x0 c:/devkitpro/devkitarm/bin/../lib/gcc/arm-eabi/4.7.0/../../../../arm-eabi/lib/thumb\libstdc++.a(system_error.o)
                                  0x8 (size before relaxing)
 .ARM.exidx.text._ZNSt12system_errorD0Ev
                0x0209e320        0x0 c:/devkitpro/devkitarm/bin/../lib/gcc/arm-eabi/4.7.0/../../../../arm-eabi/lib/thumb\libstdc++.a(system_error.o)
                                  0x8 (size before relaxing)
 .ARM.exidx.text._ZNSt14error_categoryC2Ev
                0x0209e320        0x0 c:/devkitpro/devkitarm/bin/../lib/gcc/arm-eabi/4.7.0/../../../../arm-eabi/lib/thumb\libstdc++.a(system_error.o)
                                  0x8 (size before relaxing)
 .ARM.exidx.text._ZSt15system_categoryv
                0x0209e320        0x0 c:/devkitpro/devkitarm/bin/../lib/gcc/arm-eabi/4.7.0/../../../../arm-eabi/lib/thumb\libstdc++.a(system_error.o)
                                  0x8 (size before relaxing)
 .ARM.exidx.text._ZSt16generic_categoryv
                0x0209e320        0x0 c:/devkitpro/devkitarm/bin/../lib/gcc/arm-eabi/4.7.0/../../../../arm-eabi/lib/thumb\libstdc++.a(system_error.o)
                                  0x8 (size before relaxing)
 .ARM.exidx.text._ZNKSt10error_code23default_error_conditionEv
                0x0209e320        0x0 c:/devkitpro/devkitarm/bin/../lib/gcc/arm-eabi/4.7.0/../../../../arm-eabi/lib/thumb\libstdc++.a(system_error.o)
                                  0x8 (size before relaxing)
 .ARM.exidx.text.startup._GLOBAL__sub_I__ZNSt14error_categoryC2Ev
                0x0209e320        0x0 c:/devkitpro/devkitarm/bin/../lib/gcc/arm-eabi/4.7.0/../../../../arm-eabi/lib/thumb\libstdc++.a(system_error.o)
                                  0x8 (size before relaxing)
 .ARM.exidx.text.__cxa_guard_acquire
                0x0209e320        0x8 c:/devkitpro/devkitarm/bin/../lib/gcc/arm-eabi/4.7.0/../../../../arm-eabi/lib/thumb\libstdc++.a(guard.o)
 .ARM.exidx.text.__cxa_guard_abort
                0x0209e328        0x8 c:/devkitpro/devkitarm/bin/../lib/gcc/arm-eabi/4.7.0/../../../../arm-eabi/lib/thumb\libstdc++.a(guard.o)
 .ARM.exidx.text.__cxa_guard_release
                0x0209e330        0x0 c:/devkitpro/devkitarm/bin/../lib/gcc/arm-eabi/4.7.0/../../../../arm-eabi/lib/thumb\libstdc++.a(guard.o)
                                  0x8 (size before relaxing)
 .ARM.exidx.text._ZN9__gnu_cxx27__verbose_terminate_handlerEv
                0x0209e330        0x8 c:/devkitpro/devkitarm/bin/../lib/gcc/arm-eabi/4.7.0/../../../../arm-eabi/lib/thumb\libstdc++.a(vterminate.o)
 .ARM.exidx.text._ZN9__gnu_cxx20recursive_init_errorD2Ev
                0x0209e338        0x8 c:/devkitpro/devkitarm/bin/../lib/gcc/arm-eabi/4.7.0/../../../../arm-eabi/lib/thumb\libstdc++.a(guard_error.o)
 .ARM.exidx.text._ZN9__gnu_cxx20recursive_init_errorD0Ev
                0x0209e340        0x0 c:/devkitpro/devkitarm/bin/../lib/gcc/arm-eabi/4.7.0/../../../../arm-eabi/lib/thumb\libstdc++.a(guard_error.o)
                                  0x8 (size before relaxing)
 .ARM.exidx.text.__aeabi_atexit
                0x0209e340        0x0 c:/devkitpro/devkitarm/bin/../lib/gcc/arm-eabi/4.7.0/../../../../arm-eabi/lib/thumb\libstdc++.a(atexit_arm.o)
                                  0x8 (size before relaxing)
 .ARM.exidx.text.__cxa_current_exception_type
                0x0209e340        0x0 c:/devkitpro/devkitarm/bin/../lib/gcc/arm-eabi/4.7.0/../../../../arm-eabi/lib/thumb\libstdc++.a(eh_type.o)
                                  0x8 (size before relaxing)
 .ARM.exidx     0x0209dd58        0x8 c:/devkitpro/devkitarm/bin/../lib/gcc/arm-eabi/4.7.0/thumb\libgcc.a(_divdi3.o)
 .ARM.exidx     0x0209dd60       0x10 c:/devkitpro/devkitarm/bin/../lib/gcc/arm-eabi/4.7.0/thumb\libgcc.a(_udivdi3.o)
                                  0x8 (size before relaxing)
                0x0209e340                __exidx_end = .
                0x0209e340                . = ALIGN (0x4)
                0x0209e340                PROVIDE (__preinit_array_start, .)

.preinit_array
 *(.preinit_array)
                0x0209e340                PROVIDE (__preinit_array_end, .)
                0x0209e340                PROVIDE (__init_array_start, .)

.init_array     0x0209e340        0xc
 *(SORT(.init_array.*))
 *(.init_array)
 .init_array    0x0209e340        0x4 c:/devkitpro/devkitarm/bin/../lib/gcc/arm-eabi/4.7.0/thumb/crtbegin.o
 .init_array    0x0209e344        0x4 GBA.o
 .init_array    0x0209e348        0x4 c:/devkitpro/devkitarm/bin/../lib/gcc/arm-eabi/4.7.0/../../../../arm-eabi/lib/thumb\libstdc++.a(system_error.o)
                0x0209e34c                PROVIDE (__init_array_end, .)
                0x0209e34c                PROVIDE (__fini_array_start, .)

.fini_array     0x0209e34c        0x4
 *(.fini_array)
 .fini_array    0x0209e34c        0x4 c:/devkitpro/devkitarm/bin/../lib/gcc/arm-eabi/4.7.0/thumb/crtbegin.o
 *(SORT(.fini_array.*))
                0x0209e350                PROVIDE (__fini_array_end, .)

.ctors          0x0209e350        0x0
 *crtbegin.o(.ctors)
 *(EXCLUDE_FILE(*crtend.o) .ctors)
 *(SORT(.ctors.*))
 *(.ctors)
                0x0209e350                . = ALIGN (0x4)

.dtors          0x0209e350        0x0
 *crtbegin.o(.dtors)
 *(EXCLUDE_FILE(*crtend.o) .dtors)
 *(SORT(.dtors.*))
 *(.dtors)
                0x0209e350                . = ALIGN (0x4)

.eh_frame       0x0209e350        0x4
 *(.eh_frame)
 .eh_frame      0x0209e350        0x0 c:/devkitpro/devkitarm/bin/../lib/gcc/arm-eabi/4.7.0/thumb/crtbegin.o
 .eh_frame      0x0209e350        0x4 c:/devkitpro/devkitarm/bin/../lib/gcc/arm-eabi/4.7.0/thumb/crtend.o
                0x0209e354                . = ALIGN (0x4)

.gcc_except_table
                0x0209e354        0x0
 *(.gcc_except_table)
                0x0209e354                . = ALIGN (0x4)

.jcr            0x0209e354        0x4
 *(.jcr)
 .jcr           0x0209e354        0x0 c:/devkitpro/devkitarm/bin/../lib/gcc/arm-eabi/4.7.0/thumb/crtbegin.o
 .jcr           0x0209e354        0x4 c:/devkitpro/devkitarm/bin/../lib/gcc/arm-eabi/4.7.0/thumb/crtend.o

.got
 *(.got.plt)
 *(.got)
 *(.rel.got)

.ewram          0x0209e358        0x0
                0x0209e358                __ewram_start = ABSOLUTE (.)
 *(.ewram)
 *ewram.*(.text)
                0x0209e358                . = ALIGN (0x4)

.data           0x0209e358     0x16e4
                0x0209e358                __data_start = ABSOLUTE (.)
 *(.data)
 .data          0x0209e358        0x0 c:/devkitpro/devkitarm/bin/../lib/gcc/arm-eabi/4.7.0/../../../../arm-eabi/lib/thumb/ds_arm9_crt0.o
 .data          0x0209e358        0x0 c:/devkitpro/devkitarm/bin/../lib/gcc/arm-eabi/4.7.0/thumb/crti.o
 .data          0x0209e358        0x4 c:/devkitpro/devkitarm/bin/../lib/gcc/arm-eabi/4.7.0/thumb/crtbegin.o
                0x0209e358                __dso_handle
 .data          0x0209e35c        0x0 default_font.bin.o
 .data          0x0209e35c       0x44 EEprom.o
                0x0209e35c                eepromSize
                0x0209e360                eepromSaveData
 .data          0x0209e3a0       0x84 Flash.o
                0x0209e3a0                flashSize
                0x0209e41c                flashDeviceID
                0x0209e420                flashManufacturerID
 .data          0x0209e424      0x334 GBA.o
                0x0209e424                cpuSaveGameFunc
                0x0209e428                cpuSramEnabled
                0x0209e429                cpuFlashEnabled
                0x0209e42a                cpuEEPROMEnabled
                0x0209e42c                romSize
                0x0209e430                myROM
                0x0209e6e4                GBASystem
                0x0209e718                memoryWaitSeq32
                0x0209e728                memoryWaitSeq
                0x0209e738                memoryWait32
                0x0209e748                memoryWait
 .data          0x0209e758       0x28 Globals.o
                0x0209e758                P1
                0x0209e75a                BG3PD
                0x0209e75c                BG3PA
                0x0209e75e                BG2PD
                0x0209e760                BG2PA
                0x0209e762                cheatsEnabled
                0x0209e764                layerEnable
                0x0209e768                layerSettings
                0x0209e76c                parseDebug
                0x0209e76d                synchronize
                0x0209e770                frameSkip
                0x0209e774                stop
                0x0209e778                armMode
                0x0209e77c                armIrqEnable
                0x0209e77d                armState
 .data          0x0209e780        0x0 RTC.o
 .data          0x0209e780        0x0 Sram.o
 .data          0x0209e780        0x0 Util.o
 .data          0x0209e780        0x0 agbprint.o
 .data          0x0209e780      0x104 armdis.o
                0x0209e780                conditions
                0x0209e7c0                regs
                0x0209e800                shifts
                0x0209e814                armMultLoadStore
                0x0209e844                decVals
 .data          0x0209e884      0x200 bios.o
                0x0209e884                sineTable
 .data          0x0209ea84        0x4 cpumg.o
                0x0209ea84                size
 .data          0x0209ea88        0xc file_browse.o
                0x0209ea88                filetypsforemu
 .data          0x0209ea94       0x58 main.o
                0x0209ea94                seloptions
                0x0209eaa0                frameskip
                0x0209eaa4                savetypeschar
                0x0209eac0                memoryWaitrealram
                0x0209eae0                rootdirnames
 .data          0x0209eaec       0x18 mydebuger.o
                0x0209eaec                seloptionsshowmem
 .data          0x0209eb04        0x0 sound.o
 .data          0x0209eb04        0xc system.o
                0x0209eb04                dbgOutput
                0x0209eb08                dbgSignal
                0x0209eb0c                dbgMain
 .data          0x0209eb10       0x60 background.o
                0x0209eb10                bgTransform
                0x0209eb30                bgScrollTable
                0x0209eb50                bgControl
 .data          0x0209eb70       0x64 console.o
                0x0209eb70                currentConsole
                0x0209eb74                defaultConsole
 .data          0x0209ebd4        0x0 devkitpatcher.o
 .data          0x0209ebd4        0x4 dldi.o
                0x0209ebd4                io_dldi_data
 .data          0x0209ebd8        0x0 heapfuncs.o
 .data          0x0209ebd8        0x0 interrupts.o
 .data          0x0209ebd8        0x3 keys.o
 .data          0x0209ebdb        0x0 libnds_exit.o
 .data          0x0209ebdb        0x0 sassert.o
 .data          0x0209ebdb        0x0 trig.o
 .data          0x0209ebdb        0x0 video.o
 .data          0x0209ebdb        0x0 cpu_s.o
 .data          0x0209ebdb        0x0 dcache.o
 .data          0x0209ebdb        0x0 dldi_stub.o
 .data          0x0209ebdb        0x0 ex_s.o
 .data          0x0209ebdb        0x0 icache.o
 .data          0x0209ebdb        0x0 interruptDispatcher.o
 .data          0x0209ebdb        0x0 mpu_setup.o
 .data          0x0209ebdb        0x0 c:/devkitPro/libnds/lib\libfat.a(libfat.o)
 .data          0x0209ebdb        0x0 c:/devkitPro/libnds/lib\libfat.a(partition.o)
 .data          0x0209ebdb        0x0 c:/devkitPro/libnds/lib\libfat.a(cache.o)
 .data          0x0209ebdb        0x0 c:/devkitPro/libnds/lib\libfat.a(directory.o)
 .data          0x0209ebdb        0x0 c:/devkitPro/libnds/lib\libfat.a(disc.o)
 .data          0x0209ebdb        0x0 c:/devkitPro/libnds/lib\libfat.a(fatdir.o)
 .data          0x0209ebdb        0x0 c:/devkitPro/libnds/lib\libfat.a(fatfile.o)
 .data          0x0209ebdb        0x0 c:/devkitPro/libnds/lib\libfat.a(file_allocation_table.o)
 .data          0x0209ebdb        0x0 c:/devkitPro/libnds/lib\libfat.a(filetime.o)
 .data          0x0209ebdb        0x0 c:/devkitPro/libnds/lib\libfat.a(lock.o)
 .data          0x0209ebdb        0x0 c:/devkitpro/devkitarm/bin/../lib/gcc/arm-eabi/4.7.0/../../../../arm-eabi/lib/thumb\libstdc++.a(new_op.o)
 .data          0x0209ebdb        0x0 c:/devkitpro/devkitarm/bin/../lib/gcc/arm-eabi/4.7.0/../../../../arm-eabi/lib/thumb\libstdc++.a(eh_call.o)
 .data          0x0209ebdb        0x0 c:/devkitpro/devkitarm/bin/../lib/gcc/arm-eabi/4.7.0/../../../../arm-eabi/lib/thumb\libstdc++.a(eh_personality.o)
 .data          0x0209ebdb        0x0 c:/devkitpro/devkitarm/bin/../lib/gcc/arm-eabi/4.7.0/../../../../arm-eabi/lib/thumb\libstdc++.a(del_op.o)
 .data          0x0209ebdb        0x0 c:/devkitpro/devkitarm/bin/../lib/gcc/arm-eabi/4.7.0/../../../../arm-eabi/lib/thumb\libstdc++.a(eh_terminate.o)
 .data          0x0209ebdb        0x0 c:/devkitpro/devkitarm/bin/../lib/gcc/arm-eabi/4.7.0/../../../../arm-eabi/lib/thumb\libstdc++.a(eh_exception.o)
 .data          0x0209ebdb        0x0 c:/devkitpro/devkitarm/bin/../lib/gcc/arm-eabi/4.7.0/../../../../arm-eabi/lib/thumb\libstdc++.a(eh_alloc.o)
 .data          0x0209ebdb        0x0 c:/devkitpro/devkitarm/bin/../lib/gcc/arm-eabi/4.7.0/../../../../arm-eabi/lib/thumb\libstdc++.a(bad_alloc.o)
 .data          0x0209ebdb        0x0 c:/devkitpro/devkitarm/bin/../lib/gcc/arm-eabi/4.7.0/../../../../arm-eabi/lib/thumb\libstdc++.a(class_type_info.o)
 .data          0x0209ebdb        0x0 c:/devkitpro/devkitarm/bin/../lib/gcc/arm-eabi/4.7.0/../../../../arm-eabi/lib/thumb\libstdc++.a(new_handler.o)
 .data          0x0209ebdb        0x0 c:/devkitpro/devkitarm/bin/../lib/gcc/arm-eabi/4.7.0/../../../../arm-eabi/lib/thumb\libstdc++.a(string-inst.o)
 .data          0x0209ebdb        0x0 c:/devkitpro/devkitarm/bin/../lib/gcc/arm-eabi/4.7.0/../../../../arm-eabi/lib/thumb\libstdc++.a(functexcept.o)
 .data          0x0209ebdb        0x0 c:/devkitpro/devkitarm/bin/../lib/gcc/arm-eabi/4.7.0/../../../../arm-eabi/lib/thumb\libstdc++.a(eh_arm.o)
 .data          0x0209ebdb        0x0 c:/devkitpro/devkitarm/bin/../lib/gcc/arm-eabi/4.7.0/../../../../arm-eabi/lib/thumb\libstdc++.a(eh_throw.o)
 .data          0x0209ebdb        0x0 c:/devkitpro/devkitarm/bin/../lib/gcc/arm-eabi/4.7.0/../../../../arm-eabi/lib/thumb\libstdc++.a(pure.o)
 .data          0x0209ebdb        0x0 c:/devkitpro/devkitarm/bin/../lib/gcc/arm-eabi/4.7.0/../../../../arm-eabi/lib/thumb\libstdc++.a(bad_cast.o)
 .data          0x0209ebdb        0x0 c:/devkitpro/devkitarm/bin/../lib/gcc/arm-eabi/4.7.0/../../../../arm-eabi/lib/thumb\libstdc++.a(eh_globals.o)
 .data          0x0209ebdb        0x0 c:/devkitpro/devkitarm/bin/../lib/gcc/arm-eabi/4.7.0/../../../../arm-eabi/lib/thumb\libstdc++.a(eh_catch.o)
 .data          0x0209ebdb        0x0 c:/devkitpro/devkitarm/bin/../lib/gcc/arm-eabi/4.7.0/../../../../arm-eabi/lib/thumb\libstdc++.a(si_class_type_info.o)
 .data          0x0209ebdb        0x0 c:/devkitpro/devkitarm/bin/../lib/gcc/arm-eabi/4.7.0/../../../../arm-eabi/lib/thumb\libstdc++.a(eh_unex_handler.o)
 .data          0x0209ebdb        0x0 c:/devkitpro/devkitarm/bin/../lib/gcc/arm-eabi/4.7.0/../../../../arm-eabi/lib/thumb\libstdc++.a(tinfo.o)
 .data          0x0209ebdb        0x0 c:/devkitpro/devkitarm/bin/../lib/gcc/arm-eabi/4.7.0/../../../../arm-eabi/lib/thumb\libstdc++.a(bad_typeid.o)
 .data          0x0209ebdb        0x0 c:/devkitpro/devkitarm/bin/../lib/gcc/arm-eabi/4.7.0/../../../../arm-eabi/lib/thumb\libstdc++.a(eh_term_handler.o)
 .data          0x0209ebdb        0x0 c:/devkitpro/devkitarm/bin/../lib/gcc/arm-eabi/4.7.0/../../../../arm-eabi/lib/thumb\libstdc++.a(ios_failure.o)
 .data          0x0209ebdb        0x0 c:/devkitpro/devkitarm/bin/../lib/gcc/arm-eabi/4.7.0/../../../../arm-eabi/lib/thumb\libstdc++.a(stdexcept.o)
 .data          0x0209ebdb        0x0 c:/devkitpro/devkitarm/bin/../lib/gcc/arm-eabi/4.7.0/../../../../arm-eabi/lib/thumb\libstdc++.a(functional.o)
 .data          0x0209ebdb        0x0 c:/devkitpro/devkitarm/bin/../lib/gcc/arm-eabi/4.7.0/../../../../arm-eabi/lib/thumb\libstdc++.a(future.o)
 .data          0x0209ebdb        0x0 c:/devkitpro/devkitarm/bin/../lib/gcc/arm-eabi/4.7.0/../../../../arm-eabi/lib/thumb\libstdc++.a(regex.o)
 .data          0x0209ebdb        0x0 c:/devkitpro/devkitarm/bin/../lib/gcc/arm-eabi/4.7.0/../../../../arm-eabi/lib/thumb\libstdc++.a(system_error.o)
 .data          0x0209ebdb        0x0 c:/devkitpro/devkitarm/bin/../lib/gcc/arm-eabi/4.7.0/../../../../arm-eabi/lib/thumb\libstdc++.a(guard.o)
 .data          0x0209ebdb        0x0 c:/devkitpro/devkitarm/bin/../lib/gcc/arm-eabi/4.7.0/../../../../arm-eabi/lib/thumb\libstdc++.a(vterminate.o)
 .data          0x0209ebdb        0x0 c:/devkitpro/devkitarm/bin/../lib/gcc/arm-eabi/4.7.0/../../../../arm-eabi/lib/thumb\libstdc++.a(guard_error.o)
 .data          0x0209ebdb        0x0 c:/devkitpro/devkitarm/bin/../lib/gcc/arm-eabi/4.7.0/../../../../arm-eabi/lib/thumb\libstdc++.a(atexit_arm.o)
 .data          0x0209ebdb        0x0 c:/devkitpro/devkitarm/bin/../lib/gcc/arm-eabi/4.7.0/../../../../arm-eabi/lib/thumb\libstdc++.a(eh_type.o)
 .data          0x0209ebdb        0x0 c:/devkitpro/devkitarm/bin/../lib/gcc/arm-eabi/4.7.0/../../../../arm-eabi/lib/thumb\libstdc++.a(cp-demangle.o)
 .data          0x0209ebdb        0x0 c:/devkitpro/devkitarm/bin/../lib/gcc/arm-eabi/4.7.0/../../../../arm-eabi/lib/thumb\libm.a(lib_a-w_pow.o)
 .data          0x0209ebdb        0x0 c:/devkitpro/devkitarm/bin/../lib/gcc/arm-eabi/4.7.0/../../../../arm-eabi/lib/thumb\libm.a(lib_a-w_sqrt.o)
 .data          0x0209ebdb        0x0 c:/devkitpro/devkitarm/bin/../lib/gcc/arm-eabi/4.7.0/../../../../arm-eabi/lib/thumb\libm.a(lib_a-e_pow.o)
 .data          0x0209ebdb        0x0 c:/devkitpro/devkitarm/bin/../lib/gcc/arm-eabi/4.7.0/../../../../arm-eabi/lib/thumb\libm.a(lib_a-e_sqrt.o)
 .data          0x0209ebdb        0x0 c:/devkitpro/devkitarm/bin/../lib/gcc/arm-eabi/4.7.0/../../../../arm-eabi/lib/thumb\libm.a(lib_a-s_fabs.o)
 .data          0x0209ebdb        0x0 c:/devkitpro/devkitarm/bin/../lib/gcc/arm-eabi/4.7.0/../../../../arm-eabi/lib/thumb\libm.a(lib_a-s_finite.o)
 .data          0x0209ebdb        0x0 c:/devkitpro/devkitarm/bin/../lib/gcc/arm-eabi/4.7.0/../../../../arm-eabi/lib/thumb\libm.a(lib_a-s_fpclassify.o)
 .data          0x0209ebdb        0x1 c:/devkitpro/devkitarm/bin/../lib/gcc/arm-eabi/4.7.0/../../../../arm-eabi/lib/thumb\libm.a(lib_a-s_lib_ver.o)
                0x0209ebdb                __fdlib_version
 .data          0x0209ebdc        0x0 c:/devkitpro/devkitarm/bin/../lib/gcc/arm-eabi/4.7.0/../../../../arm-eabi/lib/thumb\libm.a(lib_a-s_matherr.o)
 .data          0x0209ebdc        0x0 c:/devkitpro/devkitarm/bin/../lib/gcc/arm-eabi/4.7.0/../../../../arm-eabi/lib/thumb\libm.a(lib_a-s_nan.o)
 .data          0x0209ebdc        0x0 c:/devkitpro/devkitarm/bin/../lib/gcc/arm-eabi/4.7.0/../../../../arm-eabi/lib/thumb\libm.a(lib_a-s_rint.o)
 .data          0x0209ebdc        0x0 c:/devkitpro/devkitarm/bin/../lib/gcc/arm-eabi/4.7.0/../../../../arm-eabi/lib/thumb\libm.a(lib_a-s_scalbn.o)
 .data          0x0209ebdc        0x0 c:/devkitpro/devkitarm/bin/../lib/gcc/arm-eabi/4.7.0/../../../../arm-eabi/lib/thumb\libm.a(lib_a-s_copysign.o)
 .data          0x0209ebdc        0x0 c:/devkitpro/devkitarm/bin/../lib/gcc/arm-eabi/4.7.0/thumb\libgcc.a(_udivsi3.o)
 .data          0x0209ebdc        0x0 c:/devkitpro/devkitarm/bin/../lib/gcc/arm-eabi/4.7.0/thumb\libgcc.a(_divsi3.o)
 .data          0x0209ebdc        0x0 c:/devkitpro/devkitarm/bin/../lib/gcc/arm-eabi/4.7.0/thumb\libgcc.a(_dvmd_tls.o)
 .data          0x0209ebdc        0x0 c:/devkitpro/devkitarm/bin/../lib/gcc/arm-eabi/4.7.0/thumb\libgcc.a(_arm_addsubdf3.o)
 .data          0x0209ebdc        0x0 c:/devkitpro/devkitarm/bin/../lib/gcc/arm-eabi/4.7.0/thumb\libgcc.a(_arm_muldivdf3.o)
 .data          0x0209ebdc        0x0 c:/devkitpro/devkitarm/bin/../lib/gcc/arm-eabi/4.7.0/thumb\libgcc.a(_arm_cmpdf2.o)
 .data          0x0209ebdc        0x0 c:/devkitpro/devkitarm/bin/../lib/gcc/arm-eabi/4.7.0/thumb\libgcc.a(_arm_fixdfsi.o)
 .data          0x0209ebdc        0x0 c:/devkitpro/devkitarm/bin/../lib/gcc/arm-eabi/4.7.0/thumb\libgcc.a(_arm_fixunsdfsi.o)
 .data          0x0209ebdc        0x0 c:/devkitpro/devkitarm/bin/../lib/gcc/arm-eabi/4.7.0/thumb\libgcc.a(_arm_addsubsf3.o)
 .data          0x0209ebdc        0x0 c:/devkitpro/devkitarm/bin/../lib/gcc/arm-eabi/4.7.0/thumb\libgcc.a(_clzsi2.o)
 .data          0x0209ebdc        0x0 c:/devkitpro/devkitarm/bin/../lib/gcc/arm-eabi/4.7.0/thumb\libgcc.a(_muldi3.o)
 .data          0x0209ebdc        0x0 c:/devkitpro/devkitarm/bin/../lib/gcc/arm-eabi/4.7.0/thumb\libgcc.a(unwind-arm.o)
 .data          0x0209ebdc        0x0 c:/devkitpro/devkitarm/bin/../lib/gcc/arm-eabi/4.7.0/thumb\libgcc.a(libunwind.o)
 .data          0x0209ebdc        0x0 c:/devkitpro/devkitarm/bin/../lib/gcc/arm-eabi/4.7.0/thumb\libgcc.a(pr-support.o)
 .data          0x0209ebdc        0x0 c:/devkitpro/devkitarm/bin/../lib/gcc/arm-eabi/4.7.0/../../../../arm-eabi/lib/thumb\libc.a(lib_a-abort.o)
 .data          0x0209ebdc        0x0 c:/devkitpro/devkitarm/bin/../lib/gcc/arm-eabi/4.7.0/../../../../arm-eabi/lib/thumb\libc.a(lib_a-bsearch.o)
 .data          0x0209ebdc        0x0 c:/devkitpro/devkitarm/bin/../lib/gcc/arm-eabi/4.7.0/../../../../arm-eabi/lib/thumb\libc.a(lib_a-calloc.o)
 .data          0x0209ebdc        0x0 c:/devkitpro/devkitarm/bin/../lib/gcc/arm-eabi/4.7.0/../../../../arm-eabi/lib/thumb\libc.a(lib_a-callocr.o)
 .data          0x0209ebdc        0x4 c:/devkitpro/devkitarm/bin/../lib/gcc/arm-eabi/4.7.0/../../../../arm-eabi/lib/thumb\libc.a(lib_a-ctype_.o)
                0x0209ebdc                __ctype_ptr__
 .data          0x0209ebe0        0x0 c:/devkitpro/devkitarm/bin/../lib/gcc/arm-eabi/4.7.0/../../../../arm-eabi/lib/thumb\libc.a(lib_a-cxa_atexit.o)
 .data          0x0209ebe0        0x0 c:/devkitpro/devkitarm/bin/../lib/gcc/arm-eabi/4.7.0/../../../../arm-eabi/lib/thumb\libc.a(lib_a-errno.o)
 .data          0x0209ebe0        0x0 c:/devkitpro/devkitarm/bin/../lib/gcc/arm-eabi/4.7.0/../../../../arm-eabi/lib/thumb\libc.a(lib_a-fclose.o)
 .data          0x0209ebe0        0x0 c:/devkitpro/devkitarm/bin/../lib/gcc/arm-eabi/4.7.0/../../../../arm-eabi/lib/thumb\libc.a(lib_a-fflush.o)
 .data          0x0209ebe0        0x0 c:/devkitpro/devkitarm/bin/../lib/gcc/arm-eabi/4.7.0/../../../../arm-eabi/lib/thumb\libc.a(lib_a-fgetc.o)
 .data          0x0209ebe0        0x0 c:/devkitpro/devkitarm/bin/../lib/gcc/arm-eabi/4.7.0/../../../../arm-eabi/lib/thumb\libc.a(lib_a-findfp.o)
 .data          0x0209ebe0        0x0 c:/devkitpro/devkitarm/bin/../lib/gcc/arm-eabi/4.7.0/../../../../arm-eabi/lib/thumb\libc.a(lib_a-fopen.o)
 .data          0x0209ebe0        0x0 c:/devkitpro/devkitarm/bin/../lib/gcc/arm-eabi/4.7.0/../../../../arm-eabi/lib/thumb\libc.a(lib_a-fputc.o)
 .data          0x0209ebe0        0x0 c:/devkitpro/devkitarm/bin/../lib/gcc/arm-eabi/4.7.0/../../../../arm-eabi/lib/thumb\libc.a(lib_a-fputs.o)
 .data          0x0209ebe0        0x0 c:/devkitpro/devkitarm/bin/../lib/gcc/arm-eabi/4.7.0/../../../../arm-eabi/lib/thumb\libc.a(lib_a-fread.o)
 .data          0x0209ebe0        0x0 c:/devkitpro/devkitarm/bin/../lib/gcc/arm-eabi/4.7.0/../../../../arm-eabi/lib/thumb\libc.a(lib_a-freer.o)
 .data          0x0209ebe0        0x0 c:/devkitpro/devkitarm/bin/../lib/gcc/arm-eabi/4.7.0/../../../../arm-eabi/lib/thumb\libc.a(lib_a-fseek.o)
 .data          0x0209ebe0        0x0 c:/devkitpro/devkitarm/bin/../lib/gcc/arm-eabi/4.7.0/../../../../arm-eabi/lib/thumb\libc.a(lib_a-ftell.o)
 .data          0x0209ebe0        0x0 c:/devkitpro/devkitarm/bin/../lib/gcc/arm-eabi/4.7.0/../../../../arm-eabi/lib/thumb\libc.a(lib_a-fvwrite.o)
 .data          0x0209ebe0        0x0 c:/devkitpro/devkitarm/bin/../lib/gcc/arm-eabi/4.7.0/../../../../arm-eabi/lib/thumb\libc.a(lib_a-fwalk.o)
 .data          0x0209ebe0        0x0 c:/devkitpro/devkitarm/bin/../lib/gcc/arm-eabi/4.7.0/../../../../arm-eabi/lib/thumb\libc.a(lib_a-fwrite.o)
 .data          0x0209ebe0      0x430 c:/devkitpro/devkitarm/bin/../lib/gcc/arm-eabi/4.7.0/../../../../arm-eabi/lib/thumb\libc.a(lib_a-impure.o)
                0x0209ebe0                _impure_ptr
 .data          0x0209f010        0x0 c:/devkitpro/devkitarm/bin/../lib/gcc/arm-eabi/4.7.0/../../../../arm-eabi/lib/thumb\libc.a(lib_a-init.o)
 .data          0x0209f010        0x0 c:/devkitpro/devkitarm/bin/../lib/gcc/arm-eabi/4.7.0/../../../../arm-eabi/lib/thumb\libc.a(lib_a-iprintf.o)
 .data          0x0209f010        0x0 c:/devkitpro/devkitarm/bin/../lib/gcc/arm-eabi/4.7.0/../../../../arm-eabi/lib/thumb\libc.a(lib_a-lcltime.o)
 .data          0x0209f010        0x0 c:/devkitpro/devkitarm/bin/../lib/gcc/arm-eabi/4.7.0/../../../../arm-eabi/lib/thumb\libc.a(lib_a-lcltime_r.o)
 .data          0x0209f010      0x17c c:/devkitpro/devkitarm/bin/../lib/gcc/arm-eabi/4.7.0/../../../../arm-eabi/lib/thumb\libc.a(lib_a-locale.o)
                0x0209f010                __default_locale
                0x0209f130                __mb_cur_max
 .data          0x0209f18c        0x0 c:/devkitpro/devkitarm/bin/../lib/gcc/arm-eabi/4.7.0/../../../../arm-eabi/lib/thumb\libc.a(lib_a-makebuf.o)
 .data          0x0209f18c        0x0 c:/devkitpro/devkitarm/bin/../lib/gcc/arm-eabi/4.7.0/../../../../arm-eabi/lib/thumb\libc.a(lib_a-malloc.o)
 .data          0x0209f18c      0x410 c:/devkitpro/devkitarm/bin/../lib/gcc/arm-eabi/4.7.0/../../../../arm-eabi/lib/thumb\libc.a(lib_a-mallocr.o)
                0x0209f18c                __malloc_av_
                0x0209f594                __malloc_sbrk_base
                0x0209f598                __malloc_trim_threshold
 .data          0x0209f59c        0x0 c:/devkitpro/devkitarm/bin/../lib/gcc/arm-eabi/4.7.0/../../../../arm-eabi/lib/thumb\libc.a(lib_a-mbrtowc.o)
 .data          0x0209f59c        0x0 c:/devkitpro/devkitarm/bin/../lib/gcc/arm-eabi/4.7.0/../../../../arm-eabi/lib/thumb\libc.a(lib_a-mbsrtowcs.o)
 .data          0x0209f59c        0x4 c:/devkitpro/devkitarm/bin/../lib/gcc/arm-eabi/4.7.0/../../../../arm-eabi/lib/thumb\libc.a(lib_a-mbtowc_r.o)
                0x0209f59c                __mbtowc
 .data          0x0209f5a0        0x0 c:/devkitpro/devkitarm/bin/../lib/gcc/arm-eabi/4.7.0/../../../../arm-eabi/lib/thumb\libc.a(lib_a-memchr-stub.o)
 .data          0x0209f5a0        0x0 c:/devkitpro/devkitarm/bin/../lib/gcc/arm-eabi/4.7.0/../../../../arm-eabi/lib/thumb\libc.a(lib_a-memcmp.o)
 .data          0x0209f5a0        0x0 c:/devkitpro/devkitarm/bin/../lib/gcc/arm-eabi/4.7.0/../../../../arm-eabi/lib/thumb\libc.a(lib_a-memcpy-stub.o)
 .data          0x0209f5a0        0x0 c:/devkitpro/devkitarm/bin/../lib/gcc/arm-eabi/4.7.0/../../../../arm-eabi/lib/thumb\libc.a(lib_a-memmove.o)
 .data          0x0209f5a0        0x0 c:/devkitpro/devkitarm/bin/../lib/gcc/arm-eabi/4.7.0/../../../../arm-eabi/lib/thumb\libc.a(lib_a-memset.o)
 .data          0x0209f5a0        0x0 c:/devkitpro/devkitarm/bin/../lib/gcc/arm-eabi/4.7.0/../../../../arm-eabi/lib/thumb\libc.a(lib_a-mktime.o)
 .data          0x0209f5a0        0x0 c:/devkitpro/devkitarm/bin/../lib/gcc/arm-eabi/4.7.0/../../../../arm-eabi/lib/thumb\libc.a(lib_a-mktm_r.o)
 .data          0x0209f5a0        0x0 c:/devkitpro/devkitarm/bin/../lib/gcc/arm-eabi/4.7.0/../../../../arm-eabi/lib/thumb\libc.a(lib_a-mlock.o)
 .data          0x0209f5a0        0x0 c:/devkitpro/devkitarm/bin/../lib/gcc/arm-eabi/4.7.0/../../../../arm-eabi/lib/thumb\libc.a(lib_a-printf.o)
 .data          0x0209f5a0        0x0 c:/devkitpro/devkitarm/bin/../lib/gcc/arm-eabi/4.7.0/../../../../arm-eabi/lib/thumb\libc.a(lib_a-putc.o)
 .data          0x0209f5a0        0x0 c:/devkitpro/devkitarm/bin/../lib/gcc/arm-eabi/4.7.0/../../../../arm-eabi/lib/thumb\libc.a(lib_a-puts.o)
 .data          0x0209f5a0        0x0 c:/devkitpro/devkitarm/bin/../lib/gcc/arm-eabi/4.7.0/../../../../arm-eabi/lib/thumb\libc.a(lib_a-realloc.o)
 .data          0x0209f5a0        0x0 c:/devkitpro/devkitarm/bin/../lib/gcc/arm-eabi/4.7.0/../../../../arm-eabi/lib/thumb\libc.a(lib_a-reallocr.o)
 .data          0x0209f5a0        0x0 c:/devkitpro/devkitarm/bin/../lib/gcc/arm-eabi/4.7.0/../../../../arm-eabi/lib/thumb\libc.a(lib_a-refill.o)
 .data          0x0209f5a0        0x0 c:/devkitpro/devkitarm/bin/../lib/gcc/arm-eabi/4.7.0/../../../../arm-eabi/lib/thumb\libc.a(lib_a-rget.o)
 .data          0x0209f5a0        0x0 c:/devkitpro/devkitarm/bin/../lib/gcc/arm-eabi/4.7.0/../../../../arm-eabi/lib/thumb\libc.a(lib_a-setvbuf.o)
 .data          0x0209f5a0        0x0 c:/devkitpro/devkitarm/bin/../lib/gcc/arm-eabi/4.7.0/../../../../arm-eabi/lib/thumb\libc.a(lib_a-signal.o)
 .data          0x0209f5a0        0x0 c:/devkitpro/devkitarm/bin/../lib/gcc/arm-eabi/4.7.0/../../../../arm-eabi/lib/thumb\libc.a(lib_a-siscanf.o)
 .data          0x0209f5a0        0x0 c:/devkitpro/devkitarm/bin/../lib/gcc/arm-eabi/4.7.0/../../../../arm-eabi/lib/thumb\libc.a(lib_a-sprintf.o)
 .data          0x0209f5a0        0x0 c:/devkitpro/devkitarm/bin/../lib/gcc/arm-eabi/4.7.0/../../../../arm-eabi/lib/thumb\libc.a(lib_a-stdio.o)
 .data          0x0209f5a0        0x0 c:/devkitpro/devkitarm/bin/../lib/gcc/arm-eabi/4.7.0/../../../../arm-eabi/lib/thumb\libc.a(lib_a-strcasecmp.o)
 .data          0x0209f5a0        0x0 c:/devkitpro/devkitarm/bin/../lib/gcc/arm-eabi/4.7.0/../../../../arm-eabi/lib/thumb\libc.a(lib_a-strcat.o)
 .data          0x0209f5a0        0x0 c:/devkitpro/devkitarm/bin/../lib/gcc/arm-eabi/4.7.0/../../../../arm-eabi/lib/thumb\libc.a(lib_a-strchr.o)
 .data          0x0209f5a0        0x0 c:/devkitpro/devkitarm/bin/../lib/gcc/arm-eabi/4.7.0/../../../../arm-eabi/lib/thumb\libc.a(lib_a-strcmp.o)
 .data          0x0209f5a0        0x0 c:/devkitpro/devkitarm/bin/../lib/gcc/arm-eabi/4.7.0/../../../../arm-eabi/lib/thumb\libc.a(lib_a-strcpy.o)
 .data          0x0209f5a0        0x0 c:/devkitpro/devkitarm/bin/../lib/gcc/arm-eabi/4.7.0/../../../../arm-eabi/lib/thumb\libc.a(lib_a-strerror.o)
 .data          0x0209f5a0        0x0 c:/devkitpro/devkitarm/bin/../lib/gcc/arm-eabi/4.7.0/../../../../arm-eabi/lib/thumb\libc.a(lib_a-strlcpy.o)
 .data          0x0209f5a0        0x0 c:/devkitpro/devkitarm/bin/../lib/gcc/arm-eabi/4.7.0/../../../../arm-eabi/lib/thumb\libc.a(lib_a-strlen.o)
 .data          0x0209f5a0        0x0 c:/devkitpro/devkitarm/bin/../lib/gcc/arm-eabi/4.7.0/../../../../arm-eabi/lib/thumb\libc.a(lib_a-strncasecmp.o)
 .data          0x0209f5a0        0x0 c:/devkitpro/devkitarm/bin/../lib/gcc/arm-eabi/4.7.0/../../../../arm-eabi/lib/thumb\libc.a(lib_a-strncmp.o)
 .data          0x0209f5a0        0x0 c:/devkitpro/devkitarm/bin/../lib/gcc/arm-eabi/4.7.0/../../../../arm-eabi/lib/thumb\libc.a(lib_a-strncpy.o)
 .data          0x0209f5a0        0x0 c:/devkitpro/devkitarm/bin/../lib/gcc/arm-eabi/4.7.0/../../../../arm-eabi/lib/thumb\libc.a(lib_a-strnlen.o)
 .data          0x0209f5a0        0x0 c:/devkitpro/devkitarm/bin/../lib/gcc/arm-eabi/4.7.0/../../../../arm-eabi/lib/thumb\libc.a(lib_a-strpbrk.o)
 .data          0x0209f5a0        0x0 c:/devkitpro/devkitarm/bin/../lib/gcc/arm-eabi/4.7.0/../../../../arm-eabi/lib/thumb\libc.a(lib_a-strrchr.o)
 .data          0x0209f5a0        0x0 c:/devkitpro/devkitarm/bin/../lib/gcc/arm-eabi/4.7.0/../../../../arm-eabi/lib/thumb\libc.a(lib_a-strtol.o)
 .data          0x0209f5a0        0x0 c:/devkitpro/devkitarm/bin/../lib/gcc/arm-eabi/4.7.0/../../../../arm-eabi/lib/thumb\libc.a(lib_a-svfiscanf.o)
 .data          0x0209f5a0        0x0 c:/devkitpro/devkitarm/bin/../lib/gcc/arm-eabi/4.7.0/../../../../arm-eabi/lib/thumb\libc.a(lib_a-svfprintf.o)
 .data          0x0209f5a0        0x0 c:/devkitpro/devkitarm/bin/../lib/gcc/arm-eabi/4.7.0/../../../../arm-eabi/lib/thumb\libc.a(lib_a-sysclose.o)
 .data          0x0209f5a0        0x0 c:/devkitpro/devkitarm/bin/../lib/gcc/arm-eabi/4.7.0/../../../../arm-eabi/lib/thumb\libc.a(lib_a-syslseek.o)
 .data          0x0209f5a0        0x0 c:/devkitpro/devkitarm/bin/../lib/gcc/arm-eabi/4.7.0/../../../../arm-eabi/lib/thumb\libc.a(lib_a-sysopen.o)
 .data          0x0209f5a0        0x0 c:/devkitpro/devkitarm/bin/../lib/gcc/arm-eabi/4.7.0/../../../../arm-eabi/lib/thumb\libc.a(lib_a-sysread.o)
 .data          0x0209f5a0        0x0 c:/devkitpro/devkitarm/bin/../lib/gcc/arm-eabi/4.7.0/../../../../arm-eabi/lib/thumb\libc.a(lib_a-syssbrk.o)
 .data          0x0209f5a0        0x0 c:/devkitpro/devkitarm/bin/../lib/gcc/arm-eabi/4.7.0/../../../../arm-eabi/lib/thumb\libc.a(lib_a-sysstat.o)
 .data          0x0209f5a0        0x0 c:/devkitpro/devkitarm/bin/../lib/gcc/arm-eabi/4.7.0/../../../../arm-eabi/lib/thumb\libc.a(lib_a-syswrite.o)
 .data          0x0209f5a0        0x0 c:/devkitpro/devkitarm/bin/../lib/gcc/arm-eabi/4.7.0/../../../../arm-eabi/lib/thumb\libc.a(lib_a-time.o)
 .data          0x0209f5a0        0x0 c:/devkitpro/devkitarm/bin/../lib/gcc/arm-eabi/4.7.0/../../../../arm-eabi/lib/thumb\libc.a(lib_a-towlower.o)
 .data          0x0209f5a0        0x0 c:/devkitpro/devkitarm/bin/../lib/gcc/arm-eabi/4.7.0/../../../../arm-eabi/lib/thumb\libc.a(lib_a-towupper.o)
 .data          0x0209f5a0        0x0 c:/devkitpro/devkitarm/bin/../lib/gcc/arm-eabi/4.7.0/../../../../arm-eabi/lib/thumb\libc.a(lib_a-tzlock.o)
 .data          0x0209f5a0        0x8 c:/devkitpro/devkitarm/bin/../lib/gcc/arm-eabi/4.7.0/../../../../arm-eabi/lib/thumb\libc.a(lib_a-tzvars.o)
                0x0209f5a0                _tzname
 .data          0x0209f5a8        0x0 c:/devkitpro/devkitarm/bin/../lib/gcc/arm-eabi/4.7.0/../../../../arm-eabi/lib/thumb\libc.a(lib_a-ungetc.o)
 .data          0x0209f5a8        0x0 c:/devkitpro/devkitarm/bin/../lib/gcc/arm-eabi/4.7.0/../../../../arm-eabi/lib/thumb\libc.a(lib_a-u_strerr.o)
 .data          0x0209f5a8        0x0 c:/devkitpro/devkitarm/bin/../lib/gcc/arm-eabi/4.7.0/../../../../arm-eabi/lib/thumb\libc.a(lib_a-vfiprintf.o)
 .data          0x0209f5a8        0x0 c:/devkitpro/devkitarm/bin/../lib/gcc/arm-eabi/4.7.0/../../../../arm-eabi/lib/thumb\libc.a(lib_a-vfprintf.o)
 .data          0x0209f5a8        0x0 c:/devkitpro/devkitarm/bin/../lib/gcc/arm-eabi/4.7.0/../../../../arm-eabi/lib/thumb\libc.a(lib_a-vsnprintf.o)
 .data          0x0209f5a8        0x0 c:/devkitpro/devkitarm/bin/../lib/gcc/arm-eabi/4.7.0/../../../../arm-eabi/lib/thumb\libc.a(lib_a-wbuf.o)
 .data          0x0209f5a8        0x0 c:/devkitpro/devkitarm/bin/../lib/gcc/arm-eabi/4.7.0/../../../../arm-eabi/lib/thumb\libc.a(lib_a-wcrtomb.o)
 .data          0x0209f5a8        0x0 c:/devkitpro/devkitarm/bin/../lib/gcc/arm-eabi/4.7.0/../../../../arm-eabi/lib/thumb\libc.a(lib_a-wcsrtombs.o)
 .data          0x0209f5a8        0x0 c:/devkitpro/devkitarm/bin/../lib/gcc/arm-eabi/4.7.0/../../../../arm-eabi/lib/thumb\libc.a(lib_a-wctob.o)
 .data          0x0209f5a8        0x4 c:/devkitpro/devkitarm/bin/../lib/gcc/arm-eabi/4.7.0/../../../../arm-eabi/lib/thumb\libc.a(lib_a-wctomb_r.o)
                0x0209f5a8                __wctomb
 .data          0x0209f5ac        0x0 c:/devkitpro/devkitarm/bin/../lib/gcc/arm-eabi/4.7.0/../../../../arm-eabi/lib/thumb\libc.a(lib_a-wsetup.o)
 .data          0x0209f5ac        0x0 c:/devkitpro/devkitarm/bin/../lib/gcc/arm-eabi/4.7.0/../../../../arm-eabi/lib/thumb\libc.a(lib_a-__atexit.o)
 .data          0x0209f5ac        0x0 c:/devkitpro/devkitarm/bin/../lib/gcc/arm-eabi/4.7.0/../../../../arm-eabi/lib/thumb\libc.a(lib_a-div.o)
 .data          0x0209f5ac        0x0 c:/devkitpro/devkitarm/bin/../lib/gcc/arm-eabi/4.7.0/../../../../arm-eabi/lib/thumb\libc.a(lib_a-dtoa.o)
 .data          0x0209f5ac        0x0 c:/devkitpro/devkitarm/bin/../lib/gcc/arm-eabi/4.7.0/../../../../arm-eabi/lib/thumb\libc.a(lib_a-flags.o)
 .data          0x0209f5ac        0x0 c:/devkitpro/devkitarm/bin/../lib/gcc/arm-eabi/4.7.0/../../../../arm-eabi/lib/thumb\libc.a(lib_a-fputwc.o)
 .data          0x0209f5ac        0x0 c:/devkitpro/devkitarm/bin/../lib/gcc/arm-eabi/4.7.0/../../../../arm-eabi/lib/thumb\libc.a(lib_a-getenv_r.o)
 .data          0x0209f5ac       0x40 c:/devkitpro/devkitarm/bin/../lib/gcc/arm-eabi/4.7.0/../../../../arm-eabi/lib/thumb\libc.a(lib_a-gettzinfo.o)
 .data          0x0209f5ec        0x0 c:/devkitpro/devkitarm/bin/../lib/gcc/arm-eabi/4.7.0/../../../../arm-eabi/lib/thumb\libc.a(lib_a-iswspace.o)
 .data          0x0209f5ec        0x0 c:/devkitpro/devkitarm/bin/../lib/gcc/arm-eabi/4.7.0/../../../../arm-eabi/lib/thumb\libc.a(lib_a-jp2uc.o)
 .data          0x0209f5ec        0x0 c:/devkitpro/devkitarm/bin/../lib/gcc/arm-eabi/4.7.0/../../../../arm-eabi/lib/thumb\libc.a(lib_a-mbsnrtowcs.o)
 .data          0x0209f5ec        0x0 c:/devkitpro/devkitarm/bin/../lib/gcc/arm-eabi/4.7.0/../../../../arm-eabi/lib/thumb\libc.a(lib_a-mprec.o)
 .data          0x0209f5ec        0x0 c:/devkitpro/devkitarm/bin/../lib/gcc/arm-eabi/4.7.0/../../../../arm-eabi/lib/thumb\libc.a(lib_a-sccl.o)
 .data          0x0209f5ec        0x0 c:/devkitpro/devkitarm/bin/../lib/gcc/arm-eabi/4.7.0/../../../../arm-eabi/lib/thumb\libc.a(lib_a-strtoll_r.o)
 .data          0x0209f5ec        0x0 c:/devkitpro/devkitarm/bin/../lib/gcc/arm-eabi/4.7.0/../../../../arm-eabi/lib/thumb\libc.a(lib_a-strtoull_r.o)
 .data          0x0209f5ec        0x0 c:/devkitpro/devkitarm/bin/../lib/gcc/arm-eabi/4.7.0/../../../../arm-eabi/lib/thumb\libc.a(lib_a-strtoul.o)
 .data          0x0209f5ec        0x0 c:/devkitpro/devkitarm/bin/../lib/gcc/arm-eabi/4.7.0/../../../../arm-eabi/lib/thumb\libc.a(lib_a-svfiprintf.o)
 .data          0x0209f5ec        0x0 c:/devkitpro/devkitarm/bin/../lib/gcc/arm-eabi/4.7.0/../../../../arm-eabi/lib/thumb\libc.a(lib_a-wcsnrtombs.o)
 .data          0x0209f5ec        0x4 c:/devkitpro/devkitarm/bin/../lib/gcc/arm-eabi/4.7.0/../../../../arm-eabi/lib/thumb\libc.a(lib_a-environ.o)
                0x0209f5ec                environ
 .data          0x0209f5f0        0x0 c:/devkitpro/devkitarm/bin/../lib/gcc/arm-eabi/4.7.0/../../../../arm-eabi/lib/thumb\libc.a(lib_a-envlock.o)
 .data          0x0209f5f0       0x44 c:/devkitpro/devkitarm/bin/../lib/gcc/arm-eabi/4.7.0/../../../../arm-eabi/lib/thumb\libsysbase.a(iosupport.o)
                0x0209f5f4                devoptab_list
 .data          0x0209f634        0x0 c:/devkitpro/devkitarm/bin/../lib/gcc/arm-eabi/4.7.0/../../../../arm-eabi/lib/thumb\libsysbase.a(close.o)
 .data          0x0209f634        0x0 c:/devkitpro/devkitarm/bin/../lib/gcc/arm-eabi/4.7.0/../../../../arm-eabi/lib/thumb\libsysbase.a(fstat.o)
 .data          0x0209f634        0x0 c:/devkitpro/devkitarm/bin/../lib/gcc/arm-eabi/4.7.0/../../../../arm-eabi/lib/thumb\libsysbase.a(getpid.o)
 .data          0x0209f634        0x0 c:/devkitpro/devkitarm/bin/../lib/gcc/arm-eabi/4.7.0/../../../../arm-eabi/lib/thumb\libsysbase.a(isatty.o)
 .data          0x0209f634        0x0 c:/devkitpro/devkitarm/bin/../lib/gcc/arm-eabi/4.7.0/../../../../arm-eabi/lib/thumb\libsysbase.a(kill.o)
 .data          0x0209f634        0x0 c:/devkitpro/devkitarm/bin/../lib/gcc/arm-eabi/4.7.0/../../../../arm-eabi/lib/thumb\libsysbase.a(lseek.o)
 .data          0x0209f634        0x0 c:/devkitpro/devkitarm/bin/../lib/gcc/arm-eabi/4.7.0/../../../../arm-eabi/lib/thumb\libsysbase.a(open.o)
 .data          0x0209f634        0x0 c:/devkitpro/devkitarm/bin/../lib/gcc/arm-eabi/4.7.0/../../../../arm-eabi/lib/thumb\libsysbase.a(read.o)
 .data          0x0209f634        0x0 c:/devkitpro/devkitarm/bin/../lib/gcc/arm-eabi/4.7.0/../../../../arm-eabi/lib/thumb\libsysbase.a(sbrk.o)
 .data          0x0209f634        0x0 c:/devkitpro/devkitarm/bin/../lib/gcc/arm-eabi/4.7.0/../../../../arm-eabi/lib/thumb\libsysbase.a(stat.o)
 .data          0x0209f634        0x0 c:/devkitpro/devkitarm/bin/../lib/gcc/arm-eabi/4.7.0/../../../../arm-eabi/lib/thumb\libsysbase.a(times.o)
 .data          0x0209f634        0x0 c:/devkitpro/devkitarm/bin/../lib/gcc/arm-eabi/4.7.0/../../../../arm-eabi/lib/thumb\libsysbase.a(write.o)
 .data          0x0209f634        0x0 c:/devkitpro/devkitarm/bin/../lib/gcc/arm-eabi/4.7.0/../../../../arm-eabi/lib/thumb\libsysbase.a(_exit.o)
 .data          0x0209f634        0x0 c:/devkitpro/devkitarm/bin/../lib/gcc/arm-eabi/4.7.0/../../../../arm-eabi/lib/thumb\libsysbase.a(malloc_vars.o)
 .data          0x0209f634      0x400 c:/devkitpro/devkitarm/bin/../lib/gcc/arm-eabi/4.7.0/../../../../arm-eabi/lib/thumb\libsysbase.a(chdir.o)
 .data          0x0209fa34        0x0 c:/devkitpro/devkitarm/bin/../lib/gcc/arm-eabi/4.7.0/../../../../arm-eabi/lib/thumb\libsysbase.a(build_argv.o)
 .data          0x0209fa34        0x0 c:/devkitpro/devkitarm/bin/../lib/gcc/arm-eabi/4.7.0/../../../../arm-eabi/lib/thumb\libsysbase.a(syscall_support.o)
 .data          0x0209fa34        0x0 c:/devkitpro/devkitarm/bin/../lib/gcc/arm-eabi/4.7.0/../../../../arm-eabi/lib/thumb\libsysbase.a(handle_manager.o)
 .data          0x0209fa34        0x0 c:/devkitpro/devkitarm/bin/../lib/gcc/arm-eabi/4.7.0/../../../../arm-eabi/lib/thumb\libsysbase.a(dirent.o)
 .data          0x0209fa34        0x0 c:/devkitpro/devkitarm/bin/../lib/gcc/arm-eabi/4.7.0/thumb\libgcc.a(_aeabi_uldivmod.o)
 .data          0x0209fa34        0x0 c:/devkitpro/devkitarm/bin/../lib/gcc/arm-eabi/4.7.0/thumb\libgcc.a(bpabi.o)
 .data          0x0209fa34        0x0 c:/devkitpro/devkitarm/bin/../lib/gcc/arm-eabi/4.7.0/thumb\libgcc.a(_divdi3.o)
 .data          0x0209fa34        0x0 c:/devkitpro/devkitarm/bin/../lib/gcc/arm-eabi/4.7.0/thumb\libgcc.a(_udivdi3.o)
 .data          0x0209fa34        0x0 c:/devkitpro/devkitarm/bin/../lib/gcc/arm-eabi/4.7.0/thumb/crtend.o
 .data          0x0209fa34        0x0 c:/devkitpro/devkitarm/bin/../lib/gcc/arm-eabi/4.7.0/thumb/crtn.o
 *(.data.*)
 .data._ZN10__cxxabiv120__unexpected_handlerE
                0x0209fa34        0x4 c:/devkitpro/devkitarm/bin/../lib/gcc/arm-eabi/4.7.0/../../../../arm-eabi/lib/thumb\libstdc++.a(eh_unex_handler.o)
                0x0209fa34                _ZN10__cxxabiv120__unexpected_handlerE
 .data._ZN10__cxxabiv119__terminate_handlerE
                0x0209fa38        0x4 c:/devkitpro/devkitarm/bin/../lib/gcc/arm-eabi/4.7.0/../../../../arm-eabi/lib/thumb\libstdc++.a(eh_term_handler.o)
                0x0209fa38                _ZN10__cxxabiv119__terminate_handlerE
 *(.gnu.linkonce.d*)
                0x0209fa3c                . = ALIGN (0x4)
                0x0209fa3c                __data_end = ABSOLUTE (.)
                0x0209fa3c                __dtcm_lma = .
                0x0209fa3c                __bss_vma = .

.igot.plt       0x0209fa3c        0x0
 .igot.plt      0x00000000        0x0 c:/devkitpro/devkitarm/bin/../lib/gcc/arm-eabi/4.7.0/../../../../arm-eabi/lib/thumb/ds_arm9_crt0.o

.tm_clone_table
                0x0209fa3c        0x0
 .tm_clone_table
                0x0209fa3c        0x0 c:/devkitpro/devkitarm/bin/../lib/gcc/arm-eabi/4.7.0/thumb/crtbegin.o
 .tm_clone_table
                0x0209fa3c        0x0 c:/devkitpro/devkitarm/bin/../lib/gcc/arm-eabi/4.7.0/thumb/crtend.o

.dtcm           0x0b000000      0x124 load address 0x0209fa3c
 *(.dtcm)
 .dtcm          0x0b000000       0xcc interrupts.o
                0x0b000000                irqTable
                0x0b0000c8                anytimejmpfilter
 .dtcm          0x0b0000cc       0x58 ex_s.o
                0x0b0000cc                BIOSDBG_SPSR
                0x0b0000d4                exHandler
                0x0b0000d8                exHandlerundifined
                0x0b0000dc                exHandlerswi
                0x0b0000e0                exPuProtection
                0x0b0000e4                exRegs
 *(.dtcm.*)
                0x0b000124                . = ALIGN (0x4)
                0x0b000124                __dtcm_end = ABSOLUTE (.)
                0x0209fb60                __itcm_lma = (__dtcm_lma + SIZEOF (.dtcm))

.itcm           0x01000300      0x220 load address 0x0209fb60
 *(.itcm)
 .itcm          0x01000300       0xe8 bios.o
 *fill*         0x010003e8        0x8 ff
 .itcm          0x010003f0        0x0 ex_s.o
 .itcm          0x010003f0       0xd0 interruptDispatcher.o
                0x010003f0                IntrMain
 .itcm.stub     0x010004c0       0x48 linker stubs
 *itcm.*(.text)
                0x01000508                . = ALIGN (0x4)
                0x01000508                __itcm_end = ABSOLUTE (.)
                0x0209fd80                __vectors_lma = (__itcm_lma + SIZEOF (.itcm))

.vectors        0x01000000      0x2d8 load address 0x0209fd80
 *(.vectors)
 .vectors       0x01000000      0x2d8 ex_s.o
                0x01000000                irqhandler2
                0x0100003c                savedsp
                0x01000040                savedlr
                0x01000048                SPtoload
                0x0100004c                SPtemp
                0x01000144                SPtoloadswi
 *vectors.*(.text)
                0x010002d8                . = ALIGN (0x4)
                0x010002d8                __vectors_end = ABSOLUTE (.)

.rel.dyn        0x010002d8        0x0 load address 0x020a0058
 .rel.iplt      0x00000000        0x0 c:/devkitpro/devkitarm/bin/../lib/gcc/arm-eabi/4.7.0/../../../../arm-eabi/lib/thumb/ds_arm9_crt0.o

.sbss           0x0b000124        0x0
                0x0b000124                __sbss_start = ABSOLUTE (.)
                0x0b000124                __sbss_start__ = ABSOLUTE (.)
 *(.sbss)
                0x0b000124                . = ALIGN (0x4)
                0x0b000124                __sbss_end = ABSOLUTE (.)

.bss            0x0209fa3c    0x284bc
                0x0209fa3c                __bss_start = ABSOLUTE (.)
                0x0209fa3c                __bss_start__ = ABSOLUTE (.)
 *(.dynbss)
 *(.gnu.linkonce.b*)
 *(.bss*)
 .bss           0x0209fa3c        0x0 c:/devkitpro/devkitarm/bin/../lib/gcc/arm-eabi/4.7.0/../../../../arm-eabi/lib/thumb/ds_arm9_crt0.o
 .bss           0x0209fa3c        0x0 c:/devkitpro/devkitarm/bin/../lib/gcc/arm-eabi/4.7.0/thumb/crti.o
 .bss           0x0209fa3c       0x1c c:/devkitpro/devkitarm/bin/../lib/gcc/arm-eabi/4.7.0/thumb/crtbegin.o
 .bss           0x0209fa58        0x0 default_font.bin.o
 .bss           0x0209fa58     0x2024 EEprom.o
                0x0209fa58                eepromData
                0x020a1a58                eepromMode
                0x020a1a5c                eepromByte
                0x020a1a60                eepromBits
                0x020a1a64                eepromAddress
                0x020a1a68                eepromInUse
                0x020a1a6c                eepromBuffer
 .bss           0x020a1a7c    0x2000c Flash.o
                0x020a1a7c                flashState
                0x020a1a80                flashReadState
                0x020a1a84                flashSaveMemory
                0x020c1a84                flashBank
 .bss           0x020c1a88      0x6ec GBA.o
                0x020c1a88                stopState
                0x020c1a8c                IRQTicks
                0x020c1a90                gbaSaveType
                0x020c1a94                holdState
                0x020c1a98                holdType
                0x020c1a9c                biosProtected
                0x020c1aa0                lcdTicks
                0x020c1aa4                timer0On
                0x020c1aa8                timer0Ticks
                0x020c1aac                timer0Reload
                0x020c1ab0                timer0ClockReload
                0x020c1ab4                timer1On
                0x020c1ab8                timer1Ticks
                0x020c1abc                timer1Reload
                0x020c1ac0                timer1ClockReload
                0x020c1ac4                timer2On
                0x020c1ac8                timer2Ticks
                0x020c1acc                timer2Reload
                0x020c1ad0                timer2ClockReload
                0x020c1ad4                timer3On
                0x020c1ad8                timer3Ticks
                0x020c1adc                timer3Reload
                0x020c1ae0                timer3ClockReload
                0x020c1ae4                dma0Source
                0x020c1ae8                dma0Dest
                0x020c1aec                dma1Source
                0x020c1af0                dma1Dest
                0x020c1af4                dma2Source
                0x020c1af8                dma2Dest
                0x020c1afc                dma3Source
                0x020c1b00                dma3Dest
                0x020c1b04                fxOn
                0x020c1b05                windowOn
                0x020c1b08                frameCount
                0x020c1b0c                dummyAddress
                0x020c1b10                cpuEEPROMSensorEnabled
                0x020c1b14                cpuPrefetch
                0x020c1b1c                cpuDmaHack
                0x020c1b20                lastTime
                0x020c1b24                SWITicks
                0x020c1b28                cpuNextEvent
                0x020c1b2c                cpuTotalTicks
                0x020c1b30                cpuDmaLast
                0x020c1b34                timer0Value
                0x020c1b36                timer1Value
                0x020c1b38                timer2Value
                0x020c1b3a                timer3Value
                0x020c1b3c                intState
                0x020c1b40                cpuLowestBitSet
                0x020c1c40                cpuBitsSet
                0x020c1d40                captureNumber
                0x020c1d44                capturePrevious
                0x020c1d48                capture
                0x020c1d4c                count
                0x020c1d50                out
                0x020c1d54                buffer
                0x020c2154                timerOnOffDelay
                0x020c2155                cpuBreakLoop
                0x020c2158                cpuDmaCount
                0x020c215c                cpuDmaTicksToUpdate
                0x020c2160                busPrefetchCount
                0x020c2164                busPrefetchEnable
                0x020c2165                busPrefetch
                0x020c2168                layerEnableDelay
                0x020c216c                mastercode
                0x020c2170                ichflytest
 .bss           0x020c2174      0xd8c Globals.o
                0x020c2174                IME
                0x020c2176                IF
                0x020c2178                IE
                0x020c217a                TM3CNT
                0x020c217c                TM3D
                0x020c217e                TM2CNT
                0x020c2180                TM2D
                0x020c2182                TM1CNT
                0x020c2184                TM1D
                0x020c2186                TM0CNT
                0x020c2188                TM0D
                0x020c218a                DM3CNT_H
                0x020c218c                DM3CNT_L
                0x020c218e                DM3DAD_H
                0x020c2190                DM3DAD_L
                0x020c2192                DM3SAD_H
                0x020c2194                DM3SAD_L
                0x020c2196                DM2CNT_H
                0x020c2198                DM2CNT_L
                0x020c219a                DM2DAD_H
                0x020c219c                DM2DAD_L
                0x020c219e                DM2SAD_H
                0x020c21a0                DM2SAD_L
                0x020c21a2                DM1CNT_H
                0x020c21a4                DM1CNT_L
                0x020c21a6                DM1DAD_H
                0x020c21a8                DM1DAD_L
                0x020c21aa                DM1SAD_H
                0x020c21ac                DM1SAD_L
                0x020c21ae                DM0CNT_H
                0x020c21b0                DM0CNT_L
                0x020c21b2                DM0DAD_H
                0x020c21b4                DM0DAD_L
                0x020c21b6                DM0SAD_H
                0x020c21b8                DM0SAD_L
                0x020c21ba                COLY
                0x020c21bc                COLEV
                0x020c21be                BLDMOD
                0x020c21c0                MOSAIC
                0x020c21c2                WINOUT
                0x020c21c4                WININ
                0x020c21c6                WIN1V
                0x020c21c8                WIN0V
                0x020c21ca                WIN1H
                0x020c21cc                WIN0H
                0x020c21ce                BG3Y_H
                0x020c21d0                BG3Y_L
                0x020c21d2                BG3X_H
                0x020c21d4                BG3X_L
                0x020c21d6                BG3PC
                0x020c21d8                BG3PB
                0x020c21da                BG2Y_H
                0x020c21dc                BG2Y_L
                0x020c21de                BG2X_H
                0x020c21e0                BG2X_L
                0x020c21e2                BG2PC
                0x020c21e4                BG2PB
                0x020c21e6                BG3VOFS
                0x020c21e8                BG3HOFS
                0x020c21ea                BG2VOFS
                0x020c21ec                BG2HOFS
                0x020c21ee                BG1VOFS
                0x020c21f0                BG1HOFS
                0x020c21f2                BG0VOFS
                0x020c21f4                BG0HOFS
                0x020c21f6                BG3CNT
                0x020c21f8                BG2CNT
                0x020c21fa                BG1CNT
                0x020c21fc                BG0CNT
                0x020c21fe                VCOUNT
                0x020c2200                DISPSTAT
                0x020c2204                ioMem
                0x020c2208                oam
                0x020c220c                pix
                0x020c2210                vram
                0x020c2214                paletteRAM
                0x020c2218                workRAM
                0x020c221c                internalRAM
                0x020c2220                rom
                0x020c2224                bios
                0x020c2228                mirroringEnable
                0x020c222c                cpuSaveType
                0x020c2230                speedHack
                0x020c2231                cpuIsMultiBoot
                0x020c2232                cpuDisableSfx
                0x020c2233                speedup
                0x020c2234                skipBios
                0x020c2235                useBios
                0x020c2238                saveType
                0x020c223c                armNextPC
                0x020c2240                V_FLAG
                0x020c2241                Z_FLAG
                0x020c2242                C_FLAG
                0x020c2243                N_FLAG
                0x020c2244                ioReadable
                0x020c2644                map
                0x020c2e44                reg
                0x020c2ef8                IF_VBl
                0x020c2efc                ichflyfilestream
 .bss           0x020c2f00       0x30 RTC.o
 .bss           0x020c2f30        0x0 Sram.o
 .bss           0x020c2f30        0x0 Util.o
 .bss           0x020c2f30        0x2 agbprint.o
 .bss           0x020c2f32        0x0 armdis.o
 .bss           0x020c2f32        0x0 bios.o
 *fill*         0x020c2f32        0x2 00
 .bss           0x020c2f34     0x2038 cpumg.o
                0x020c2f34                current
                0x020c2f38                lasttime
                0x020c2f50                disbuffer
                0x020c4f50                disableMessage
                0x020c4f54                durchgang
                0x020c4f58                durchlauf
                0x020c4f5c                gbaBGxCNT
                0x020c4f64                gbaDISPCNT
                0x020c4f66                gbaIME
                0x020c4f68                pFile
 .bss           0x020c4f6c      0x8d0 file_browse.o
                0x020c4f6c                gbaheader
                0x020c502c                showbuff
                0x020c503c                temppath
 .bss           0x020c583c      0x670 main.o
                0x020c583c                framewtf
                0x020c5840                DISPCNT
                0x020c5842                lastDISPCNT
                0x020c5844                bgrouid
                0x020c5848                savePath
                0x020c5a48                szFile
                0x020c5c48                ignorenextY
                0x020c5c4c                biosPath
                0x020c5e4c                emulator
                0x020c5e80                gbamode
                0x020c5e84                oldmode
                0x020c5e88                bg
                0x020c5e8c                dirfeldsizes
                0x020c5e90                names
                0x020c5e94                dirfeldsize
                0x020c5e98                seite
                0x020c5e9c                currentdir
                0x020c5ea0                ausgewauhlt
                0x020c5ea4                rootenabelde
                0x020c5ea8                framenummer
 .bss           0x020c5eac        0x0 mydebuger.o
 .bss           0x020c5eac        0x0 sound.o
 .bss           0x020c5eac      0x168 system.o
                0x020c5eac                __outstr
                0x020c5fac                systemFPS
                0x020c5fb0                systemRenderedFrames
                0x020c5fb4                RGB_LOW_BITS_MASK
                0x020c5fb8                debugger
                0x020c5fbc                emulating
                0x020c5fc0                systemSoundOn
                0x020c5fc4                systemGbPalette
                0x020c5ff4                systemFrameSkip
                0x020c5ff8                systemSaveUpdateCounter
                0x020c5ffc                systemVerbose
                0x020c6000                systemDebug
                0x020c6004                systemColorDepth
                0x020c6008                systemBlueShift
                0x020c600c                systemGreenShift
                0x020c6010                systemRedShift
 .bss           0x020c6014        0x0 background.o
 .bss           0x020c6014        0x0 console.o
 .bss           0x020c6014        0x0 devkitpatcher.o
 .bss           0x020c6014        0x0 dldi.o
 .bss           0x020c6014        0x0 heapfuncs.o
 .bss           0x020c6014        0x4 interrupts.o
                0x020c6014                anytimejmp
 .bss           0x020c6018        0x6 keys.o
 .bss           0x020c601e        0x0 libnds_exit.o
 .bss           0x020c601e        0x0 sassert.o
 .bss           0x020c601e        0x0 trig.o
 .bss           0x020c601e        0x0 video.o
 .bss           0x020c601e        0x0 cpu_s.o
 .bss           0x020c601e        0x0 dcache.o
 .bss           0x020c601e        0x0 dldi_stub.o
 .bss           0x020c601e        0x0 ex_s.o
 .bss           0x020c601e        0x0 icache.o
 .bss           0x020c601e        0x0 interruptDispatcher.o
 .bss           0x020c601e        0x0 mpu_setup.o
 .bss           0x020c601e        0x0 c:/devkitPro/libnds/lib\libfat.a(libfat.o)
 .bss           0x020c601e        0x0 c:/devkitPro/libnds/lib\libfat.a(partition.o)
 *fill*         0x020c601e        0x2 00
 .bss           0x020c6020        0x4 c:/devkitPro/libnds/lib\libfat.a(cache.o)
 .bss           0x020c6024        0x0 c:/devkitPro/libnds/lib\libfat.a(directory.o)
 .bss           0x020c6024        0x0 c:/devkitPro/libnds/lib\libfat.a(disc.o)
 .bss           0x020c6024        0x0 c:/devkitPro/libnds/lib\libfat.a(fatdir.o)
 .bss           0x020c6024        0x0 c:/devkitPro/libnds/lib\libfat.a(fatfile.o)
 .bss           0x020c6024        0x0 c:/devkitPro/libnds/lib\libfat.a(file_allocation_table.o)
 .bss           0x020c6024        0x0 c:/devkitPro/libnds/lib\libfat.a(filetime.o)
 .bss           0x020c6024        0x0 c:/devkitPro/libnds/lib\libfat.a(lock.o)
 .bss           0x020c6024        0x0 c:/devkitpro/devkitarm/bin/../lib/gcc/arm-eabi/4.7.0/../../../../arm-eabi/lib/thumb\libstdc++.a(new_op.o)
 .bss           0x020c6024        0x0 c:/devkitpro/devkitarm/bin/../lib/gcc/arm-eabi/4.7.0/../../../../arm-eabi/lib/thumb\libstdc++.a(eh_call.o)
 .bss           0x020c6024        0x0 c:/devkitpro/devkitarm/bin/../lib/gcc/arm-eabi/4.7.0/../../../../arm-eabi/lib/thumb\libstdc++.a(eh_personality.o)
 .bss           0x020c6024        0x0 c:/devkitpro/devkitarm/bin/../lib/gcc/arm-eabi/4.7.0/../../../../arm-eabi/lib/thumb\libstdc++.a(del_op.o)
 .bss           0x020c6024        0x0 c:/devkitpro/devkitarm/bin/../lib/gcc/arm-eabi/4.7.0/../../../../arm-eabi/lib/thumb\libstdc++.a(eh_terminate.o)
 .bss           0x020c6024        0x0 c:/devkitpro/devkitarm/bin/../lib/gcc/arm-eabi/4.7.0/../../../../arm-eabi/lib/thumb\libstdc++.a(eh_exception.o)
 .bss           0x020c6024        0x0 c:/devkitpro/devkitarm/bin/../lib/gcc/arm-eabi/4.7.0/../../../../arm-eabi/lib/thumb\libstdc++.a(eh_alloc.o)
 .bss._ZL15dependents_used
                0x020c6024        0x4 c:/devkitpro/devkitarm/bin/../lib/gcc/arm-eabi/4.7.0/../../../../arm-eabi/lib/thumb\libstdc++.a(eh_alloc.o)
 .bss._ZL17dependents_buffer
                0x020c6028      0x1e0 c:/devkitpro/devkitarm/bin/../lib/gcc/arm-eabi/4.7.0/../../../../arm-eabi/lib/thumb\libstdc++.a(eh_alloc.o)
 .bss._ZL14emergency_used
                0x020c6208        0x4 c:/devkitpro/devkitarm/bin/../lib/gcc/arm-eabi/4.7.0/../../../../arm-eabi/lib/thumb\libstdc++.a(eh_alloc.o)
 *fill*         0x020c620c        0x4 00
 .bss._ZL16emergency_buffer
                0x020c6210      0x800 c:/devkitpro/devkitarm/bin/../lib/gcc/arm-eabi/4.7.0/../../../../arm-eabi/lib/thumb\libstdc++.a(eh_alloc.o)
 .bss           0x020c6a10        0x0 c:/devkitpro/devkitarm/bin/../lib/gcc/arm-eabi/4.7.0/../../../../arm-eabi/lib/thumb\libstdc++.a(bad_alloc.o)
 .bss           0x020c6a10        0x0 c:/devkitpro/devkitarm/bin/../lib/gcc/arm-eabi/4.7.0/../../../../arm-eabi/lib/thumb\libstdc++.a(class_type_info.o)
 .bss           0x020c6a10        0x0 c:/devkitpro/devkitarm/bin/../lib/gcc/arm-eabi/4.7.0/../../../../arm-eabi/lib/thumb\libstdc++.a(new_handler.o)
 .bss.__new_handler
                0x020c6a10        0x4 c:/devkitpro/devkitarm/bin/../lib/gcc/arm-eabi/4.7.0/../../../../arm-eabi/lib/thumb\libstdc++.a(new_handler.o)
                0x020c6a10                __new_handler
 .bss           0x020c6a14        0x0 c:/devkitpro/devkitarm/bin/../lib/gcc/arm-eabi/4.7.0/../../../../arm-eabi/lib/thumb\libstdc++.a(string-inst.o)
 .bss._ZNSs4_Rep20_S_empty_rep_storageE
                0x020c6a14       0x10 c:/devkitpro/devkitarm/bin/../lib/gcc/arm-eabi/4.7.0/../../../../arm-eabi/lib/thumb\libstdc++.a(string-inst.o)
                0x020c6a14                _ZNSs4_Rep20_S_empty_rep_storageE
 .bss           0x020c6a24        0x0 c:/devkitpro/devkitarm/bin/../lib/gcc/arm-eabi/4.7.0/../../../../arm-eabi/lib/thumb\libstdc++.a(functexcept.o)
 .bss           0x020c6a24        0x0 c:/devkitpro/devkitarm/bin/../lib/gcc/arm-eabi/4.7.0/../../../../arm-eabi/lib/thumb\libstdc++.a(eh_arm.o)
 .bss           0x020c6a24        0x0 c:/devkitpro/devkitarm/bin/../lib/gcc/arm-eabi/4.7.0/../../../../arm-eabi/lib/thumb\libstdc++.a(eh_throw.o)
 .bss           0x020c6a24        0x0 c:/devkitpro/devkitarm/bin/../lib/gcc/arm-eabi/4.7.0/../../../../arm-eabi/lib/thumb\libstdc++.a(pure.o)
 .bss           0x020c6a24        0x0 c:/devkitpro/devkitarm/bin/../lib/gcc/arm-eabi/4.7.0/../../../../arm-eabi/lib/thumb\libstdc++.a(bad_cast.o)
 .bss           0x020c6a24        0x0 c:/devkitpro/devkitarm/bin/../lib/gcc/arm-eabi/4.7.0/../../../../arm-eabi/lib/thumb\libstdc++.a(eh_globals.o)
 .bss._ZL10eh_globals
                0x020c6a24        0xc c:/devkitpro/devkitarm/bin/../lib/gcc/arm-eabi/4.7.0/../../../../arm-eabi/lib/thumb\libstdc++.a(eh_globals.o)
 .bss           0x020c6a30        0x0 c:/devkitpro/devkitarm/bin/../lib/gcc/arm-eabi/4.7.0/../../../../arm-eabi/lib/thumb\libstdc++.a(eh_catch.o)
 .bss           0x020c6a30        0x0 c:/devkitpro/devkitarm/bin/../lib/gcc/arm-eabi/4.7.0/../../../../arm-eabi/lib/thumb\libstdc++.a(si_class_type_info.o)
 .bss           0x020c6a30        0x0 c:/devkitpro/devkitarm/bin/../lib/gcc/arm-eabi/4.7.0/../../../../arm-eabi/lib/thumb\libstdc++.a(eh_unex_handler.o)
 .bss           0x020c6a30        0x0 c:/devkitpro/devkitarm/bin/../lib/gcc/arm-eabi/4.7.0/../../../../arm-eabi/lib/thumb\libstdc++.a(tinfo.o)
 .bss           0x020c6a30        0x0 c:/devkitpro/devkitarm/bin/../lib/gcc/arm-eabi/4.7.0/../../../../arm-eabi/lib/thumb\libstdc++.a(bad_typeid.o)
 .bss           0x020c6a30        0x0 c:/devkitpro/devkitarm/bin/../lib/gcc/arm-eabi/4.7.0/../../../../arm-eabi/lib/thumb\libstdc++.a(eh_term_handler.o)
 .bss           0x020c6a30        0x0 c:/devkitpro/devkitarm/bin/../lib/gcc/arm-eabi/4.7.0/../../../../arm-eabi/lib/thumb\libstdc++.a(ios_failure.o)
 .bss           0x020c6a30        0x0 c:/devkitpro/devkitarm/bin/../lib/gcc/arm-eabi/4.7.0/../../../../arm-eabi/lib/thumb\libstdc++.a(stdexcept.o)
 .bss           0x020c6a30        0x0 c:/devkitpro/devkitarm/bin/../lib/gcc/arm-eabi/4.7.0/../../../../arm-eabi/lib/thumb\libstdc++.a(functional.o)
 .bss           0x020c6a30        0x0 c:/devkitpro/devkitarm/bin/../lib/gcc/arm-eabi/4.7.0/../../../../arm-eabi/lib/thumb\libstdc++.a(future.o)
 .bss._ZZN12_GLOBAL__N_126__future_category_instanceEvE5__fec
                0x020c6a30        0x4 c:/devkitpro/devkitarm/bin/../lib/gcc/arm-eabi/4.7.0/../../../../arm-eabi/lib/thumb\libstdc++.a(future.o)
 .bss._ZGVZN12_GLOBAL__N_126__future_category_instanceEvE5__fec
                0x020c6a34        0x4 c:/devkitpro/devkitarm/bin/../lib/gcc/arm-eabi/4.7.0/../../../../arm-eabi/lib/thumb\libstdc++.a(future.o)
 .bss           0x020c6a38        0x0 c:/devkitpro/devkitarm/bin/../lib/gcc/arm-eabi/4.7.0/../../../../arm-eabi/lib/thumb\libstdc++.a(regex.o)
 .bss           0x020c6a38        0x0 c:/devkitpro/devkitarm/bin/../lib/gcc/arm-eabi/4.7.0/../../../../arm-eabi/lib/thumb\libstdc++.a(system_error.o)
 .bss._ZN12_GLOBAL__N_1L24system_category_instanceE
                0x020c6a38        0x4 c:/devkitpro/devkitarm/bin/../lib/gcc/arm-eabi/4.7.0/../../../../arm-eabi/lib/thumb\libstdc++.a(system_error.o)
 .bss._ZN12_GLOBAL__N_1L25generic_category_instanceE
                0x020c6a3c        0x4 c:/devkitpro/devkitarm/bin/../lib/gcc/arm-eabi/4.7.0/../../../../arm-eabi/lib/thumb\libstdc++.a(system_error.o)
 .bss           0x020c6a40        0x0 c:/devkitpro/devkitarm/bin/../lib/gcc/arm-eabi/4.7.0/../../../../arm-eabi/lib/thumb\libstdc++.a(guard.o)
 .bss           0x020c6a40        0x0 c:/devkitpro/devkitarm/bin/../lib/gcc/arm-eabi/4.7.0/../../../../arm-eabi/lib/thumb\libstdc++.a(vterminate.o)
 .bss._ZZN9__gnu_cxx27__verbose_terminate_handlerEvE11terminating
                0x020c6a40        0x1 c:/devkitpro/devkitarm/bin/../lib/gcc/arm-eabi/4.7.0/../../../../arm-eabi/lib/thumb\libstdc++.a(vterminate.o)
 .bss           0x020c6a41        0x0 c:/devkitpro/devkitarm/bin/../lib/gcc/arm-eabi/4.7.0/../../../../arm-eabi/lib/thumb\libstdc++.a(guard_error.o)
 .bss           0x020c6a41        0x0 c:/devkitpro/devkitarm/bin/../lib/gcc/arm-eabi/4.7.0/../../../../arm-eabi/lib/thumb\libstdc++.a(atexit_arm.o)
 .bss           0x020c6a41        0x0 c:/devkitpro/devkitarm/bin/../lib/gcc/arm-eabi/4.7.0/../../../../arm-eabi/lib/thumb\libstdc++.a(eh_type.o)
 .bss           0x020c6a41        0x0 c:/devkitpro/devkitarm/bin/../lib/gcc/arm-eabi/4.7.0/../../../../arm-eabi/lib/thumb\libstdc++.a(cp-demangle.o)
 .bss           0x020c6a41        0x0 c:/devkitpro/devkitarm/bin/../lib/gcc/arm-eabi/4.7.0/../../../../arm-eabi/lib/thumb\libm.a(lib_a-w_pow.o)
 .bss           0x020c6a41        0x0 c:/devkitpro/devkitarm/bin/../lib/gcc/arm-eabi/4.7.0/../../../../arm-eabi/lib/thumb\libm.a(lib_a-w_sqrt.o)
 .bss           0x020c6a41        0x0 c:/devkitpro/devkitarm/bin/../lib/gcc/arm-eabi/4.7.0/../../../../arm-eabi/lib/thumb\libm.a(lib_a-e_pow.o)
 .bss           0x020c6a41        0x0 c:/devkitpro/devkitarm/bin/../lib/gcc/arm-eabi/4.7.0/../../../../arm-eabi/lib/thumb\libm.a(lib_a-e_sqrt.o)
 .bss           0x020c6a41        0x0 c:/devkitpro/devkitarm/bin/../lib/gcc/arm-eabi/4.7.0/../../../../arm-eabi/lib/thumb\libm.a(lib_a-s_fabs.o)
 .bss           0x020c6a41        0x0 c:/devkitpro/devkitarm/bin/../lib/gcc/arm-eabi/4.7.0/../../../../arm-eabi/lib/thumb\libm.a(lib_a-s_finite.o)
 .bss           0x020c6a41        0x0 c:/devkitpro/devkitarm/bin/../lib/gcc/arm-eabi/4.7.0/../../../../arm-eabi/lib/thumb\libm.a(lib_a-s_fpclassify.o)
 .bss           0x020c6a41        0x0 c:/devkitpro/devkitarm/bin/../lib/gcc/arm-eabi/4.7.0/../../../../arm-eabi/lib/thumb\libm.a(lib_a-s_lib_ver.o)
 .bss           0x020c6a41        0x0 c:/devkitpro/devkitarm/bin/../lib/gcc/arm-eabi/4.7.0/../../../../arm-eabi/lib/thumb\libm.a(lib_a-s_matherr.o)
 .bss           0x020c6a41        0x0 c:/devkitpro/devkitarm/bin/../lib/gcc/arm-eabi/4.7.0/../../../../arm-eabi/lib/thumb\libm.a(lib_a-s_nan.o)
 .bss           0x020c6a41        0x0 c:/devkitpro/devkitarm/bin/../lib/gcc/arm-eabi/4.7.0/../../../../arm-eabi/lib/thumb\libm.a(lib_a-s_rint.o)
 .bss           0x020c6a41        0x0 c:/devkitpro/devkitarm/bin/../lib/gcc/arm-eabi/4.7.0/../../../../arm-eabi/lib/thumb\libm.a(lib_a-s_scalbn.o)
 .bss           0x020c6a41        0x0 c:/devkitpro/devkitarm/bin/../lib/gcc/arm-eabi/4.7.0/../../../../arm-eabi/lib/thumb\libm.a(lib_a-s_copysign.o)
 .bss           0x020c6a41        0x0 c:/devkitpro/devkitarm/bin/../lib/gcc/arm-eabi/4.7.0/thumb\libgcc.a(_udivsi3.o)
 .bss           0x020c6a41        0x0 c:/devkitpro/devkitarm/bin/../lib/gcc/arm-eabi/4.7.0/thumb\libgcc.a(_divsi3.o)
 .bss           0x020c6a41        0x0 c:/devkitpro/devkitarm/bin/../lib/gcc/arm-eabi/4.7.0/thumb\libgcc.a(_dvmd_tls.o)
 .bss           0x020c6a41        0x0 c:/devkitpro/devkitarm/bin/../lib/gcc/arm-eabi/4.7.0/thumb\libgcc.a(_arm_addsubdf3.o)
 .bss           0x020c6a41        0x0 c:/devkitpro/devkitarm/bin/../lib/gcc/arm-eabi/4.7.0/thumb\libgcc.a(_arm_muldivdf3.o)
 .bss           0x020c6a41        0x0 c:/devkitpro/devkitarm/bin/../lib/gcc/arm-eabi/4.7.0/thumb\libgcc.a(_arm_cmpdf2.o)
 .bss           0x020c6a41        0x0 c:/devkitpro/devkitarm/bin/../lib/gcc/arm-eabi/4.7.0/thumb\libgcc.a(_arm_fixdfsi.o)
 .bss           0x020c6a41        0x0 c:/devkitpro/devkitarm/bin/../lib/gcc/arm-eabi/4.7.0/thumb\libgcc.a(_arm_fixunsdfsi.o)
 .bss           0x020c6a41        0x0 c:/devkitpro/devkitarm/bin/../lib/gcc/arm-eabi/4.7.0/thumb\libgcc.a(_arm_addsubsf3.o)
 .bss           0x020c6a41        0x0 c:/devkitpro/devkitarm/bin/../lib/gcc/arm-eabi/4.7.0/thumb\libgcc.a(_clzsi2.o)
 .bss           0x020c6a41        0x0 c:/devkitpro/devkitarm/bin/../lib/gcc/arm-eabi/4.7.0/thumb\libgcc.a(_muldi3.o)
 .bss           0x020c6a41        0x0 c:/devkitpro/devkitarm/bin/../lib/gcc/arm-eabi/4.7.0/thumb\libgcc.a(unwind-arm.o)
 .bss           0x020c6a41        0x0 c:/devkitpro/devkitarm/bin/../lib/gcc/arm-eabi/4.7.0/thumb\libgcc.a(libunwind.o)
 .bss           0x020c6a41        0x0 c:/devkitpro/devkitarm/bin/../lib/gcc/arm-eabi/4.7.0/thumb\libgcc.a(pr-support.o)
 .bss           0x020c6a41        0x0 c:/devkitpro/devkitarm/bin/../lib/gcc/arm-eabi/4.7.0/../../../../arm-eabi/lib/thumb\libc.a(lib_a-abort.o)
 .bss           0x020c6a41        0x0 c:/devkitpro/devkitarm/bin/../lib/gcc/arm-eabi/4.7.0/../../../../arm-eabi/lib/thumb\libc.a(lib_a-bsearch.o)
 .bss           0x020c6a41        0x0 c:/devkitpro/devkitarm/bin/../lib/gcc/arm-eabi/4.7.0/../../../../arm-eabi/lib/thumb\libc.a(lib_a-calloc.o)
 .bss           0x020c6a41        0x0 c:/devkitpro/devkitarm/bin/../lib/gcc/arm-eabi/4.7.0/../../../../arm-eabi/lib/thumb\libc.a(lib_a-callocr.o)
 .bss           0x020c6a41        0x0 c:/devkitpro/devkitarm/bin/../lib/gcc/arm-eabi/4.7.0/../../../../arm-eabi/lib/thumb\libc.a(lib_a-ctype_.o)
 .bss           0x020c6a41        0x0 c:/devkitpro/devkitarm/bin/../lib/gcc/arm-eabi/4.7.0/../../../../arm-eabi/lib/thumb\libc.a(lib_a-cxa_atexit.o)
 .bss           0x020c6a41        0x0 c:/devkitpro/devkitarm/bin/../lib/gcc/arm-eabi/4.7.0/../../../../arm-eabi/lib/thumb\libc.a(lib_a-errno.o)
 .bss           0x020c6a41        0x0 c:/devkitpro/devkitarm/bin/../lib/gcc/arm-eabi/4.7.0/../../../../arm-eabi/lib/thumb\libc.a(lib_a-fclose.o)
 .bss           0x020c6a41        0x0 c:/devkitpro/devkitarm/bin/../lib/gcc/arm-eabi/4.7.0/../../../../arm-eabi/lib/thumb\libc.a(lib_a-fflush.o)
 .bss           0x020c6a41        0x0 c:/devkitpro/devkitarm/bin/../lib/gcc/arm-eabi/4.7.0/../../../../arm-eabi/lib/thumb\libc.a(lib_a-fgetc.o)
 .bss           0x020c6a41        0x0 c:/devkitpro/devkitarm/bin/../lib/gcc/arm-eabi/4.7.0/../../../../arm-eabi/lib/thumb\libc.a(lib_a-findfp.o)
 .bss           0x020c6a41        0x0 c:/devkitpro/devkitarm/bin/../lib/gcc/arm-eabi/4.7.0/../../../../arm-eabi/lib/thumb\libc.a(lib_a-fopen.o)
 .bss           0x020c6a41        0x0 c:/devkitpro/devkitarm/bin/../lib/gcc/arm-eabi/4.7.0/../../../../arm-eabi/lib/thumb\libc.a(lib_a-fputc.o)
 .bss           0x020c6a41        0x0 c:/devkitpro/devkitarm/bin/../lib/gcc/arm-eabi/4.7.0/../../../../arm-eabi/lib/thumb\libc.a(lib_a-fputs.o)
 .bss           0x020c6a41        0x0 c:/devkitpro/devkitarm/bin/../lib/gcc/arm-eabi/4.7.0/../../../../arm-eabi/lib/thumb\libc.a(lib_a-fread.o)
 .bss           0x020c6a41        0x0 c:/devkitpro/devkitarm/bin/../lib/gcc/arm-eabi/4.7.0/../../../../arm-eabi/lib/thumb\libc.a(lib_a-freer.o)
 .bss           0x020c6a41        0x0 c:/devkitpro/devkitarm/bin/../lib/gcc/arm-eabi/4.7.0/../../../../arm-eabi/lib/thumb\libc.a(lib_a-fseek.o)
 .bss           0x020c6a41        0x0 c:/devkitpro/devkitarm/bin/../lib/gcc/arm-eabi/4.7.0/../../../../arm-eabi/lib/thumb\libc.a(lib_a-ftell.o)
 .bss           0x020c6a41        0x0 c:/devkitpro/devkitarm/bin/../lib/gcc/arm-eabi/4.7.0/../../../../arm-eabi/lib/thumb\libc.a(lib_a-fvwrite.o)
 .bss           0x020c6a41        0x0 c:/devkitpro/devkitarm/bin/../lib/gcc/arm-eabi/4.7.0/../../../../arm-eabi/lib/thumb\libc.a(lib_a-fwalk.o)
 .bss           0x020c6a41        0x0 c:/devkitpro/devkitarm/bin/../lib/gcc/arm-eabi/4.7.0/../../../../arm-eabi/lib/thumb\libc.a(lib_a-fwrite.o)
 .bss           0x020c6a41        0x0 c:/devkitpro/devkitarm/bin/../lib/gcc/arm-eabi/4.7.0/../../../../arm-eabi/lib/thumb\libc.a(lib_a-impure.o)
 .bss           0x020c6a41        0x0 c:/devkitpro/devkitarm/bin/../lib/gcc/arm-eabi/4.7.0/../../../../arm-eabi/lib/thumb\libc.a(lib_a-init.o)
 .bss           0x020c6a41        0x0 c:/devkitpro/devkitarm/bin/../lib/gcc/arm-eabi/4.7.0/../../../../arm-eabi/lib/thumb\libc.a(lib_a-iprintf.o)
 .bss           0x020c6a41        0x0 c:/devkitpro/devkitarm/bin/../lib/gcc/arm-eabi/4.7.0/../../../../arm-eabi/lib/thumb\libc.a(lib_a-lcltime.o)
 .bss           0x020c6a41        0x0 c:/devkitpro/devkitarm/bin/../lib/gcc/arm-eabi/4.7.0/../../../../arm-eabi/lib/thumb\libc.a(lib_a-lcltime_r.o)
 *fill*         0x020c6a41        0x3 00
 .bss           0x020c6a44      0x2b8 c:/devkitpro/devkitarm/bin/../lib/gcc/arm-eabi/4.7.0/../../../../arm-eabi/lib/thumb\libc.a(lib_a-locale.o)
                0x020c6cf0                _PathLocale
                0x020c6cf4                __mlocale_changed
                0x020c6cf8                __nlocale_changed
 .bss           0x020c6cfc        0x0 c:/devkitpro/devkitarm/bin/../lib/gcc/arm-eabi/4.7.0/../../../../arm-eabi/lib/thumb\libc.a(lib_a-makebuf.o)
 .bss           0x020c6cfc        0x0 c:/devkitpro/devkitarm/bin/../lib/gcc/arm-eabi/4.7.0/../../../../arm-eabi/lib/thumb\libc.a(lib_a-malloc.o)
 .bss           0x020c6cfc       0x34 c:/devkitpro/devkitarm/bin/../lib/gcc/arm-eabi/4.7.0/../../../../arm-eabi/lib/thumb\libc.a(lib_a-mallocr.o)
                0x020c6cfc                __malloc_top_pad
                0x020c6d00                __malloc_current_mallinfo
                0x020c6d28                __malloc_max_sbrked_mem
                0x020c6d2c                __malloc_max_total_mem
 .bss           0x020c6d30        0x0 c:/devkitpro/devkitarm/bin/../lib/gcc/arm-eabi/4.7.0/../../../../arm-eabi/lib/thumb\libc.a(lib_a-mbrtowc.o)
 .bss           0x020c6d30        0x0 c:/devkitpro/devkitarm/bin/../lib/gcc/arm-eabi/4.7.0/../../../../arm-eabi/lib/thumb\libc.a(lib_a-mbsrtowcs.o)
 .bss           0x020c6d30        0x0 c:/devkitpro/devkitarm/bin/../lib/gcc/arm-eabi/4.7.0/../../../../arm-eabi/lib/thumb\libc.a(lib_a-mbtowc_r.o)
 .bss           0x020c6d30        0x0 c:/devkitpro/devkitarm/bin/../lib/gcc/arm-eabi/4.7.0/../../../../arm-eabi/lib/thumb\libc.a(lib_a-memchr-stub.o)
 .bss           0x020c6d30        0x0 c:/devkitpro/devkitarm/bin/../lib/gcc/arm-eabi/4.7.0/../../../../arm-eabi/lib/thumb\libc.a(lib_a-memcmp.o)
 .bss           0x020c6d30        0x0 c:/devkitpro/devkitarm/bin/../lib/gcc/arm-eabi/4.7.0/../../../../arm-eabi/lib/thumb\libc.a(lib_a-memcpy-stub.o)
 .bss           0x020c6d30        0x0 c:/devkitpro/devkitarm/bin/../lib/gcc/arm-eabi/4.7.0/../../../../arm-eabi/lib/thumb\libc.a(lib_a-memmove.o)
 .bss           0x020c6d30        0x0 c:/devkitpro/devkitarm/bin/../lib/gcc/arm-eabi/4.7.0/../../../../arm-eabi/lib/thumb\libc.a(lib_a-memset.o)
 .bss           0x020c6d30        0x0 c:/devkitpro/devkitarm/bin/../lib/gcc/arm-eabi/4.7.0/../../../../arm-eabi/lib/thumb\libc.a(lib_a-mktime.o)
 .bss           0x020c6d30        0x0 c:/devkitpro/devkitarm/bin/../lib/gcc/arm-eabi/4.7.0/../../../../arm-eabi/lib/thumb\libc.a(lib_a-mktm_r.o)
 .bss           0x020c6d30        0x0 c:/devkitpro/devkitarm/bin/../lib/gcc/arm-eabi/4.7.0/../../../../arm-eabi/lib/thumb\libc.a(lib_a-mlock.o)
 .bss           0x020c6d30        0x0 c:/devkitpro/devkitarm/bin/../lib/gcc/arm-eabi/4.7.0/../../../../arm-eabi/lib/thumb\libc.a(lib_a-printf.o)
 .bss           0x020c6d30        0x0 c:/devkitpro/devkitarm/bin/../lib/gcc/arm-eabi/4.7.0/../../../../arm-eabi/lib/thumb\libc.a(lib_a-putc.o)
 .bss           0x020c6d30        0x0 c:/devkitpro/devkitarm/bin/../lib/gcc/arm-eabi/4.7.0/../../../../arm-eabi/lib/thumb\libc.a(lib_a-puts.o)
 .bss           0x020c6d30        0x0 c:/devkitpro/devkitarm/bin/../lib/gcc/arm-eabi/4.7.0/../../../../arm-eabi/lib/thumb\libc.a(lib_a-realloc.o)
 .bss           0x020c6d30        0x0 c:/devkitpro/devkitarm/bin/../lib/gcc/arm-eabi/4.7.0/../../../../arm-eabi/lib/thumb\libc.a(lib_a-reallocr.o)
 .bss           0x020c6d30        0x0 c:/devkitpro/devkitarm/bin/../lib/gcc/arm-eabi/4.7.0/../../../../arm-eabi/lib/thumb\libc.a(lib_a-refill.o)
 .bss           0x020c6d30        0x0 c:/devkitpro/devkitarm/bin/../lib/gcc/arm-eabi/4.7.0/../../../../arm-eabi/lib/thumb\libc.a(lib_a-rget.o)
 .bss           0x020c6d30        0x0 c:/devkitpro/devkitarm/bin/../lib/gcc/arm-eabi/4.7.0/../../../../arm-eabi/lib/thumb\libc.a(lib_a-setvbuf.o)
 .bss           0x020c6d30        0x0 c:/devkitpro/devkitarm/bin/../lib/gcc/arm-eabi/4.7.0/../../../../arm-eabi/lib/thumb\libc.a(lib_a-signal.o)
 .bss           0x020c6d30        0x0 c:/devkitpro/devkitarm/bin/../lib/gcc/arm-eabi/4.7.0/../../../../arm-eabi/lib/thumb\libc.a(lib_a-siscanf.o)
 .bss           0x020c6d30        0x0 c:/devkitpro/devkitarm/bin/../lib/gcc/arm-eabi/4.7.0/../../../../arm-eabi/lib/thumb\libc.a(lib_a-sprintf.o)
 .bss           0x020c6d30        0x0 c:/devkitpro/devkitarm/bin/../lib/gcc/arm-eabi/4.7.0/../../../../arm-eabi/lib/thumb\libc.a(lib_a-stdio.o)
 .bss           0x020c6d30        0x0 c:/devkitpro/devkitarm/bin/../lib/gcc/arm-eabi/4.7.0/../../../../arm-eabi/lib/thumb\libc.a(lib_a-strcasecmp.o)
 .bss           0x020c6d30        0x0 c:/devkitpro/devkitarm/bin/../lib/gcc/arm-eabi/4.7.0/../../../../arm-eabi/lib/thumb\libc.a(lib_a-strcat.o)
 .bss           0x020c6d30        0x0 c:/devkitpro/devkitarm/bin/../lib/gcc/arm-eabi/4.7.0/../../../../arm-eabi/lib/thumb\libc.a(lib_a-strchr.o)
 .bss           0x020c6d30        0x0 c:/devkitpro/devkitarm/bin/../lib/gcc/arm-eabi/4.7.0/../../../../arm-eabi/lib/thumb\libc.a(lib_a-strcmp.o)
 .bss           0x020c6d30        0x0 c:/devkitpro/devkitarm/bin/../lib/gcc/arm-eabi/4.7.0/../../../../arm-eabi/lib/thumb\libc.a(lib_a-strcpy.o)
 .bss           0x020c6d30        0x0 c:/devkitpro/devkitarm/bin/../lib/gcc/arm-eabi/4.7.0/../../../../arm-eabi/lib/thumb\libc.a(lib_a-strerror.o)
 .bss           0x020c6d30        0x0 c:/devkitpro/devkitarm/bin/../lib/gcc/arm-eabi/4.7.0/../../../../arm-eabi/lib/thumb\libc.a(lib_a-strlcpy.o)
 .bss           0x020c6d30        0x0 c:/devkitpro/devkitarm/bin/../lib/gcc/arm-eabi/4.7.0/../../../../arm-eabi/lib/thumb\libc.a(lib_a-strlen.o)
 .bss           0x020c6d30        0x0 c:/devkitpro/devkitarm/bin/../lib/gcc/arm-eabi/4.7.0/../../../../arm-eabi/lib/thumb\libc.a(lib_a-strncasecmp.o)
 .bss           0x020c6d30        0x0 c:/devkitpro/devkitarm/bin/../lib/gcc/arm-eabi/4.7.0/../../../../arm-eabi/lib/thumb\libc.a(lib_a-strncmp.o)
 .bss           0x020c6d30        0x0 c:/devkitpro/devkitarm/bin/../lib/gcc/arm-eabi/4.7.0/../../../../arm-eabi/lib/thumb\libc.a(lib_a-strncpy.o)
 .bss           0x020c6d30        0x0 c:/devkitpro/devkitarm/bin/../lib/gcc/arm-eabi/4.7.0/../../../../arm-eabi/lib/thumb\libc.a(lib_a-strnlen.o)
 .bss           0x020c6d30        0x0 c:/devkitpro/devkitarm/bin/../lib/gcc/arm-eabi/4.7.0/../../../../arm-eabi/lib/thumb\libc.a(lib_a-strpbrk.o)
 .bss           0x020c6d30        0x0 c:/devkitpro/devkitarm/bin/../lib/gcc/arm-eabi/4.7.0/../../../../arm-eabi/lib/thumb\libc.a(lib_a-strrchr.o)
 .bss           0x020c6d30        0x0 c:/devkitpro/devkitarm/bin/../lib/gcc/arm-eabi/4.7.0/../../../../arm-eabi/lib/thumb\libc.a(lib_a-strtol.o)
 .bss           0x020c6d30        0x0 c:/devkitpro/devkitarm/bin/../lib/gcc/arm-eabi/4.7.0/../../../../arm-eabi/lib/thumb\libc.a(lib_a-svfiscanf.o)
 .bss           0x020c6d30        0x0 c:/devkitpro/devkitarm/bin/../lib/gcc/arm-eabi/4.7.0/../../../../arm-eabi/lib/thumb\libc.a(lib_a-svfprintf.o)
 .bss           0x020c6d30        0x0 c:/devkitpro/devkitarm/bin/../lib/gcc/arm-eabi/4.7.0/../../../../arm-eabi/lib/thumb\libc.a(lib_a-sysclose.o)
 .bss           0x020c6d30        0x0 c:/devkitpro/devkitarm/bin/../lib/gcc/arm-eabi/4.7.0/../../../../arm-eabi/lib/thumb\libc.a(lib_a-syslseek.o)
 .bss           0x020c6d30        0x0 c:/devkitpro/devkitarm/bin/../lib/gcc/arm-eabi/4.7.0/../../../../arm-eabi/lib/thumb\libc.a(lib_a-sysopen.o)
 .bss           0x020c6d30        0x0 c:/devkitpro/devkitarm/bin/../lib/gcc/arm-eabi/4.7.0/../../../../arm-eabi/lib/thumb\libc.a(lib_a-sysread.o)
 .bss           0x020c6d30        0x0 c:/devkitpro/devkitarm/bin/../lib/gcc/arm-eabi/4.7.0/../../../../arm-eabi/lib/thumb\libc.a(lib_a-syssbrk.o)
 .bss           0x020c6d30        0x0 c:/devkitpro/devkitarm/bin/../lib/gcc/arm-eabi/4.7.0/../../../../arm-eabi/lib/thumb\libc.a(lib_a-sysstat.o)
 .bss           0x020c6d30        0x0 c:/devkitpro/devkitarm/bin/../lib/gcc/arm-eabi/4.7.0/../../../../arm-eabi/lib/thumb\libc.a(lib_a-syswrite.o)
 .bss           0x020c6d30        0x0 c:/devkitpro/devkitarm/bin/../lib/gcc/arm-eabi/4.7.0/../../../../arm-eabi/lib/thumb\libc.a(lib_a-time.o)
 .bss           0x020c6d30        0x0 c:/devkitpro/devkitarm/bin/../lib/gcc/arm-eabi/4.7.0/../../../../arm-eabi/lib/thumb\libc.a(lib_a-towlower.o)
 .bss           0x020c6d30        0x0 c:/devkitpro/devkitarm/bin/../lib/gcc/arm-eabi/4.7.0/../../../../arm-eabi/lib/thumb\libc.a(lib_a-towupper.o)
 .bss           0x020c6d30        0x0 c:/devkitpro/devkitarm/bin/../lib/gcc/arm-eabi/4.7.0/../../../../arm-eabi/lib/thumb\libc.a(lib_a-tzlock.o)
 .bss           0x020c6d30        0x8 c:/devkitpro/devkitarm/bin/../lib/gcc/arm-eabi/4.7.0/../../../../arm-eabi/lib/thumb\libc.a(lib_a-tzvars.o)
                0x020c6d30                _timezone
                0x020c6d34                _daylight
 .bss           0x020c6d38        0x0 c:/devkitpro/devkitarm/bin/../lib/gcc/arm-eabi/4.7.0/../../../../arm-eabi/lib/thumb\libc.a(lib_a-ungetc.o)
 .bss           0x020c6d38        0x0 c:/devkitpro/devkitarm/bin/../lib/gcc/arm-eabi/4.7.0/../../../../arm-eabi/lib/thumb\libc.a(lib_a-u_strerr.o)
 .bss           0x020c6d38        0x0 c:/devkitpro/devkitarm/bin/../lib/gcc/arm-eabi/4.7.0/../../../../arm-eabi/lib/thumb\libc.a(lib_a-vfiprintf.o)
 .bss           0x020c6d38        0x0 c:/devkitpro/devkitarm/bin/../lib/gcc/arm-eabi/4.7.0/../../../../arm-eabi/lib/thumb\libc.a(lib_a-vfprintf.o)
 .bss           0x020c6d38        0x0 c:/devkitpro/devkitarm/bin/../lib/gcc/arm-eabi/4.7.0/../../../../arm-eabi/lib/thumb\libc.a(lib_a-vsnprintf.o)
 .bss           0x020c6d38        0x0 c:/devkitpro/devkitarm/bin/../lib/gcc/arm-eabi/4.7.0/../../../../arm-eabi/lib/thumb\libc.a(lib_a-wbuf.o)
 .bss           0x020c6d38        0x0 c:/devkitpro/devkitarm/bin/../lib/gcc/arm-eabi/4.7.0/../../../../arm-eabi/lib/thumb\libc.a(lib_a-wcrtomb.o)
 .bss           0x020c6d38        0x0 c:/devkitpro/devkitarm/bin/../lib/gcc/arm-eabi/4.7.0/../../../../arm-eabi/lib/thumb\libc.a(lib_a-wcsrtombs.o)
 .bss           0x020c6d38        0x0 c:/devkitpro/devkitarm/bin/../lib/gcc/arm-eabi/4.7.0/../../../../arm-eabi/lib/thumb\libc.a(lib_a-wctob.o)
 .bss           0x020c6d38        0x0 c:/devkitpro/devkitarm/bin/../lib/gcc/arm-eabi/4.7.0/../../../../arm-eabi/lib/thumb\libc.a(lib_a-wctomb_r.o)
 .bss           0x020c6d38        0x0 c:/devkitpro/devkitarm/bin/../lib/gcc/arm-eabi/4.7.0/../../../../arm-eabi/lib/thumb\libc.a(lib_a-wsetup.o)
 .bss           0x020c6d38        0x0 c:/devkitpro/devkitarm/bin/../lib/gcc/arm-eabi/4.7.0/../../../../arm-eabi/lib/thumb\libc.a(lib_a-__atexit.o)
 .bss           0x020c6d38        0x0 c:/devkitpro/devkitarm/bin/../lib/gcc/arm-eabi/4.7.0/../../../../arm-eabi/lib/thumb\libc.a(lib_a-div.o)
 .bss           0x020c6d38        0x0 c:/devkitpro/devkitarm/bin/../lib/gcc/arm-eabi/4.7.0/../../../../arm-eabi/lib/thumb\libc.a(lib_a-dtoa.o)
 .bss           0x020c6d38        0x0 c:/devkitpro/devkitarm/bin/../lib/gcc/arm-eabi/4.7.0/../../../../arm-eabi/lib/thumb\libc.a(lib_a-flags.o)
 .bss           0x020c6d38        0x0 c:/devkitpro/devkitarm/bin/../lib/gcc/arm-eabi/4.7.0/../../../../arm-eabi/lib/thumb\libc.a(lib_a-fputwc.o)
 .bss           0x020c6d38        0x0 c:/devkitpro/devkitarm/bin/../lib/gcc/arm-eabi/4.7.0/../../../../arm-eabi/lib/thumb\libc.a(lib_a-getenv_r.o)
 .bss           0x020c6d38        0x0 c:/devkitpro/devkitarm/bin/../lib/gcc/arm-eabi/4.7.0/../../../../arm-eabi/lib/thumb\libc.a(lib_a-gettzinfo.o)
 .bss           0x020c6d38        0x0 c:/devkitpro/devkitarm/bin/../lib/gcc/arm-eabi/4.7.0/../../../../arm-eabi/lib/thumb\libc.a(lib_a-iswspace.o)
 .bss           0x020c6d38        0x0 c:/devkitpro/devkitarm/bin/../lib/gcc/arm-eabi/4.7.0/../../../../arm-eabi/lib/thumb\libc.a(lib_a-jp2uc.o)
 .bss           0x020c6d38        0x0 c:/devkitpro/devkitarm/bin/../lib/gcc/arm-eabi/4.7.0/../../../../arm-eabi/lib/thumb\libc.a(lib_a-mbsnrtowcs.o)
 .bss           0x020c6d38        0x0 c:/devkitpro/devkitarm/bin/../lib/gcc/arm-eabi/4.7.0/../../../../arm-eabi/lib/thumb\libc.a(lib_a-mprec.o)
 .bss           0x020c6d38        0x0 c:/devkitpro/devkitarm/bin/../lib/gcc/arm-eabi/4.7.0/../../../../arm-eabi/lib/thumb\libc.a(lib_a-sccl.o)
 .bss           0x020c6d38        0x0 c:/devkitpro/devkitarm/bin/../lib/gcc/arm-eabi/4.7.0/../../../../arm-eabi/lib/thumb\libc.a(lib_a-strtoll_r.o)
 .bss           0x020c6d38        0x0 c:/devkitpro/devkitarm/bin/../lib/gcc/arm-eabi/4.7.0/../../../../arm-eabi/lib/thumb\libc.a(lib_a-strtoull_r.o)
 .bss           0x020c6d38        0x0 c:/devkitpro/devkitarm/bin/../lib/gcc/arm-eabi/4.7.0/../../../../arm-eabi/lib/thumb\libc.a(lib_a-strtoul.o)
 .bss           0x020c6d38        0x0 c:/devkitpro/devkitarm/bin/../lib/gcc/arm-eabi/4.7.0/../../../../arm-eabi/lib/thumb\libc.a(lib_a-svfiprintf.o)
 .bss           0x020c6d38        0x0 c:/devkitpro/devkitarm/bin/../lib/gcc/arm-eabi/4.7.0/../../../../arm-eabi/lib/thumb\libc.a(lib_a-wcsnrtombs.o)
 .bss           0x020c6d38        0x4 c:/devkitpro/devkitarm/bin/../lib/gcc/arm-eabi/4.7.0/../../../../arm-eabi/lib/thumb\libc.a(lib_a-environ.o)
 .bss           0x020c6d3c        0x0 c:/devkitpro/devkitarm/bin/../lib/gcc/arm-eabi/4.7.0/../../../../arm-eabi/lib/thumb\libc.a(lib_a-envlock.o)
 .bss           0x020c6d3c        0x0 c:/devkitpro/devkitarm/bin/../lib/gcc/arm-eabi/4.7.0/../../../../arm-eabi/lib/thumb\libsysbase.a(iosupport.o)
 .bss           0x020c6d3c        0x0 c:/devkitpro/devkitarm/bin/../lib/gcc/arm-eabi/4.7.0/../../../../arm-eabi/lib/thumb\libsysbase.a(close.o)
 .bss           0x020c6d3c        0x0 c:/devkitpro/devkitarm/bin/../lib/gcc/arm-eabi/4.7.0/../../../../arm-eabi/lib/thumb\libsysbase.a(fstat.o)
 .bss           0x020c6d3c        0x0 c:/devkitpro/devkitarm/bin/../lib/gcc/arm-eabi/4.7.0/../../../../arm-eabi/lib/thumb\libsysbase.a(getpid.o)
 .bss           0x020c6d3c        0x0 c:/devkitpro/devkitarm/bin/../lib/gcc/arm-eabi/4.7.0/../../../../arm-eabi/lib/thumb\libsysbase.a(isatty.o)
 .bss           0x020c6d3c        0x0 c:/devkitpro/devkitarm/bin/../lib/gcc/arm-eabi/4.7.0/../../../../arm-eabi/lib/thumb\libsysbase.a(kill.o)
 .bss           0x020c6d3c        0x0 c:/devkitpro/devkitarm/bin/../lib/gcc/arm-eabi/4.7.0/../../../../arm-eabi/lib/thumb\libsysbase.a(lseek.o)
 .bss           0x020c6d3c        0x0 c:/devkitpro/devkitarm/bin/../lib/gcc/arm-eabi/4.7.0/../../../../arm-eabi/lib/thumb\libsysbase.a(open.o)
 .bss           0x020c6d3c        0x0 c:/devkitpro/devkitarm/bin/../lib/gcc/arm-eabi/4.7.0/../../../../arm-eabi/lib/thumb\libsysbase.a(read.o)
 .bss           0x020c6d3c        0x4 c:/devkitpro/devkitarm/bin/../lib/gcc/arm-eabi/4.7.0/../../../../arm-eabi/lib/thumb\libsysbase.a(sbrk.o)
 .bss           0x020c6d40        0x0 c:/devkitpro/devkitarm/bin/../lib/gcc/arm-eabi/4.7.0/../../../../arm-eabi/lib/thumb\libsysbase.a(stat.o)
 .bss           0x020c6d40        0x0 c:/devkitpro/devkitarm/bin/../lib/gcc/arm-eabi/4.7.0/../../../../arm-eabi/lib/thumb\libsysbase.a(times.o)
 .bss           0x020c6d40        0x0 c:/devkitpro/devkitarm/bin/../lib/gcc/arm-eabi/4.7.0/../../../../arm-eabi/lib/thumb\libsysbase.a(write.o)
 .bss           0x020c6d40        0x0 c:/devkitpro/devkitarm/bin/../lib/gcc/arm-eabi/4.7.0/../../../../arm-eabi/lib/thumb\libsysbase.a(_exit.o)
 .bss           0x020c6d40        0x8 c:/devkitpro/devkitarm/bin/../lib/gcc/arm-eabi/4.7.0/../../../../arm-eabi/lib/thumb\libsysbase.a(malloc_vars.o)
                0x020c6d40                fake_heap_start
                0x020c6d44                fake_heap_end
 .bss           0x020c6d48        0x0 c:/devkitpro/devkitarm/bin/../lib/gcc/arm-eabi/4.7.0/../../../../arm-eabi/lib/thumb\libsysbase.a(chdir.o)
 .bss           0x020c6d48        0x0 c:/devkitpro/devkitarm/bin/../lib/gcc/arm-eabi/4.7.0/../../../../arm-eabi/lib/thumb\libsysbase.a(build_argv.o)
 .bss           0x020c6d48        0x8 c:/devkitpro/devkitarm/bin/../lib/gcc/arm-eabi/4.7.0/../../../../arm-eabi/lib/thumb\libsysbase.a(syscall_support.o)
                0x020c6d48                __syscalls
 .bss           0x020c6d50     0x1000 c:/devkitpro/devkitarm/bin/../lib/gcc/arm-eabi/4.7.0/../../../../arm-eabi/lib/thumb\libsysbase.a(handle_manager.o)
 .bss           0x020c7d50        0x0 c:/devkitpro/devkitarm/bin/../lib/gcc/arm-eabi/4.7.0/../../../../arm-eabi/lib/thumb\libsysbase.a(dirent.o)
 .bss           0x020c7d50        0x0 c:/devkitpro/devkitarm/bin/../lib/gcc/arm-eabi/4.7.0/thumb\libgcc.a(_aeabi_uldivmod.o)
 .bss           0x020c7d50        0x0 c:/devkitpro/devkitarm/bin/../lib/gcc/arm-eabi/4.7.0/thumb\libgcc.a(bpabi.o)
 .bss           0x020c7d50        0x0 c:/devkitpro/devkitarm/bin/../lib/gcc/arm-eabi/4.7.0/thumb\libgcc.a(_divdi3.o)
 .bss           0x020c7d50        0x0 c:/devkitpro/devkitarm/bin/../lib/gcc/arm-eabi/4.7.0/thumb\libgcc.a(_udivdi3.o)
 .bss           0x020c7d50        0x0 c:/devkitpro/devkitarm/bin/../lib/gcc/arm-eabi/4.7.0/thumb/crtend.o
 .bss           0x020c7d50        0x0 c:/devkitpro/devkitarm/bin/../lib/gcc/arm-eabi/4.7.0/thumb/crtn.o
 *(COMMON)
 COMMON         0x020c7d50      0x148 background.o
                0x020c7d50                bgState
                0x020c7e90                bgIsTextLut
 COMMON         0x020c7e98       0x5c console.o
                0x020c7e98                currentCopy
 COMMON         0x020c7ef4        0x4 c:/devkitpro/devkitarm/bin/../lib/gcc/arm-eabi/4.7.0/../../../../arm-eabi/lib/thumb\libsysbase.a(times.o)
                0x020c7ef4                punixTime
                0x020c7ef8                . = ALIGN (0x4)
                0x020c7ef8                __bss_end__ = ABSOLUTE (.)
                0x020c7ef8                __end__ = ABSOLUTE (.)

.stab
 *(.stab)

.stabstr
 *(.stabstr)

.stab.excl
 *(.stab.excl)

.stab.exclstr
 *(.stab.exclstr)

.stab.index
 *(.stab.index)

.stab.indexstr
 *(.stab.indexstr)

.comment        0x00000000       0x44
 *(.comment)
 .comment       0x00000000       0x22 c:/devkitpro/devkitarm/bin/../lib/gcc/arm-eabi/4.7.0/thumb/crtbegin.o
                                 0x23 (size before relaxing)
 .comment       0x00000000       0x23 EEprom.o
 .comment       0x00000000       0x23 Flash.o
 .comment       0x00000000       0x23 GBA.o
 .comment       0x00000000       0x23 Globals.o
 .comment       0x00000000       0x23 RTC.o
 .comment       0x00000000       0x23 Sram.o
 .comment       0x00000000       0x23 Util.o
 .comment       0x00000000       0x23 agbprint.o
 .comment       0x00000000       0x23 armdis.o
 .comment       0x00000000       0x23 bios.o
 .comment       0x00000000       0x23 cpumg.o
 .comment       0x00000000       0x23 file_browse.o
 .comment       0x00000000       0x23 main.o
 .comment       0x00000000       0x23 mydebuger.o
 .comment       0x00000000       0x23 sound.o
 .comment       0x00000000       0x23 system.o
 .comment       0x00000000       0x23 background.o
 .comment       0x00000000       0x23 console.o
 .comment       0x00000000       0x23 devkitpatcher.o
 .comment       0x00000000       0x23 dldi.o
 .comment       0x00000000       0x23 heapfuncs.o
 .comment       0x00000000       0x23 interrupts.o
 .comment       0x00000000       0x23 keys.o
 .comment       0x00000000       0x23 libnds_exit.o
 .comment       0x00000000       0x23 sassert.o
 .comment       0x00000000       0x23 trig.o
 .comment       0x00000000       0x23 video.o
 .comment       0x00000022       0x22 c:/devkitPro/libnds/lib\libfat.a(libfat.o)
                                 0x23 (size before relaxing)
 .comment       0x00000000       0x23 c:/devkitPro/libnds/lib\libfat.a(partition.o)
 .comment       0x00000000       0x23 c:/devkitPro/libnds/lib\libfat.a(cache.o)
 .comment       0x00000000       0x23 c:/devkitPro/libnds/lib\libfat.a(directory.o)
 .comment       0x00000000       0x23 c:/devkitPro/libnds/lib\libfat.a(disc.o)
 .comment       0x00000000       0x23 c:/devkitPro/libnds/lib\libfat.a(fatdir.o)
 .comment       0x00000000       0x23 c:/devkitPro/libnds/lib\libfat.a(fatfile.o)
 .comment       0x00000000       0x23 c:/devkitPro/libnds/lib\libfat.a(file_allocation_table.o)
 .comment       0x00000000       0x23 c:/devkitPro/libnds/lib\libfat.a(filetime.o)
 .comment       0x00000000       0x23 c:/devkitPro/libnds/lib\libfat.a(lock.o)
 .comment       0x00000000       0x23 c:/devkitpro/devkitarm/bin/../lib/gcc/arm-eabi/4.7.0/../../../../arm-eabi/lib/thumb\libstdc++.a(new_op.o)
 .comment       0x00000000       0x23 c:/devkitpro/devkitarm/bin/../lib/gcc/arm-eabi/4.7.0/../../../../arm-eabi/lib/thumb\libstdc++.a(eh_call.o)
 .comment       0x00000000       0x23 c:/devkitpro/devkitarm/bin/../lib/gcc/arm-eabi/4.7.0/../../../../arm-eabi/lib/thumb\libstdc++.a(eh_personality.o)
 .comment       0x00000000       0x23 c:/devkitpro/devkitarm/bin/../lib/gcc/arm-eabi/4.7.0/../../../../arm-eabi/lib/thumb\libstdc++.a(del_op.o)
 .comment       0x00000000       0x23 c:/devkitpro/devkitarm/bin/../lib/gcc/arm-eabi/4.7.0/../../../../arm-eabi/lib/thumb\libstdc++.a(eh_terminate.o)
 .comment       0x00000000       0x23 c:/devkitpro/devkitarm/bin/../lib/gcc/arm-eabi/4.7.0/../../../../arm-eabi/lib/thumb\libstdc++.a(eh_exception.o)
 .comment       0x00000000       0x23 c:/devkitpro/devkitarm/bin/../lib/gcc/arm-eabi/4.7.0/../../../../arm-eabi/lib/thumb\libstdc++.a(eh_alloc.o)
 .comment       0x00000000       0x23 c:/devkitpro/devkitarm/bin/../lib/gcc/arm-eabi/4.7.0/../../../../arm-eabi/lib/thumb\libstdc++.a(bad_alloc.o)
 .comment       0x00000000       0x23 c:/devkitpro/devkitarm/bin/../lib/gcc/arm-eabi/4.7.0/../../../../arm-eabi/lib/thumb\libstdc++.a(class_type_info.o)
 .comment       0x00000000       0x23 c:/devkitpro/devkitarm/bin/../lib/gcc/arm-eabi/4.7.0/../../../../arm-eabi/lib/thumb\libstdc++.a(new_handler.o)
 .comment       0x00000000       0x23 c:/devkitpro/devkitarm/bin/../lib/gcc/arm-eabi/4.7.0/../../../../arm-eabi/lib/thumb\libstdc++.a(string-inst.o)
 .comment       0x00000000       0x23 c:/devkitpro/devkitarm/bin/../lib/gcc/arm-eabi/4.7.0/../../../../arm-eabi/lib/thumb\libstdc++.a(functexcept.o)
 .comment       0x00000000       0x23 c:/devkitpro/devkitarm/bin/../lib/gcc/arm-eabi/4.7.0/../../../../arm-eabi/lib/thumb\libstdc++.a(eh_arm.o)
 .comment       0x00000000       0x23 c:/devkitpro/devkitarm/bin/../lib/gcc/arm-eabi/4.7.0/../../../../arm-eabi/lib/thumb\libstdc++.a(eh_throw.o)
 .comment       0x00000000       0x23 c:/devkitpro/devkitarm/bin/../lib/gcc/arm-eabi/4.7.0/../../../../arm-eabi/lib/thumb\libstdc++.a(pure.o)
 .comment       0x00000000       0x23 c:/devkitpro/devkitarm/bin/../lib/gcc/arm-eabi/4.7.0/../../../../arm-eabi/lib/thumb\libstdc++.a(bad_cast.o)
 .comment       0x00000000       0x23 c:/devkitpro/devkitarm/bin/../lib/gcc/arm-eabi/4.7.0/../../../../arm-eabi/lib/thumb\libstdc++.a(eh_globals.o)
 .comment       0x00000000       0x23 c:/devkitpro/devkitarm/bin/../lib/gcc/arm-eabi/4.7.0/../../../../arm-eabi/lib/thumb\libstdc++.a(eh_catch.o)
 .comment       0x00000000       0x23 c:/devkitpro/devkitarm/bin/../lib/gcc/arm-eabi/4.7.0/../../../../arm-eabi/lib/thumb\libstdc++.a(si_class_type_info.o)
 .comment       0x00000000       0x23 c:/devkitpro/devkitarm/bin/../lib/gcc/arm-eabi/4.7.0/../../../../arm-eabi/lib/thumb\libstdc++.a(eh_unex_handler.o)
 .comment       0x00000000       0x23 c:/devkitpro/devkitarm/bin/../lib/gcc/arm-eabi/4.7.0/../../../../arm-eabi/lib/thumb\libstdc++.a(tinfo.o)
 .comment       0x00000000       0x23 c:/devkitpro/devkitarm/bin/../lib/gcc/arm-eabi/4.7.0/../../../../arm-eabi/lib/thumb\libstdc++.a(bad_typeid.o)
 .comment       0x00000000       0x23 c:/devkitpro/devkitarm/bin/../lib/gcc/arm-eabi/4.7.0/../../../../arm-eabi/lib/thumb\libstdc++.a(eh_term_handler.o)
 .comment       0x00000000       0x23 c:/devkitpro/devkitarm/bin/../lib/gcc/arm-eabi/4.7.0/../../../../arm-eabi/lib/thumb\libstdc++.a(ios_failure.o)
 .comment       0x00000000       0x23 c:/devkitpro/devkitarm/bin/../lib/gcc/arm-eabi/4.7.0/../../../../arm-eabi/lib/thumb\libstdc++.a(stdexcept.o)
 .comment       0x00000000       0x23 c:/devkitpro/devkitarm/bin/../lib/gcc/arm-eabi/4.7.0/../../../../arm-eabi/lib/thumb\libstdc++.a(functional.o)
 .comment       0x00000000       0x23 c:/devkitpro/devkitarm/bin/../lib/gcc/arm-eabi/4.7.0/../../../../arm-eabi/lib/thumb\libstdc++.a(future.o)
 .comment       0x00000000       0x23 c:/devkitpro/devkitarm/bin/../lib/gcc/arm-eabi/4.7.0/../../../../arm-eabi/lib/thumb\libstdc++.a(regex.o)
 .comment       0x00000000       0x23 c:/devkitpro/devkitarm/bin/../lib/gcc/arm-eabi/4.7.0/../../../../arm-eabi/lib/thumb\libstdc++.a(system_error.o)
 .comment       0x00000000       0x23 c:/devkitpro/devkitarm/bin/../lib/gcc/arm-eabi/4.7.0/../../../../arm-eabi/lib/thumb\libstdc++.a(guard.o)
 .comment       0x00000000       0x23 c:/devkitpro/devkitarm/bin/../lib/gcc/arm-eabi/4.7.0/../../../../arm-eabi/lib/thumb\libstdc++.a(vterminate.o)
 .comment       0x00000000       0x23 c:/devkitpro/devkitarm/bin/../lib/gcc/arm-eabi/4.7.0/../../../../arm-eabi/lib/thumb\libstdc++.a(guard_error.o)
 .comment       0x00000000       0x23 c:/devkitpro/devkitarm/bin/../lib/gcc/arm-eabi/4.7.0/../../../../arm-eabi/lib/thumb\libstdc++.a(atexit_arm.o)
 .comment       0x00000000       0x23 c:/devkitpro/devkitarm/bin/../lib/gcc/arm-eabi/4.7.0/../../../../arm-eabi/lib/thumb\libstdc++.a(eh_type.o)
 .comment       0x00000000       0x23 c:/devkitpro/devkitarm/bin/../lib/gcc/arm-eabi/4.7.0/../../../../arm-eabi/lib/thumb\libstdc++.a(cp-demangle.o)
 .comment       0x00000000       0x23 c:/devkitpro/devkitarm/bin/../lib/gcc/arm-eabi/4.7.0/../../../../arm-eabi/lib/thumb\libm.a(lib_a-w_pow.o)
 .comment       0x00000000       0x23 c:/devkitpro/devkitarm/bin/../lib/gcc/arm-eabi/4.7.0/../../../../arm-eabi/lib/thumb\libm.a(lib_a-w_sqrt.o)
 .comment       0x00000000       0x23 c:/devkitpro/devkitarm/bin/../lib/gcc/arm-eabi/4.7.0/../../../../arm-eabi/lib/thumb\libm.a(lib_a-e_pow.o)
 .comment       0x00000000       0x23 c:/devkitpro/devkitarm/bin/../lib/gcc/arm-eabi/4.7.0/../../../../arm-eabi/lib/thumb\libm.a(lib_a-e_sqrt.o)
 .comment       0x00000000       0x23 c:/devkitpro/devkitarm/bin/../lib/gcc/arm-eabi/4.7.0/../../../../arm-eabi/lib/thumb\libm.a(lib_a-s_fabs.o)
 .comment       0x00000000       0x23 c:/devkitpro/devkitarm/bin/../lib/gcc/arm-eabi/4.7.0/../../../../arm-eabi/lib/thumb\libm.a(lib_a-s_finite.o)
 .comment       0x00000000       0x23 c:/devkitpro/devkitarm/bin/../lib/gcc/arm-eabi/4.7.0/../../../../arm-eabi/lib/thumb\libm.a(lib_a-s_fpclassify.o)
 .comment       0x00000000       0x23 c:/devkitpro/devkitarm/bin/../lib/gcc/arm-eabi/4.7.0/../../../../arm-eabi/lib/thumb\libm.a(lib_a-s_lib_ver.o)
 .comment       0x00000000       0x23 c:/devkitpro/devkitarm/bin/../lib/gcc/arm-eabi/4.7.0/../../../../arm-eabi/lib/thumb\libm.a(lib_a-s_matherr.o)
 .comment       0x00000000       0x23 c:/devkitpro/devkitarm/bin/../lib/gcc/arm-eabi/4.7.0/../../../../arm-eabi/lib/thumb\libm.a(lib_a-s_nan.o)
 .comment       0x00000000       0x23 c:/devkitpro/devkitarm/bin/../lib/gcc/arm-eabi/4.7.0/../../../../arm-eabi/lib/thumb\libm.a(lib_a-s_rint.o)
 .comment       0x00000000       0x23 c:/devkitpro/devkitarm/bin/../lib/gcc/arm-eabi/4.7.0/../../../../arm-eabi/lib/thumb\libm.a(lib_a-s_scalbn.o)
 .comment       0x00000000       0x23 c:/devkitpro/devkitarm/bin/../lib/gcc/arm-eabi/4.7.0/../../../../arm-eabi/lib/thumb\libm.a(lib_a-s_copysign.o)
 .comment       0x00000000       0x23 c:/devkitpro/devkitarm/bin/../lib/gcc/arm-eabi/4.7.0/thumb\libgcc.a(_muldi3.o)
 .comment       0x00000000       0x23 c:/devkitpro/devkitarm/bin/../lib/gcc/arm-eabi/4.7.0/thumb\libgcc.a(unwind-arm.o)
 .comment       0x00000000       0x23 c:/devkitpro/devkitarm/bin/../lib/gcc/arm-eabi/4.7.0/thumb\libgcc.a(pr-support.o)
 .comment       0x00000000       0x23 c:/devkitpro/devkitarm/bin/../lib/gcc/arm-eabi/4.7.0/../../../../arm-eabi/lib/thumb\libc.a(lib_a-abort.o)
 .comment       0x00000000       0x23 c:/devkitpro/devkitarm/bin/../lib/gcc/arm-eabi/4.7.0/../../../../arm-eabi/lib/thumb\libc.a(lib_a-bsearch.o)
 .comment       0x00000000       0x23 c:/devkitpro/devkitarm/bin/../lib/gcc/arm-eabi/4.7.0/../../../../arm-eabi/lib/thumb\libc.a(lib_a-calloc.o)
 .comment       0x00000000       0x23 c:/devkitpro/devkitarm/bin/../lib/gcc/arm-eabi/4.7.0/../../../../arm-eabi/lib/thumb\libc.a(lib_a-callocr.o)
 .comment       0x00000000       0x23 c:/devkitpro/devkitarm/bin/../lib/gcc/arm-eabi/4.7.0/../../../../arm-eabi/lib/thumb\libc.a(lib_a-ctype_.o)
 .comment       0x00000000       0x23 c:/devkitpro/devkitarm/bin/../lib/gcc/arm-eabi/4.7.0/../../../../arm-eabi/lib/thumb\libc.a(lib_a-cxa_atexit.o)
 .comment       0x00000000       0x23 c:/devkitpro/devkitarm/bin/../lib/gcc/arm-eabi/4.7.0/../../../../arm-eabi/lib/thumb\libc.a(lib_a-errno.o)
 .comment       0x00000000       0x23 c:/devkitpro/devkitarm/bin/../lib/gcc/arm-eabi/4.7.0/../../../../arm-eabi/lib/thumb\libc.a(lib_a-fclose.o)
 .comment       0x00000000       0x23 c:/devkitpro/devkitarm/bin/../lib/gcc/arm-eabi/4.7.0/../../../../arm-eabi/lib/thumb\libc.a(lib_a-fflush.o)
 .comment       0x00000000       0x23 c:/devkitpro/devkitarm/bin/../lib/gcc/arm-eabi/4.7.0/../../../../arm-eabi/lib/thumb\libc.a(lib_a-fgetc.o)
 .comment       0x00000000       0x23 c:/devkitpro/devkitarm/bin/../lib/gcc/arm-eabi/4.7.0/../../../../arm-eabi/lib/thumb\libc.a(lib_a-findfp.o)
 .comment       0x00000000       0x23 c:/devkitpro/devkitarm/bin/../lib/gcc/arm-eabi/4.7.0/../../../../arm-eabi/lib/thumb\libc.a(lib_a-fopen.o)
 .comment       0x00000000       0x23 c:/devkitpro/devkitarm/bin/../lib/gcc/arm-eabi/4.7.0/../../../../arm-eabi/lib/thumb\libc.a(lib_a-fputc.o)
 .comment       0x00000000       0x23 c:/devkitpro/devkitarm/bin/../lib/gcc/arm-eabi/4.7.0/../../../../arm-eabi/lib/thumb\libc.a(lib_a-fputs.o)
 .comment       0x00000000       0x23 c:/devkitpro/devkitarm/bin/../lib/gcc/arm-eabi/4.7.0/../../../../arm-eabi/lib/thumb\libc.a(lib_a-fread.o)
 .comment       0x00000000       0x23 c:/devkitpro/devkitarm/bin/../lib/gcc/arm-eabi/4.7.0/../../../../arm-eabi/lib/thumb\libc.a(lib_a-freer.o)
 .comment       0x00000000       0x23 c:/devkitpro/devkitarm/bin/../lib/gcc/arm-eabi/4.7.0/../../../../arm-eabi/lib/thumb\libc.a(lib_a-fseek.o)
 .comment       0x00000000       0x23 c:/devkitpro/devkitarm/bin/../lib/gcc/arm-eabi/4.7.0/../../../../arm-eabi/lib/thumb\libc.a(lib_a-ftell.o)
 .comment       0x00000000       0x23 c:/devkitpro/devkitarm/bin/../lib/gcc/arm-eabi/4.7.0/../../../../arm-eabi/lib/thumb\libc.a(lib_a-fvwrite.o)
 .comment       0x00000000       0x23 c:/devkitpro/devkitarm/bin/../lib/gcc/arm-eabi/4.7.0/../../../../arm-eabi/lib/thumb\libc.a(lib_a-fwalk.o)
 .comment       0x00000000       0x23 c:/devkitpro/devkitarm/bin/../lib/gcc/arm-eabi/4.7.0/../../../../arm-eabi/lib/thumb\libc.a(lib_a-fwrite.o)
 .comment       0x00000000       0x23 c:/devkitpro/devkitarm/bin/../lib/gcc/arm-eabi/4.7.0/../../../../arm-eabi/lib/thumb\libc.a(lib_a-impure.o)
 .comment       0x00000000       0x23 c:/devkitpro/devkitarm/bin/../lib/gcc/arm-eabi/4.7.0/../../../../arm-eabi/lib/thumb\libc.a(lib_a-init.o)
 .comment       0x00000000       0x23 c:/devkitpro/devkitarm/bin/../lib/gcc/arm-eabi/4.7.0/../../../../arm-eabi/lib/thumb\libc.a(lib_a-iprintf.o)
 .comment       0x00000000       0x23 c:/devkitpro/devkitarm/bin/../lib/gcc/arm-eabi/4.7.0/../../../../arm-eabi/lib/thumb\libc.a(lib_a-lcltime.o)
 .comment       0x00000000       0x23 c:/devkitpro/devkitarm/bin/../lib/gcc/arm-eabi/4.7.0/../../../../arm-eabi/lib/thumb\libc.a(lib_a-lcltime_r.o)
 .comment       0x00000000       0x23 c:/devkitpro/devkitarm/bin/../lib/gcc/arm-eabi/4.7.0/../../../../arm-eabi/lib/thumb\libc.a(lib_a-locale.o)
 .comment       0x00000000       0x23 c:/devkitpro/devkitarm/bin/../lib/gcc/arm-eabi/4.7.0/../../../../arm-eabi/lib/thumb\libc.a(lib_a-makebuf.o)
 .comment       0x00000000       0x23 c:/devkitpro/devkitarm/bin/../lib/gcc/arm-eabi/4.7.0/../../../../arm-eabi/lib/thumb\libc.a(lib_a-malloc.o)
 .comment       0x00000000       0x23 c:/devkitpro/devkitarm/bin/../lib/gcc/arm-eabi/4.7.0/../../../../arm-eabi/lib/thumb\libc.a(lib_a-mallocr.o)
 .comment       0x00000000       0x23 c:/devkitpro/devkitarm/bin/../lib/gcc/arm-eabi/4.7.0/../../../../arm-eabi/lib/thumb\libc.a(lib_a-mbrtowc.o)
 .comment       0x00000000       0x23 c:/devkitpro/devkitarm/bin/../lib/gcc/arm-eabi/4.7.0/../../../../arm-eabi/lib/thumb\libc.a(lib_a-mbsrtowcs.o)
 .comment       0x00000000       0x23 c:/devkitpro/devkitarm/bin/../lib/gcc/arm-eabi/4.7.0/../../../../arm-eabi/lib/thumb\libc.a(lib_a-mbtowc_r.o)
 .comment       0x00000000       0x23 c:/devkitpro/devkitarm/bin/../lib/gcc/arm-eabi/4.7.0/../../../../arm-eabi/lib/thumb\libc.a(lib_a-memchr-stub.o)
 .comment       0x00000000       0x23 c:/devkitpro/devkitarm/bin/../lib/gcc/arm-eabi/4.7.0/../../../../arm-eabi/lib/thumb\libc.a(lib_a-memcmp.o)
 .comment       0x00000000       0x23 c:/devkitpro/devkitarm/bin/../lib/gcc/arm-eabi/4.7.0/../../../../arm-eabi/lib/thumb\libc.a(lib_a-memcpy-stub.o)
 .comment       0x00000000       0x23 c:/devkitpro/devkitarm/bin/../lib/gcc/arm-eabi/4.7.0/../../../../arm-eabi/lib/thumb\libc.a(lib_a-memmove.o)
 .comment       0x00000000       0x23 c:/devkitpro/devkitarm/bin/../lib/gcc/arm-eabi/4.7.0/../../../../arm-eabi/lib/thumb\libc.a(lib_a-memset.o)
 .comment       0x00000000       0x23 c:/devkitpro/devkitarm/bin/../lib/gcc/arm-eabi/4.7.0/../../../../arm-eabi/lib/thumb\libc.a(lib_a-mktime.o)
 .comment       0x00000000       0x23 c:/devkitpro/devkitarm/bin/../lib/gcc/arm-eabi/4.7.0/../../../../arm-eabi/lib/thumb\libc.a(lib_a-mktm_r.o)
 .comment       0x00000000       0x23 c:/devkitpro/devkitarm/bin/../lib/gcc/arm-eabi/4.7.0/../../../../arm-eabi/lib/thumb\libc.a(lib_a-mlock.o)
 .comment       0x00000000       0x23 c:/devkitpro/devkitarm/bin/../lib/gcc/arm-eabi/4.7.0/../../../../arm-eabi/lib/thumb\libc.a(lib_a-printf.o)
 .comment       0x00000000       0x23 c:/devkitpro/devkitarm/bin/../lib/gcc/arm-eabi/4.7.0/../../../../arm-eabi/lib/thumb\libc.a(lib_a-putc.o)
 .comment       0x00000000       0x23 c:/devkitpro/devkitarm/bin/../lib/gcc/arm-eabi/4.7.0/../../../../arm-eabi/lib/thumb\libc.a(lib_a-puts.o)
 .comment       0x00000000       0x23 c:/devkitpro/devkitarm/bin/../lib/gcc/arm-eabi/4.7.0/../../../../arm-eabi/lib/thumb\libc.a(lib_a-realloc.o)
 .comment       0x00000000       0x23 c:/devkitpro/devkitarm/bin/../lib/gcc/arm-eabi/4.7.0/../../../../arm-eabi/lib/thumb\libc.a(lib_a-reallocr.o)
 .comment       0x00000000       0x23 c:/devkitpro/devkitarm/bin/../lib/gcc/arm-eabi/4.7.0/../../../../arm-eabi/lib/thumb\libc.a(lib_a-refill.o)
 .comment       0x00000000       0x23 c:/devkitpro/devkitarm/bin/../lib/gcc/arm-eabi/4.7.0/../../../../arm-eabi/lib/thumb\libc.a(lib_a-rget.o)
 .comment       0x00000000       0x23 c:/devkitpro/devkitarm/bin/../lib/gcc/arm-eabi/4.7.0/../../../../arm-eabi/lib/thumb\libc.a(lib_a-setvbuf.o)
 .comment       0x00000000       0x23 c:/devkitpro/devkitarm/bin/../lib/gcc/arm-eabi/4.7.0/../../../../arm-eabi/lib/thumb\libc.a(lib_a-signal.o)
 .comment       0x00000000       0x23 c:/devkitpro/devkitarm/bin/../lib/gcc/arm-eabi/4.7.0/../../../../arm-eabi/lib/thumb\libc.a(lib_a-siscanf.o)
 .comment       0x00000000       0x23 c:/devkitpro/devkitarm/bin/../lib/gcc/arm-eabi/4.7.0/../../../../arm-eabi/lib/thumb\libc.a(lib_a-sprintf.o)
 .comment       0x00000000       0x23 c:/devkitpro/devkitarm/bin/../lib/gcc/arm-eabi/4.7.0/../../../../arm-eabi/lib/thumb\libc.a(lib_a-stdio.o)
 .comment       0x00000000       0x23 c:/devkitpro/devkitarm/bin/../lib/gcc/arm-eabi/4.7.0/../../../../arm-eabi/lib/thumb\libc.a(lib_a-strcasecmp.o)
 .comment       0x00000000       0x23 c:/devkitpro/devkitarm/bin/../lib/gcc/arm-eabi/4.7.0/../../../../arm-eabi/lib/thumb\libc.a(lib_a-strcat.o)
 .comment       0x00000000       0x23 c:/devkitpro/devkitarm/bin/../lib/gcc/arm-eabi/4.7.0/../../../../arm-eabi/lib/thumb\libc.a(lib_a-strchr.o)
 .comment       0x00000000       0x23 c:/devkitpro/devkitarm/bin/../lib/gcc/arm-eabi/4.7.0/../../../../arm-eabi/lib/thumb\libc.a(lib_a-strcmp.o)
 .comment       0x00000000       0x23 c:/devkitpro/devkitarm/bin/../lib/gcc/arm-eabi/4.7.0/../../../../arm-eabi/lib/thumb\libc.a(lib_a-strcpy.o)
 .comment       0x00000000       0x23 c:/devkitpro/devkitarm/bin/../lib/gcc/arm-eabi/4.7.0/../../../../arm-eabi/lib/thumb\libc.a(lib_a-strerror.o)
 .comment       0x00000000       0x23 c:/devkitpro/devkitarm/bin/../lib/gcc/arm-eabi/4.7.0/../../../../arm-eabi/lib/thumb\libc.a(lib_a-strlcpy.o)
 .comment       0x00000000       0x23 c:/devkitpro/devkitarm/bin/../lib/gcc/arm-eabi/4.7.0/../../../../arm-eabi/lib/thumb\libc.a(lib_a-strlen.o)
 .comment       0x00000000       0x23 c:/devkitpro/devkitarm/bin/../lib/gcc/arm-eabi/4.7.0/../../../../arm-eabi/lib/thumb\libc.a(lib_a-strncasecmp.o)
 .comment       0x00000000       0x23 c:/devkitpro/devkitarm/bin/../lib/gcc/arm-eabi/4.7.0/../../../../arm-eabi/lib/thumb\libc.a(lib_a-strncmp.o)
 .comment       0x00000000       0x23 c:/devkitpro/devkitarm/bin/../lib/gcc/arm-eabi/4.7.0/../../../../arm-eabi/lib/thumb\libc.a(lib_a-strncpy.o)
 .comment       0x00000000       0x23 c:/devkitpro/devkitarm/bin/../lib/gcc/arm-eabi/4.7.0/../../../../arm-eabi/lib/thumb\libc.a(lib_a-strnlen.o)
 .comment       0x00000000       0x23 c:/devkitpro/devkitarm/bin/../lib/gcc/arm-eabi/4.7.0/../../../../arm-eabi/lib/thumb\libc.a(lib_a-strpbrk.o)
 .comment       0x00000000       0x23 c:/devkitpro/devkitarm/bin/../lib/gcc/arm-eabi/4.7.0/../../../../arm-eabi/lib/thumb\libc.a(lib_a-strrchr.o)
 .comment       0x00000000       0x23 c:/devkitpro/devkitarm/bin/../lib/gcc/arm-eabi/4.7.0/../../../../arm-eabi/lib/thumb\libc.a(lib_a-strtol.o)
 .comment       0x00000000       0x23 c:/devkitpro/devkitarm/bin/../lib/gcc/arm-eabi/4.7.0/../../../../arm-eabi/lib/thumb\libc.a(lib_a-svfiscanf.o)
 .comment       0x00000000       0x23 c:/devkitpro/devkitarm/bin/../lib/gcc/arm-eabi/4.7.0/../../../../arm-eabi/lib/thumb\libc.a(lib_a-svfprintf.o)
 .comment       0x00000000       0x23 c:/devkitpro/devkitarm/bin/../lib/gcc/arm-eabi/4.7.0/../../../../arm-eabi/lib/thumb\libc.a(lib_a-sysclose.o)
 .comment       0x00000000       0x23 c:/devkitpro/devkitarm/bin/../lib/gcc/arm-eabi/4.7.0/../../../../arm-eabi/lib/thumb\libc.a(lib_a-syslseek.o)
 .comment       0x00000000       0x23 c:/devkitpro/devkitarm/bin/../lib/gcc/arm-eabi/4.7.0/../../../../arm-eabi/lib/thumb\libc.a(lib_a-sysopen.o)
 .comment       0x00000000       0x23 c:/devkitpro/devkitarm/bin/../lib/gcc/arm-eabi/4.7.0/../../../../arm-eabi/lib/thumb\libc.a(lib_a-sysread.o)
 .comment       0x00000000       0x23 c:/devkitpro/devkitarm/bin/../lib/gcc/arm-eabi/4.7.0/../../../../arm-eabi/lib/thumb\libc.a(lib_a-syssbrk.o)
 .comment       0x00000000       0x23 c:/devkitpro/devkitarm/bin/../lib/gcc/arm-eabi/4.7.0/../../../../arm-eabi/lib/thumb\libc.a(lib_a-sysstat.o)
 .comment       0x00000000       0x23 c:/devkitpro/devkitarm/bin/../lib/gcc/arm-eabi/4.7.0/../../../../arm-eabi/lib/thumb\libc.a(lib_a-syswrite.o)
 .comment       0x00000000       0x23 c:/devkitpro/devkitarm/bin/../lib/gcc/arm-eabi/4.7.0/../../../../arm-eabi/lib/thumb\libc.a(lib_a-time.o)
 .comment       0x00000000       0x23 c:/devkitpro/devkitarm/bin/../lib/gcc/arm-eabi/4.7.0/../../../../arm-eabi/lib/thumb\libc.a(lib_a-towlower.o)
 .comment       0x00000000       0x23 c:/devkitpro/devkitarm/bin/../lib/gcc/arm-eabi/4.7.0/../../../../arm-eabi/lib/thumb\libc.a(lib_a-towupper.o)
 .comment       0x00000000       0x23 c:/devkitpro/devkitarm/bin/../lib/gcc/arm-eabi/4.7.0/../../../../arm-eabi/lib/thumb\libc.a(lib_a-tzlock.o)
 .comment       0x00000000       0x23 c:/devkitpro/devkitarm/bin/../lib/gcc/arm-eabi/4.7.0/../../../../arm-eabi/lib/thumb\libc.a(lib_a-tzvars.o)
 .comment       0x00000000       0x23 c:/devkitpro/devkitarm/bin/../lib/gcc/arm-eabi/4.7.0/../../../../arm-eabi/lib/thumb\libc.a(lib_a-ungetc.o)
 .comment       0x00000000       0x23 c:/devkitpro/devkitarm/bin/../lib/gcc/arm-eabi/4.7.0/../../../../arm-eabi/lib/thumb\libc.a(lib_a-u_strerr.o)
 .comment       0x00000000       0x23 c:/devkitpro/devkitarm/bin/../lib/gcc/arm-eabi/4.7.0/../../../../arm-eabi/lib/thumb\libc.a(lib_a-vfiprintf.o)
 .comment       0x00000000       0x23 c:/devkitpro/devkitarm/bin/../lib/gcc/arm-eabi/4.7.0/../../../../arm-eabi/lib/thumb\libc.a(lib_a-vfprintf.o)
 .comment       0x00000000       0x23 c:/devkitpro/devkitarm/bin/../lib/gcc/arm-eabi/4.7.0/../../../../arm-eabi/lib/thumb\libc.a(lib_a-vsnprintf.o)
 .comment       0x00000000       0x23 c:/devkitpro/devkitarm/bin/../lib/gcc/arm-eabi/4.7.0/../../../../arm-eabi/lib/thumb\libc.a(lib_a-wbuf.o)
 .comment       0x00000000       0x23 c:/devkitpro/devkitarm/bin/../lib/gcc/arm-eabi/4.7.0/../../../../arm-eabi/lib/thumb\libc.a(lib_a-wcrtomb.o)
 .comment       0x00000000       0x23 c:/devkitpro/devkitarm/bin/../lib/gcc/arm-eabi/4.7.0/../../../../arm-eabi/lib/thumb\libc.a(lib_a-wcsrtombs.o)
 .comment       0x00000000       0x23 c:/devkitpro/devkitarm/bin/../lib/gcc/arm-eabi/4.7.0/../../../../arm-eabi/lib/thumb\libc.a(lib_a-wctob.o)
 .comment       0x00000000       0x23 c:/devkitpro/devkitarm/bin/../lib/gcc/arm-eabi/4.7.0/../../../../arm-eabi/lib/thumb\libc.a(lib_a-wctomb_r.o)
 .comment       0x00000000       0x23 c:/devkitpro/devkitarm/bin/../lib/gcc/arm-eabi/4.7.0/../../../../arm-eabi/lib/thumb\libc.a(lib_a-wsetup.o)
 .comment       0x00000000       0x23 c:/devkitpro/devkitarm/bin/../lib/gcc/arm-eabi/4.7.0/../../../../arm-eabi/lib/thumb\libc.a(lib_a-__atexit.o)
 .comment       0x00000000       0x23 c:/devkitpro/devkitarm/bin/../lib/gcc/arm-eabi/4.7.0/../../../../arm-eabi/lib/thumb\libc.a(lib_a-div.o)
 .comment       0x00000000       0x23 c:/devkitpro/devkitarm/bin/../lib/gcc/arm-eabi/4.7.0/../../../../arm-eabi/lib/thumb\libc.a(lib_a-dtoa.o)
 .comment       0x00000000       0x23 c:/devkitpro/devkitarm/bin/../lib/gcc/arm-eabi/4.7.0/../../../../arm-eabi/lib/thumb\libc.a(lib_a-flags.o)
 .comment       0x00000000       0x23 c:/devkitpro/devkitarm/bin/../lib/gcc/arm-eabi/4.7.0/../../../../arm-eabi/lib/thumb\libc.a(lib_a-fputwc.o)
 .comment       0x00000000       0x23 c:/devkitpro/devkitarm/bin/../lib/gcc/arm-eabi/4.7.0/../../../../arm-eabi/lib/thumb\libc.a(lib_a-getenv_r.o)
 .comment       0x00000000       0x23 c:/devkitpro/devkitarm/bin/../lib/gcc/arm-eabi/4.7.0/../../../../arm-eabi/lib/thumb\libc.a(lib_a-gettzinfo.o)
 .comment       0x00000000       0x23 c:/devkitpro/devkitarm/bin/../lib/gcc/arm-eabi/4.7.0/../../../../arm-eabi/lib/thumb\libc.a(lib_a-iswspace.o)
 .comment       0x00000000       0x23 c:/devkitpro/devkitarm/bin/../lib/gcc/arm-eabi/4.7.0/../../../../arm-eabi/lib/thumb\libc.a(lib_a-jp2uc.o)
 .comment       0x00000000       0x23 c:/devkitpro/devkitarm/bin/../lib/gcc/arm-eabi/4.7.0/../../../../arm-eabi/lib/thumb\libc.a(lib_a-mbsnrtowcs.o)
 .comment       0x00000000       0x23 c:/devkitpro/devkitarm/bin/../lib/gcc/arm-eabi/4.7.0/../../../../arm-eabi/lib/thumb\libc.a(lib_a-mprec.o)
 .comment       0x00000000       0x23 c:/devkitpro/devkitarm/bin/../lib/gcc/arm-eabi/4.7.0/../../../../arm-eabi/lib/thumb\libc.a(lib_a-sccl.o)
 .comment       0x00000000       0x23 c:/devkitpro/devkitarm/bin/../lib/gcc/arm-eabi/4.7.0/../../../../arm-eabi/lib/thumb\libc.a(lib_a-strtoll_r.o)
 .comment       0x00000000       0x23 c:/devkitpro/devkitarm/bin/../lib/gcc/arm-eabi/4.7.0/../../../../arm-eabi/lib/thumb\libc.a(lib_a-strtoull_r.o)
 .comment       0x00000000       0x23 c:/devkitpro/devkitarm/bin/../lib/gcc/arm-eabi/4.7.0/../../../../arm-eabi/lib/thumb\libc.a(lib_a-strtoul.o)
 .comment       0x00000000       0x23 c:/devkitpro/devkitarm/bin/../lib/gcc/arm-eabi/4.7.0/../../../../arm-eabi/lib/thumb\libc.a(lib_a-svfiprintf.o)
 .comment       0x00000000       0x23 c:/devkitpro/devkitarm/bin/../lib/gcc/arm-eabi/4.7.0/../../../../arm-eabi/lib/thumb\libc.a(lib_a-wcsnrtombs.o)
 .comment       0x00000000       0x23 c:/devkitpro/devkitarm/bin/../lib/gcc/arm-eabi/4.7.0/../../../../arm-eabi/lib/thumb\libc.a(lib_a-environ.o)
 .comment       0x00000000       0x23 c:/devkitpro/devkitarm/bin/../lib/gcc/arm-eabi/4.7.0/../../../../arm-eabi/lib/thumb\libc.a(lib_a-envlock.o)
 .comment       0x00000000       0x23 c:/devkitpro/devkitarm/bin/../lib/gcc/arm-eabi/4.7.0/../../../../arm-eabi/lib/thumb\libsysbase.a(iosupport.o)
 .comment       0x00000000       0x23 c:/devkitpro/devkitarm/bin/../lib/gcc/arm-eabi/4.7.0/../../../../arm-eabi/lib/thumb\libsysbase.a(close.o)
 .comment       0x00000000       0x23 c:/devkitpro/devkitarm/bin/../lib/gcc/arm-eabi/4.7.0/../../../../arm-eabi/lib/thumb\libsysbase.a(fstat.o)
 .comment       0x00000000       0x23 c:/devkitpro/devkitarm/bin/../lib/gcc/arm-eabi/4.7.0/../../../../arm-eabi/lib/thumb\libsysbase.a(getpid.o)
 .comment       0x00000000       0x23 c:/devkitpro/devkitarm/bin/../lib/gcc/arm-eabi/4.7.0/../../../../arm-eabi/lib/thumb\libsysbase.a(isatty.o)
 .comment       0x00000000       0x23 c:/devkitpro/devkitarm/bin/../lib/gcc/arm-eabi/4.7.0/../../../../arm-eabi/lib/thumb\libsysbase.a(kill.o)
 .comment       0x00000000       0x23 c:/devkitpro/devkitarm/bin/../lib/gcc/arm-eabi/4.7.0/../../../../arm-eabi/lib/thumb\libsysbase.a(lseek.o)
 .comment       0x00000000       0x23 c:/devkitpro/devkitarm/bin/../lib/gcc/arm-eabi/4.7.0/../../../../arm-eabi/lib/thumb\libsysbase.a(open.o)
 .comment       0x00000000       0x23 c:/devkitpro/devkitarm/bin/../lib/gcc/arm-eabi/4.7.0/../../../../arm-eabi/lib/thumb\libsysbase.a(read.o)
 .comment       0x00000000       0x23 c:/devkitpro/devkitarm/bin/../lib/gcc/arm-eabi/4.7.0/../../../../arm-eabi/lib/thumb\libsysbase.a(sbrk.o)
 .comment       0x00000000       0x23 c:/devkitpro/devkitarm/bin/../lib/gcc/arm-eabi/4.7.0/../../../../arm-eabi/lib/thumb\libsysbase.a(stat.o)
 .comment       0x00000000       0x23 c:/devkitpro/devkitarm/bin/../lib/gcc/arm-eabi/4.7.0/../../../../arm-eabi/lib/thumb\libsysbase.a(times.o)
 .comment       0x00000000       0x23 c:/devkitpro/devkitarm/bin/../lib/gcc/arm-eabi/4.7.0/../../../../arm-eabi/lib/thumb\libsysbase.a(write.o)
 .comment       0x00000000       0x23 c:/devkitpro/devkitarm/bin/../lib/gcc/arm-eabi/4.7.0/../../../../arm-eabi/lib/thumb\libsysbase.a(_exit.o)
 .comment       0x00000000       0x23 c:/devkitpro/devkitarm/bin/../lib/gcc/arm-eabi/4.7.0/../../../../arm-eabi/lib/thumb\libsysbase.a(malloc_vars.o)
 .comment       0x00000000       0x23 c:/devkitpro/devkitarm/bin/../lib/gcc/arm-eabi/4.7.0/../../../../arm-eabi/lib/thumb\libsysbase.a(chdir.o)
 .comment       0x00000000       0x23 c:/devkitpro/devkitarm/bin/../lib/gcc/arm-eabi/4.7.0/../../../../arm-eabi/lib/thumb\libsysbase.a(build_argv.o)
 .comment       0x00000000       0x23 c:/devkitpro/devkitarm/bin/../lib/gcc/arm-eabi/4.7.0/../../../../arm-eabi/lib/thumb\libsysbase.a(syscall_support.o)
 .comment       0x00000000       0x23 c:/devkitpro/devkitarm/bin/../lib/gcc/arm-eabi/4.7.0/../../../../arm-eabi/lib/thumb\libsysbase.a(handle_manager.o)
 .comment       0x00000000       0x23 c:/devkitpro/devkitarm/bin/../lib/gcc/arm-eabi/4.7.0/../../../../arm-eabi/lib/thumb\libsysbase.a(dirent.o)
 .comment       0x00000000       0x23 c:/devkitpro/devkitarm/bin/../lib/gcc/arm-eabi/4.7.0/thumb\libgcc.a(bpabi.o)
 .comment       0x00000000       0x23 c:/devkitpro/devkitarm/bin/../lib/gcc/arm-eabi/4.7.0/thumb\libgcc.a(_divdi3.o)
 .comment       0x00000000       0x23 c:/devkitpro/devkitarm/bin/../lib/gcc/arm-eabi/4.7.0/thumb\libgcc.a(_udivdi3.o)
 .comment       0x00000000       0x23 c:/devkitpro/devkitarm/bin/../lib/gcc/arm-eabi/4.7.0/thumb/crtend.o

.ARM.attributes
                0x00000000       0x2f
 .ARM.attributes
                0x00000000       0x23 c:/devkitpro/devkitarm/bin/../lib/gcc/arm-eabi/4.7.0/../../../../arm-eabi/lib/thumb/ds_arm9_crt0.o
 .ARM.attributes
                0x00000023       0x18 c:/devkitpro/devkitarm/bin/../lib/gcc/arm-eabi/4.7.0/thumb/crti.o
 .ARM.attributes
                0x0000003b       0x32 c:/devkitpro/devkitarm/bin/../lib/gcc/arm-eabi/4.7.0/thumb/crtbegin.o
 .ARM.attributes
                0x0000006d       0x16 default_font.bin.o
 .ARM.attributes
                0x00000083       0x29 EEprom.o
 .ARM.attributes
                0x000000ac       0x29 Flash.o
 .ARM.attributes
                0x000000d5       0x29 GBA.o
 .ARM.attributes
                0x000000fe       0x29 Globals.o
 .ARM.attributes
                0x00000127       0x29 RTC.o
 .ARM.attributes
                0x00000150       0x29 Sram.o
 .ARM.attributes
                0x00000179       0x29 Util.o
 .ARM.attributes
                0x000001a2       0x29 agbprint.o
 .ARM.attributes
                0x000001cb       0x29 armdis.o
 .ARM.attributes
                0x000001f4       0x29 bios.o
 .ARM.attributes
                0x0000021d       0x29 cpumg.o
 .ARM.attributes
                0x00000246       0x29 file_browse.o
 .ARM.attributes
                0x0000026f       0x29 main.o
 .ARM.attributes
                0x00000298       0x29 mydebuger.o
 .ARM.attributes
                0x000002c1       0x29 sound.o
 .ARM.attributes
                0x000002ea       0x29 system.o
 .ARM.attributes
                0x00000313       0x29 background.o
 .ARM.attributes
                0x0000033c       0x29 console.o
 .ARM.attributes
                0x00000365       0x29 devkitpatcher.o
 .ARM.attributes
                0x0000038e       0x29 dldi.o
 .ARM.attributes
                0x000003b7       0x29 heapfuncs.o
 .ARM.attributes
                0x000003e0       0x29 interrupts.o
 .ARM.attributes
                0x00000409       0x29 keys.o
 .ARM.attributes
                0x00000432       0x29 libnds_exit.o
 .ARM.attributes
                0x0000045b       0x29 sassert.o
 .ARM.attributes
                0x00000484       0x29 trig.o
 .ARM.attributes
                0x000004ad       0x29 video.o
 .ARM.attributes
                0x000004d6       0x1d cpu_s.o
 .ARM.attributes
                0x000004f3       0x1d dcache.o
 .ARM.attributes
                0x00000510       0x1d dldi_stub.o
 .ARM.attributes
                0x0000052d       0x1d ex_s.o
 .ARM.attributes
                0x0000054a       0x1d icache.o
 .ARM.attributes
                0x00000567       0x1d interruptDispatcher.o
 .ARM.attributes
                0x00000584       0x23 mpu_setup.o
 .ARM.attributes
                0x000005a7       0x29 c:/devkitPro/libnds/lib\libfat.a(libfat.o)
 .ARM.attributes
                0x000005d0       0x29 c:/devkitPro/libnds/lib\libfat.a(partition.o)
 .ARM.attributes
                0x000005f9       0x29 c:/devkitPro/libnds/lib\libfat.a(cache.o)
 .ARM.attributes
                0x00000622       0x29 c:/devkitPro/libnds/lib\libfat.a(directory.o)
 .ARM.attributes
                0x0000064b       0x29 c:/devkitPro/libnds/lib\libfat.a(disc.o)
 .ARM.attributes
                0x00000674       0x29 c:/devkitPro/libnds/lib\libfat.a(fatdir.o)
 .ARM.attributes
                0x0000069d       0x29 c:/devkitPro/libnds/lib\libfat.a(fatfile.o)
 .ARM.attributes
                0x000006c6       0x29 c:/devkitPro/libnds/lib\libfat.a(file_allocation_table.o)
 .ARM.attributes
                0x000006ef       0x29 c:/devkitPro/libnds/lib\libfat.a(filetime.o)
 .ARM.attributes
                0x00000718       0x29 c:/devkitPro/libnds/lib\libfat.a(lock.o)
 .ARM.attributes
                0x00000741       0x32 c:/devkitpro/devkitarm/bin/../lib/gcc/arm-eabi/4.7.0/../../../../arm-eabi/lib/thumb\libstdc++.a(new_op.o)
 .ARM.attributes
                0x00000773       0x32 c:/devkitpro/devkitarm/bin/../lib/gcc/arm-eabi/4.7.0/../../../../arm-eabi/lib/thumb\libstdc++.a(eh_call.o)
 .ARM.attributes
                0x000007a5       0x32 c:/devkitpro/devkitarm/bin/../lib/gcc/arm-eabi/4.7.0/../../../../arm-eabi/lib/thumb\libstdc++.a(eh_personality.o)
 .ARM.attributes
                0x000007d7       0x32 c:/devkitpro/devkitarm/bin/../lib/gcc/arm-eabi/4.7.0/../../../../arm-eabi/lib/thumb\libstdc++.a(del_op.o)
 .ARM.attributes
                0x00000809       0x32 c:/devkitpro/devkitarm/bin/../lib/gcc/arm-eabi/4.7.0/../../../../arm-eabi/lib/thumb\libstdc++.a(eh_terminate.o)
 .ARM.attributes
                0x0000083b       0x32 c:/devkitpro/devkitarm/bin/../lib/gcc/arm-eabi/4.7.0/../../../../arm-eabi/lib/thumb\libstdc++.a(eh_exception.o)
 .ARM.attributes
                0x0000086d       0x32 c:/devkitpro/devkitarm/bin/../lib/gcc/arm-eabi/4.7.0/../../../../arm-eabi/lib/thumb\libstdc++.a(eh_alloc.o)
 .ARM.attributes
                0x0000089f       0x32 c:/devkitpro/devkitarm/bin/../lib/gcc/arm-eabi/4.7.0/../../../../arm-eabi/lib/thumb\libstdc++.a(bad_alloc.o)
 .ARM.attributes
                0x000008d1       0x32 c:/devkitpro/devkitarm/bin/../lib/gcc/arm-eabi/4.7.0/../../../../arm-eabi/lib/thumb\libstdc++.a(class_type_info.o)
 .ARM.attributes
                0x00000903       0x32 c:/devkitpro/devkitarm/bin/../lib/gcc/arm-eabi/4.7.0/../../../../arm-eabi/lib/thumb\libstdc++.a(new_handler.o)
 .ARM.attributes
                0x00000935       0x32 c:/devkitpro/devkitarm/bin/../lib/gcc/arm-eabi/4.7.0/../../../../arm-eabi/lib/thumb\libstdc++.a(string-inst.o)
 .ARM.attributes
                0x00000967       0x32 c:/devkitpro/devkitarm/bin/../lib/gcc/arm-eabi/4.7.0/../../../../arm-eabi/lib/thumb\libstdc++.a(functexcept.o)
 .ARM.attributes
                0x00000999       0x32 c:/devkitpro/devkitarm/bin/../lib/gcc/arm-eabi/4.7.0/../../../../arm-eabi/lib/thumb\libstdc++.a(eh_arm.o)
 .ARM.attributes
                0x000009cb       0x32 c:/devkitpro/devkitarm/bin/../lib/gcc/arm-eabi/4.7.0/../../../../arm-eabi/lib/thumb\libstdc++.a(eh_throw.o)
 .ARM.attributes
                0x000009fd       0x32 c:/devkitpro/devkitarm/bin/../lib/gcc/arm-eabi/4.7.0/../../../../arm-eabi/lib/thumb\libstdc++.a(pure.o)
 .ARM.attributes
                0x00000a2f       0x32 c:/devkitpro/devkitarm/bin/../lib/gcc/arm-eabi/4.7.0/../../../../arm-eabi/lib/thumb\libstdc++.a(bad_cast.o)
 .ARM.attributes
                0x00000a61       0x32 c:/devkitpro/devkitarm/bin/../lib/gcc/arm-eabi/4.7.0/../../../../arm-eabi/lib/thumb\libstdc++.a(eh_globals.o)
 .ARM.attributes
                0x00000a93       0x32 c:/devkitpro/devkitarm/bin/../lib/gcc/arm-eabi/4.7.0/../../../../arm-eabi/lib/thumb\libstdc++.a(eh_catch.o)
 .ARM.attributes
                0x00000ac5       0x32 c:/devkitpro/devkitarm/bin/../lib/gcc/arm-eabi/4.7.0/../../../../arm-eabi/lib/thumb\libstdc++.a(si_class_type_info.o)
 .ARM.attributes
                0x00000af7       0x32 c:/devkitpro/devkitarm/bin/../lib/gcc/arm-eabi/4.7.0/../../../../arm-eabi/lib/thumb\libstdc++.a(eh_unex_handler.o)
 .ARM.attributes
                0x00000b29       0x32 c:/devkitpro/devkitarm/bin/../lib/gcc/arm-eabi/4.7.0/../../../../arm-eabi/lib/thumb\libstdc++.a(tinfo.o)
 .ARM.attributes
                0x00000b5b       0x32 c:/devkitpro/devkitarm/bin/../lib/gcc/arm-eabi/4.7.0/../../../../arm-eabi/lib/thumb\libstdc++.a(bad_typeid.o)
 .ARM.attributes
                0x00000b8d       0x32 c:/devkitpro/devkitarm/bin/../lib/gcc/arm-eabi/4.7.0/../../../../arm-eabi/lib/thumb\libstdc++.a(eh_term_handler.o)
 .ARM.attributes
                0x00000bbf       0x32 c:/devkitpro/devkitarm/bin/../lib/gcc/arm-eabi/4.7.0/../../../../arm-eabi/lib/thumb\libstdc++.a(ios_failure.o)
 .ARM.attributes
                0x00000bf1       0x32 c:/devkitpro/devkitarm/bin/../lib/gcc/arm-eabi/4.7.0/../../../../arm-eabi/lib/thumb\libstdc++.a(stdexcept.o)
 .ARM.attributes
                0x00000c23       0x32 c:/devkitpro/devkitarm/bin/../lib/gcc/arm-eabi/4.7.0/../../../../arm-eabi/lib/thumb\libstdc++.a(functional.o)
 .ARM.attributes
                0x00000c55       0x32 c:/devkitpro/devkitarm/bin/../lib/gcc/arm-eabi/4.7.0/../../../../arm-eabi/lib/thumb\libstdc++.a(future.o)
 .ARM.attributes
                0x00000c87       0x32 c:/devkitpro/devkitarm/bin/../lib/gcc/arm-eabi/4.7.0/../../../../arm-eabi/lib/thumb\libstdc++.a(regex.o)
 .ARM.attributes
                0x00000cb9       0x32 c:/devkitpro/devkitarm/bin/../lib/gcc/arm-eabi/4.7.0/../../../../arm-eabi/lib/thumb\libstdc++.a(system_error.o)
 .ARM.attributes
                0x00000ceb       0x32 c:/devkitpro/devkitarm/bin/../lib/gcc/arm-eabi/4.7.0/../../../../arm-eabi/lib/thumb\libstdc++.a(guard.o)
 .ARM.attributes
                0x00000d1d       0x32 c:/devkitpro/devkitarm/bin/../lib/gcc/arm-eabi/4.7.0/../../../../arm-eabi/lib/thumb\libstdc++.a(vterminate.o)
 .ARM.attributes
                0x00000d4f       0x32 c:/devkitpro/devkitarm/bin/../lib/gcc/arm-eabi/4.7.0/../../../../arm-eabi/lib/thumb\libstdc++.a(guard_error.o)
 .ARM.attributes
                0x00000d81       0x32 c:/devkitpro/devkitarm/bin/../lib/gcc/arm-eabi/4.7.0/../../../../arm-eabi/lib/thumb\libstdc++.a(atexit_arm.o)
 .ARM.attributes
                0x00000db3       0x32 c:/devkitpro/devkitarm/bin/../lib/gcc/arm-eabi/4.7.0/../../../../arm-eabi/lib/thumb\libstdc++.a(eh_type.o)
 .ARM.attributes
                0x00000de5       0x32 c:/devkitpro/devkitarm/bin/../lib/gcc/arm-eabi/4.7.0/../../../../arm-eabi/lib/thumb\libstdc++.a(cp-demangle.o)
 .ARM.attributes
                0x00000e17       0x32 c:/devkitpro/devkitarm/bin/../lib/gcc/arm-eabi/4.7.0/../../../../arm-eabi/lib/thumb\libm.a(lib_a-w_pow.o)
 .ARM.attributes
                0x00000e49       0x32 c:/devkitpro/devkitarm/bin/../lib/gcc/arm-eabi/4.7.0/../../../../arm-eabi/lib/thumb\libm.a(lib_a-w_sqrt.o)
 .ARM.attributes
                0x00000e7b       0x32 c:/devkitpro/devkitarm/bin/../lib/gcc/arm-eabi/4.7.0/../../../../arm-eabi/lib/thumb\libm.a(lib_a-e_pow.o)
 .ARM.attributes
                0x00000ead       0x32 c:/devkitpro/devkitarm/bin/../lib/gcc/arm-eabi/4.7.0/../../../../arm-eabi/lib/thumb\libm.a(lib_a-e_sqrt.o)
 .ARM.attributes
                0x00000edf       0x32 c:/devkitpro/devkitarm/bin/../lib/gcc/arm-eabi/4.7.0/../../../../arm-eabi/lib/thumb\libm.a(lib_a-s_fabs.o)
 .ARM.attributes
                0x00000f11       0x32 c:/devkitpro/devkitarm/bin/../lib/gcc/arm-eabi/4.7.0/../../../../arm-eabi/lib/thumb\libm.a(lib_a-s_finite.o)
 .ARM.attributes
                0x00000f43       0x32 c:/devkitpro/devkitarm/bin/../lib/gcc/arm-eabi/4.7.0/../../../../arm-eabi/lib/thumb\libm.a(lib_a-s_fpclassify.o)
 .ARM.attributes
                0x00000f75       0x32 c:/devkitpro/devkitarm/bin/../lib/gcc/arm-eabi/4.7.0/../../../../arm-eabi/lib/thumb\libm.a(lib_a-s_lib_ver.o)
 .ARM.attributes
                0x00000fa7       0x32 c:/devkitpro/devkitarm/bin/../lib/gcc/arm-eabi/4.7.0/../../../../arm-eabi/lib/thumb\libm.a(lib_a-s_matherr.o)
 .ARM.attributes
                0x00000fd9       0x32 c:/devkitpro/devkitarm/bin/../lib/gcc/arm-eabi/4.7.0/../../../../arm-eabi/lib/thumb\libm.a(lib_a-s_nan.o)
 .ARM.attributes
                0x0000100b       0x32 c:/devkitpro/devkitarm/bin/../lib/gcc/arm-eabi/4.7.0/../../../../arm-eabi/lib/thumb\libm.a(lib_a-s_rint.o)
 .ARM.attributes
                0x0000103d       0x32 c:/devkitpro/devkitarm/bin/../lib/gcc/arm-eabi/4.7.0/../../../../arm-eabi/lib/thumb\libm.a(lib_a-s_scalbn.o)
 .ARM.attributes
                0x0000106f       0x32 c:/devkitpro/devkitarm/bin/../lib/gcc/arm-eabi/4.7.0/../../../../arm-eabi/lib/thumb\libm.a(lib_a-s_copysign.o)
 .ARM.attributes
                0x000010a1       0x1a c:/devkitpro/devkitarm/bin/../lib/gcc/arm-eabi/4.7.0/thumb\libgcc.a(_udivsi3.o)
 .ARM.attributes
                0x000010bb       0x1a c:/devkitpro/devkitarm/bin/../lib/gcc/arm-eabi/4.7.0/thumb\libgcc.a(_divsi3.o)
 .ARM.attributes
                0x000010d5       0x18 c:/devkitpro/devkitarm/bin/../lib/gcc/arm-eabi/4.7.0/thumb\libgcc.a(_dvmd_tls.o)
 .ARM.attributes
                0x000010ed       0x1a c:/devkitpro/devkitarm/bin/../lib/gcc/arm-eabi/4.7.0/thumb\libgcc.a(_arm_addsubdf3.o)
 .ARM.attributes
                0x00001107       0x1a c:/devkitpro/devkitarm/bin/../lib/gcc/arm-eabi/4.7.0/thumb\libgcc.a(_arm_muldivdf3.o)
 .ARM.attributes
                0x00001121       0x1a c:/devkitpro/devkitarm/bin/../lib/gcc/arm-eabi/4.7.0/thumb\libgcc.a(_arm_cmpdf2.o)
 .ARM.attributes
                0x0000113b       0x1a c:/devkitpro/devkitarm/bin/../lib/gcc/arm-eabi/4.7.0/thumb\libgcc.a(_arm_fixdfsi.o)
 .ARM.attributes
                0x00001155       0x1a c:/devkitpro/devkitarm/bin/../lib/gcc/arm-eabi/4.7.0/thumb\libgcc.a(_arm_fixunsdfsi.o)
 .ARM.attributes
                0x0000116f       0x1a c:/devkitpro/devkitarm/bin/../lib/gcc/arm-eabi/4.7.0/thumb\libgcc.a(_arm_addsubsf3.o)
 .ARM.attributes
                0x00001189       0x1a c:/devkitpro/devkitarm/bin/../lib/gcc/arm-eabi/4.7.0/thumb\libgcc.a(_clzsi2.o)
 .ARM.attributes
                0x000011a3       0x32 c:/devkitpro/devkitarm/bin/../lib/gcc/arm-eabi/4.7.0/thumb\libgcc.a(_muldi3.o)
 .ARM.attributes
                0x000011d5       0x32 c:/devkitpro/devkitarm/bin/../lib/gcc/arm-eabi/4.7.0/thumb\libgcc.a(unwind-arm.o)
 .ARM.attributes
                0x00001207       0x1e c:/devkitpro/devkitarm/bin/../lib/gcc/arm-eabi/4.7.0/thumb\libgcc.a(libunwind.o)
 .ARM.attributes
                0x00001225       0x32 c:/devkitpro/devkitarm/bin/../lib/gcc/arm-eabi/4.7.0/thumb\libgcc.a(pr-support.o)
 .ARM.attributes
                0x00001257       0x32 c:/devkitpro/devkitarm/bin/../lib/gcc/arm-eabi/4.7.0/../../../../arm-eabi/lib/thumb\libc.a(lib_a-abort.o)
 .ARM.attributes
                0x00001289       0x32 c:/devkitpro/devkitarm/bin/../lib/gcc/arm-eabi/4.7.0/../../../../arm-eabi/lib/thumb\libc.a(lib_a-bsearch.o)
 .ARM.attributes
                0x000012bb       0x32 c:/devkitpro/devkitarm/bin/../lib/gcc/arm-eabi/4.7.0/../../../../arm-eabi/lib/thumb\libc.a(lib_a-calloc.o)
 .ARM.attributes
                0x000012ed       0x32 c:/devkitpro/devkitarm/bin/../lib/gcc/arm-eabi/4.7.0/../../../../arm-eabi/lib/thumb\libc.a(lib_a-callocr.o)
 .ARM.attributes
                0x0000131f       0x32 c:/devkitpro/devkitarm/bin/../lib/gcc/arm-eabi/4.7.0/../../../../arm-eabi/lib/thumb\libc.a(lib_a-ctype_.o)
 .ARM.attributes
                0x00001351       0x32 c:/devkitpro/devkitarm/bin/../lib/gcc/arm-eabi/4.7.0/../../../../arm-eabi/lib/thumb\libc.a(lib_a-cxa_atexit.o)
 .ARM.attributes
                0x00001383       0x32 c:/devkitpro/devkitarm/bin/../lib/gcc/arm-eabi/4.7.0/../../../../arm-eabi/lib/thumb\libc.a(lib_a-errno.o)
 .ARM.attributes
                0x000013b5       0x32 c:/devkitpro/devkitarm/bin/../lib/gcc/arm-eabi/4.7.0/../../../../arm-eabi/lib/thumb\libc.a(lib_a-fclose.o)
 .ARM.attributes
                0x000013e7       0x32 c:/devkitpro/devkitarm/bin/../lib/gcc/arm-eabi/4.7.0/../../../../arm-eabi/lib/thumb\libc.a(lib_a-fflush.o)
 .ARM.attributes
                0x00001419       0x32 c:/devkitpro/devkitarm/bin/../lib/gcc/arm-eabi/4.7.0/../../../../arm-eabi/lib/thumb\libc.a(lib_a-fgetc.o)
 .ARM.attributes
                0x0000144b       0x32 c:/devkitpro/devkitarm/bin/../lib/gcc/arm-eabi/4.7.0/../../../../arm-eabi/lib/thumb\libc.a(lib_a-findfp.o)
 .ARM.attributes
                0x0000147d       0x32 c:/devkitpro/devkitarm/bin/../lib/gcc/arm-eabi/4.7.0/../../../../arm-eabi/lib/thumb\libc.a(lib_a-fopen.o)
 .ARM.attributes
                0x000014af       0x32 c:/devkitpro/devkitarm/bin/../lib/gcc/arm-eabi/4.7.0/../../../../arm-eabi/lib/thumb\libc.a(lib_a-fputc.o)
 .ARM.attributes
                0x000014e1       0x32 c:/devkitpro/devkitarm/bin/../lib/gcc/arm-eabi/4.7.0/../../../../arm-eabi/lib/thumb\libc.a(lib_a-fputs.o)
 .ARM.attributes
                0x00001513       0x32 c:/devkitpro/devkitarm/bin/../lib/gcc/arm-eabi/4.7.0/../../../../arm-eabi/lib/thumb\libc.a(lib_a-fread.o)
 .ARM.attributes
                0x00001545       0x32 c:/devkitpro/devkitarm/bin/../lib/gcc/arm-eabi/4.7.0/../../../../arm-eabi/lib/thumb\libc.a(lib_a-freer.o)
 .ARM.attributes
                0x00001577       0x32 c:/devkitpro/devkitarm/bin/../lib/gcc/arm-eabi/4.7.0/../../../../arm-eabi/lib/thumb\libc.a(lib_a-fseek.o)
 .ARM.attributes
                0x000015a9       0x32 c:/devkitpro/devkitarm/bin/../lib/gcc/arm-eabi/4.7.0/../../../../arm-eabi/lib/thumb\libc.a(lib_a-ftell.o)
 .ARM.attributes
                0x000015db       0x32 c:/devkitpro/devkitarm/bin/../lib/gcc/arm-eabi/4.7.0/../../../../arm-eabi/lib/thumb\libc.a(lib_a-fvwrite.o)
 .ARM.attributes
                0x0000160d       0x32 c:/devkitpro/devkitarm/bin/../lib/gcc/arm-eabi/4.7.0/../../../../arm-eabi/lib/thumb\libc.a(lib_a-fwalk.o)
 .ARM.attributes
                0x0000163f       0x32 c:/devkitpro/devkitarm/bin/../lib/gcc/arm-eabi/4.7.0/../../../../arm-eabi/lib/thumb\libc.a(lib_a-fwrite.o)
 .ARM.attributes
                0x00001671       0x32 c:/devkitpro/devkitarm/bin/../lib/gcc/arm-eabi/4.7.0/../../../../arm-eabi/lib/thumb\libc.a(lib_a-impure.o)
 .ARM.attributes
                0x000016a3       0x32 c:/devkitpro/devkitarm/bin/../lib/gcc/arm-eabi/4.7.0/../../../../arm-eabi/lib/thumb\libc.a(lib_a-init.o)
 .ARM.attributes
                0x000016d5       0x32 c:/devkitpro/devkitarm/bin/../lib/gcc/arm-eabi/4.7.0/../../../../arm-eabi/lib/thumb\libc.a(lib_a-iprintf.o)
 .ARM.attributes
                0x00001707       0x32 c:/devkitpro/devkitarm/bin/../lib/gcc/arm-eabi/4.7.0/../../../../arm-eabi/lib/thumb\libc.a(lib_a-lcltime.o)
 .ARM.attributes
                0x00001739       0x32 c:/devkitpro/devkitarm/bin/../lib/gcc/arm-eabi/4.7.0/../../../../arm-eabi/lib/thumb\libc.a(lib_a-lcltime_r.o)
 .ARM.attributes
                0x0000176b       0x32 c:/devkitpro/devkitarm/bin/../lib/gcc/arm-eabi/4.7.0/../../../../arm-eabi/lib/thumb\libc.a(lib_a-locale.o)
 .ARM.attributes
                0x0000179d       0x32 c:/devkitpro/devkitarm/bin/../lib/gcc/arm-eabi/4.7.0/../../../../arm-eabi/lib/thumb\libc.a(lib_a-makebuf.o)
 .ARM.attributes
                0x000017cf       0x32 c:/devkitpro/devkitarm/bin/../lib/gcc/arm-eabi/4.7.0/../../../../arm-eabi/lib/thumb\libc.a(lib_a-malloc.o)
 .ARM.attributes
                0x00001801       0x32 c:/devkitpro/devkitarm/bin/../lib/gcc/arm-eabi/4.7.0/../../../../arm-eabi/lib/thumb\libc.a(lib_a-mallocr.o)
 .ARM.attributes
                0x00001833       0x32 c:/devkitpro/devkitarm/bin/../lib/gcc/arm-eabi/4.7.0/../../../../arm-eabi/lib/thumb\libc.a(lib_a-mbrtowc.o)
 .ARM.attributes
                0x00001865       0x32 c:/devkitpro/devkitarm/bin/../lib/gcc/arm-eabi/4.7.0/../../../../arm-eabi/lib/thumb\libc.a(lib_a-mbsrtowcs.o)
 .ARM.attributes
                0x00001897       0x32 c:/devkitpro/devkitarm/bin/../lib/gcc/arm-eabi/4.7.0/../../../../arm-eabi/lib/thumb\libc.a(lib_a-mbtowc_r.o)
 .ARM.attributes
                0x000018c9       0x32 c:/devkitpro/devkitarm/bin/../lib/gcc/arm-eabi/4.7.0/../../../../arm-eabi/lib/thumb\libc.a(lib_a-memchr-stub.o)
 .ARM.attributes
                0x000018fb       0x32 c:/devkitpro/devkitarm/bin/../lib/gcc/arm-eabi/4.7.0/../../../../arm-eabi/lib/thumb\libc.a(lib_a-memcmp.o)
 .ARM.attributes
                0x0000192d       0x32 c:/devkitpro/devkitarm/bin/../lib/gcc/arm-eabi/4.7.0/../../../../arm-eabi/lib/thumb\libc.a(lib_a-memcpy-stub.o)
 .ARM.attributes
                0x0000195f       0x32 c:/devkitpro/devkitarm/bin/../lib/gcc/arm-eabi/4.7.0/../../../../arm-eabi/lib/thumb\libc.a(lib_a-memmove.o)
 .ARM.attributes
                0x00001991       0x32 c:/devkitpro/devkitarm/bin/../lib/gcc/arm-eabi/4.7.0/../../../../arm-eabi/lib/thumb\libc.a(lib_a-memset.o)
 .ARM.attributes
                0x000019c3       0x32 c:/devkitpro/devkitarm/bin/../lib/gcc/arm-eabi/4.7.0/../../../../arm-eabi/lib/thumb\libc.a(lib_a-mktime.o)
 .ARM.attributes
                0x000019f5       0x32 c:/devkitpro/devkitarm/bin/../lib/gcc/arm-eabi/4.7.0/../../../../arm-eabi/lib/thumb\libc.a(lib_a-mktm_r.o)
 .ARM.attributes
                0x00001a27       0x32 c:/devkitpro/devkitarm/bin/../lib/gcc/arm-eabi/4.7.0/../../../../arm-eabi/lib/thumb\libc.a(lib_a-mlock.o)
 .ARM.attributes
                0x00001a59       0x32 c:/devkitpro/devkitarm/bin/../lib/gcc/arm-eabi/4.7.0/../../../../arm-eabi/lib/thumb\libc.a(lib_a-printf.o)
 .ARM.attributes
                0x00001a8b       0x32 c:/devkitpro/devkitarm/bin/../lib/gcc/arm-eabi/4.7.0/../../../../arm-eabi/lib/thumb\libc.a(lib_a-putc.o)
 .ARM.attributes
                0x00001abd       0x32 c:/devkitpro/devkitarm/bin/../lib/gcc/arm-eabi/4.7.0/../../../../arm-eabi/lib/thumb\libc.a(lib_a-puts.o)
 .ARM.attributes
                0x00001aef       0x32 c:/devkitpro/devkitarm/bin/../lib/gcc/arm-eabi/4.7.0/../../../../arm-eabi/lib/thumb\libc.a(lib_a-realloc.o)
 .ARM.attributes
                0x00001b21       0x32 c:/devkitpro/devkitarm/bin/../lib/gcc/arm-eabi/4.7.0/../../../../arm-eabi/lib/thumb\libc.a(lib_a-reallocr.o)
 .ARM.attributes
                0x00001b53       0x32 c:/devkitpro/devkitarm/bin/../lib/gcc/arm-eabi/4.7.0/../../../../arm-eabi/lib/thumb\libc.a(lib_a-refill.o)
 .ARM.attributes
                0x00001b85       0x32 c:/devkitpro/devkitarm/bin/../lib/gcc/arm-eabi/4.7.0/../../../../arm-eabi/lib/thumb\libc.a(lib_a-rget.o)
 .ARM.attributes
                0x00001bb7       0x32 c:/devkitpro/devkitarm/bin/../lib/gcc/arm-eabi/4.7.0/../../../../arm-eabi/lib/thumb\libc.a(lib_a-setvbuf.o)
 .ARM.attributes
                0x00001be9       0x32 c:/devkitpro/devkitarm/bin/../lib/gcc/arm-eabi/4.7.0/../../../../arm-eabi/lib/thumb\libc.a(lib_a-signal.o)
 .ARM.attributes
                0x00001c1b       0x32 c:/devkitpro/devkitarm/bin/../lib/gcc/arm-eabi/4.7.0/../../../../arm-eabi/lib/thumb\libc.a(lib_a-siscanf.o)
 .ARM.attributes
                0x00001c4d       0x32 c:/devkitpro/devkitarm/bin/../lib/gcc/arm-eabi/4.7.0/../../../../arm-eabi/lib/thumb\libc.a(lib_a-sprintf.o)
 .ARM.attributes
                0x00001c7f       0x32 c:/devkitpro/devkitarm/bin/../lib/gcc/arm-eabi/4.7.0/../../../../arm-eabi/lib/thumb\libc.a(lib_a-stdio.o)
 .ARM.attributes
                0x00001cb1       0x32 c:/devkitpro/devkitarm/bin/../lib/gcc/arm-eabi/4.7.0/../../../../arm-eabi/lib/thumb\libc.a(lib_a-strcasecmp.o)
 .ARM.attributes
                0x00001ce3       0x32 c:/devkitpro/devkitarm/bin/../lib/gcc/arm-eabi/4.7.0/../../../../arm-eabi/lib/thumb\libc.a(lib_a-strcat.o)
 .ARM.attributes
                0x00001d15       0x32 c:/devkitpro/devkitarm/bin/../lib/gcc/arm-eabi/4.7.0/../../../../arm-eabi/lib/thumb\libc.a(lib_a-strchr.o)
 .ARM.attributes
                0x00001d47       0x32 c:/devkitpro/devkitarm/bin/../lib/gcc/arm-eabi/4.7.0/../../../../arm-eabi/lib/thumb\libc.a(lib_a-strcmp.o)
 .ARM.attributes
                0x00001d79       0x32 c:/devkitpro/devkitarm/bin/../lib/gcc/arm-eabi/4.7.0/../../../../arm-eabi/lib/thumb\libc.a(lib_a-strcpy.o)
 .ARM.attributes
                0x00001dab       0x32 c:/devkitpro/devkitarm/bin/../lib/gcc/arm-eabi/4.7.0/../../../../arm-eabi/lib/thumb\libc.a(lib_a-strerror.o)
 .ARM.attributes
                0x00001ddd       0x32 c:/devkitpro/devkitarm/bin/../lib/gcc/arm-eabi/4.7.0/../../../../arm-eabi/lib/thumb\libc.a(lib_a-strlcpy.o)
 .ARM.attributes
                0x00001e0f       0x32 c:/devkitpro/devkitarm/bin/../lib/gcc/arm-eabi/4.7.0/../../../../arm-eabi/lib/thumb\libc.a(lib_a-strlen.o)
 .ARM.attributes
                0x00001e41       0x32 c:/devkitpro/devkitarm/bin/../lib/gcc/arm-eabi/4.7.0/../../../../arm-eabi/lib/thumb\libc.a(lib_a-strncasecmp.o)
 .ARM.attributes
                0x00001e73       0x32 c:/devkitpro/devkitarm/bin/../lib/gcc/arm-eabi/4.7.0/../../../../arm-eabi/lib/thumb\libc.a(lib_a-strncmp.o)
 .ARM.attributes
                0x00001ea5       0x32 c:/devkitpro/devkitarm/bin/../lib/gcc/arm-eabi/4.7.0/../../../../arm-eabi/lib/thumb\libc.a(lib_a-strncpy.o)
 .ARM.attributes
                0x00001ed7       0x32 c:/devkitpro/devkitarm/bin/../lib/gcc/arm-eabi/4.7.0/../../../../arm-eabi/lib/thumb\libc.a(lib_a-strnlen.o)
 .ARM.attributes
                0x00001f09       0x32 c:/devkitpro/devkitarm/bin/../lib/gcc/arm-eabi/4.7.0/../../../../arm-eabi/lib/thumb\libc.a(lib_a-strpbrk.o)
 .ARM.attributes
                0x00001f3b       0x32 c:/devkitpro/devkitarm/bin/../lib/gcc/arm-eabi/4.7.0/../../../../arm-eabi/lib/thumb\libc.a(lib_a-strrchr.o)
 .ARM.attributes
                0x00001f6d       0x32 c:/devkitpro/devkitarm/bin/../lib/gcc/arm-eabi/4.7.0/../../../../arm-eabi/lib/thumb\libc.a(lib_a-strtol.o)
 .ARM.attributes
                0x00001f9f       0x32 c:/devkitpro/devkitarm/bin/../lib/gcc/arm-eabi/4.7.0/../../../../arm-eabi/lib/thumb\libc.a(lib_a-svfiscanf.o)
 .ARM.attributes
                0x00001fd1       0x32 c:/devkitpro/devkitarm/bin/../lib/gcc/arm-eabi/4.7.0/../../../../arm-eabi/lib/thumb\libc.a(lib_a-svfprintf.o)
 .ARM.attributes
                0x00002003       0x32 c:/devkitpro/devkitarm/bin/../lib/gcc/arm-eabi/4.7.0/../../../../arm-eabi/lib/thumb\libc.a(lib_a-sysclose.o)
 .ARM.attributes
                0x00002035       0x32 c:/devkitpro/devkitarm/bin/../lib/gcc/arm-eabi/4.7.0/../../../../arm-eabi/lib/thumb\libc.a(lib_a-syslseek.o)
 .ARM.attributes
                0x00002067       0x32 c:/devkitpro/devkitarm/bin/../lib/gcc/arm-eabi/4.7.0/../../../../arm-eabi/lib/thumb\libc.a(lib_a-sysopen.o)
 .ARM.attributes
                0x00002099       0x32 c:/devkitpro/devkitarm/bin/../lib/gcc/arm-eabi/4.7.0/../../../../arm-eabi/lib/thumb\libc.a(lib_a-sysread.o)
 .ARM.attributes
                0x000020cb       0x32 c:/devkitpro/devkitarm/bin/../lib/gcc/arm-eabi/4.7.0/../../../../arm-eabi/lib/thumb\libc.a(lib_a-syssbrk.o)
 .ARM.attributes
                0x000020fd       0x32 c:/devkitpro/devkitarm/bin/../lib/gcc/arm-eabi/4.7.0/../../../../arm-eabi/lib/thumb\libc.a(lib_a-sysstat.o)
 .ARM.attributes
                0x0000212f       0x32 c:/devkitpro/devkitarm/bin/../lib/gcc/arm-eabi/4.7.0/../../../../arm-eabi/lib/thumb\libc.a(lib_a-syswrite.o)
 .ARM.attributes
                0x00002161       0x32 c:/devkitpro/devkitarm/bin/../lib/gcc/arm-eabi/4.7.0/../../../../arm-eabi/lib/thumb\libc.a(lib_a-time.o)
 .ARM.attributes
                0x00002193       0x32 c:/devkitpro/devkitarm/bin/../lib/gcc/arm-eabi/4.7.0/../../../../arm-eabi/lib/thumb\libc.a(lib_a-towlower.o)
 .ARM.attributes
                0x000021c5       0x32 c:/devkitpro/devkitarm/bin/../lib/gcc/arm-eabi/4.7.0/../../../../arm-eabi/lib/thumb\libc.a(lib_a-towupper.o)
 .ARM.attributes
                0x000021f7       0x32 c:/devkitpro/devkitarm/bin/../lib/gcc/arm-eabi/4.7.0/../../../../arm-eabi/lib/thumb\libc.a(lib_a-tzlock.o)
 .ARM.attributes
                0x00002229       0x32 c:/devkitpro/devkitarm/bin/../lib/gcc/arm-eabi/4.7.0/../../../../arm-eabi/lib/thumb\libc.a(lib_a-tzvars.o)
 .ARM.attributes
                0x0000225b       0x32 c:/devkitpro/devkitarm/bin/../lib/gcc/arm-eabi/4.7.0/../../../../arm-eabi/lib/thumb\libc.a(lib_a-ungetc.o)
 .ARM.attributes
                0x0000228d       0x32 c:/devkitpro/devkitarm/bin/../lib/gcc/arm-eabi/4.7.0/../../../../arm-eabi/lib/thumb\libc.a(lib_a-u_strerr.o)
 .ARM.attributes
                0x000022bf       0x32 c:/devkitpro/devkitarm/bin/../lib/gcc/arm-eabi/4.7.0/../../../../arm-eabi/lib/thumb\libc.a(lib_a-vfiprintf.o)
 .ARM.attributes
                0x000022f1       0x32 c:/devkitpro/devkitarm/bin/../lib/gcc/arm-eabi/4.7.0/../../../../arm-eabi/lib/thumb\libc.a(lib_a-vfprintf.o)
 .ARM.attributes
                0x00002323       0x32 c:/devkitpro/devkitarm/bin/../lib/gcc/arm-eabi/4.7.0/../../../../arm-eabi/lib/thumb\libc.a(lib_a-vsnprintf.o)
 .ARM.attributes
                0x00002355       0x32 c:/devkitpro/devkitarm/bin/../lib/gcc/arm-eabi/4.7.0/../../../../arm-eabi/lib/thumb\libc.a(lib_a-wbuf.o)
 .ARM.attributes
                0x00002387       0x32 c:/devkitpro/devkitarm/bin/../lib/gcc/arm-eabi/4.7.0/../../../../arm-eabi/lib/thumb\libc.a(lib_a-wcrtomb.o)
 .ARM.attributes
                0x000023b9       0x32 c:/devkitpro/devkitarm/bin/../lib/gcc/arm-eabi/4.7.0/../../../../arm-eabi/lib/thumb\libc.a(lib_a-wcsrtombs.o)
 .ARM.attributes
                0x000023eb       0x32 c:/devkitpro/devkitarm/bin/../lib/gcc/arm-eabi/4.7.0/../../../../arm-eabi/lib/thumb\libc.a(lib_a-wctob.o)
 .ARM.attributes
                0x0000241d       0x32 c:/devkitpro/devkitarm/bin/../lib/gcc/arm-eabi/4.7.0/../../../../arm-eabi/lib/thumb\libc.a(lib_a-wctomb_r.o)
 .ARM.attributes
                0x0000244f       0x32 c:/devkitpro/devkitarm/bin/../lib/gcc/arm-eabi/4.7.0/../../../../arm-eabi/lib/thumb\libc.a(lib_a-wsetup.o)
 .ARM.attributes
                0x00002481       0x32 c:/devkitpro/devkitarm/bin/../lib/gcc/arm-eabi/4.7.0/../../../../arm-eabi/lib/thumb\libc.a(lib_a-__atexit.o)
 .ARM.attributes
                0x000024b3       0x32 c:/devkitpro/devkitarm/bin/../lib/gcc/arm-eabi/4.7.0/../../../../arm-eabi/lib/thumb\libc.a(lib_a-div.o)
 .ARM.attributes
                0x000024e5       0x32 c:/devkitpro/devkitarm/bin/../lib/gcc/arm-eabi/4.7.0/../../../../arm-eabi/lib/thumb\libc.a(lib_a-dtoa.o)
 .ARM.attributes
                0x00002517       0x32 c:/devkitpro/devkitarm/bin/../lib/gcc/arm-eabi/4.7.0/../../../../arm-eabi/lib/thumb\libc.a(lib_a-flags.o)
 .ARM.attributes
                0x00002549       0x32 c:/devkitpro/devkitarm/bin/../lib/gcc/arm-eabi/4.7.0/../../../../arm-eabi/lib/thumb\libc.a(lib_a-fputwc.o)
 .ARM.attributes
                0x0000257b       0x32 c:/devkitpro/devkitarm/bin/../lib/gcc/arm-eabi/4.7.0/../../../../arm-eabi/lib/thumb\libc.a(lib_a-getenv_r.o)
 .ARM.attributes
                0x000025ad       0x32 c:/devkitpro/devkitarm/bin/../lib/gcc/arm-eabi/4.7.0/../../../../arm-eabi/lib/thumb\libc.a(lib_a-gettzinfo.o)
 .ARM.attributes
                0x000025df       0x32 c:/devkitpro/devkitarm/bin/../lib/gcc/arm-eabi/4.7.0/../../../../arm-eabi/lib/thumb\libc.a(lib_a-iswspace.o)
 .ARM.attributes
                0x00002611       0x32 c:/devkitpro/devkitarm/bin/../lib/gcc/arm-eabi/4.7.0/../../../../arm-eabi/lib/thumb\libc.a(lib_a-jp2uc.o)
 .ARM.attributes
                0x00002643       0x32 c:/devkitpro/devkitarm/bin/../lib/gcc/arm-eabi/4.7.0/../../../../arm-eabi/lib/thumb\libc.a(lib_a-mbsnrtowcs.o)
 .ARM.attributes
                0x00002675       0x32 c:/devkitpro/devkitarm/bin/../lib/gcc/arm-eabi/4.7.0/../../../../arm-eabi/lib/thumb\libc.a(lib_a-mprec.o)
 .ARM.attributes
                0x000026a7       0x32 c:/devkitpro/devkitarm/bin/../lib/gcc/arm-eabi/4.7.0/../../../../arm-eabi/lib/thumb\libc.a(lib_a-sccl.o)
 .ARM.attributes
                0x000026d9       0x32 c:/devkitpro/devkitarm/bin/../lib/gcc/arm-eabi/4.7.0/../../../../arm-eabi/lib/thumb\libc.a(lib_a-strtoll_r.o)
 .ARM.attributes
                0x0000270b       0x32 c:/devkitpro/devkitarm/bin/../lib/gcc/arm-eabi/4.7.0/../../../../arm-eabi/lib/thumb\libc.a(lib_a-strtoull_r.o)
 .ARM.attributes
                0x0000273d       0x32 c:/devkitpro/devkitarm/bin/../lib/gcc/arm-eabi/4.7.0/../../../../arm-eabi/lib/thumb\libc.a(lib_a-strtoul.o)
 .ARM.attributes
                0x0000276f       0x32 c:/devkitpro/devkitarm/bin/../lib/gcc/arm-eabi/4.7.0/../../../../arm-eabi/lib/thumb\libc.a(lib_a-svfiprintf.o)
 .ARM.attributes
                0x000027a1       0x32 c:/devkitpro/devkitarm/bin/../lib/gcc/arm-eabi/4.7.0/../../../../arm-eabi/lib/thumb\libc.a(lib_a-wcsnrtombs.o)
 .ARM.attributes
                0x000027d3       0x32 c:/devkitpro/devkitarm/bin/../lib/gcc/arm-eabi/4.7.0/../../../../arm-eabi/lib/thumb\libc.a(lib_a-environ.o)
 .ARM.attributes
                0x00002805       0x32 c:/devkitpro/devkitarm/bin/../lib/gcc/arm-eabi/4.7.0/../../../../arm-eabi/lib/thumb\libc.a(lib_a-envlock.o)
 .ARM.attributes
                0x00002837       0x32 c:/devkitpro/devkitarm/bin/../lib/gcc/arm-eabi/4.7.0/../../../../arm-eabi/lib/thumb\libsysbase.a(iosupport.o)
 .ARM.attributes
                0x00002869       0x32 c:/devkitpro/devkitarm/bin/../lib/gcc/arm-eabi/4.7.0/../../../../arm-eabi/lib/thumb\libsysbase.a(close.o)
 .ARM.attributes
                0x0000289b       0x32 c:/devkitpro/devkitarm/bin/../lib/gcc/arm-eabi/4.7.0/../../../../arm-eabi/lib/thumb\libsysbase.a(fstat.o)
 .ARM.attributes
                0x000028cd       0x32 c:/devkitpro/devkitarm/bin/../lib/gcc/arm-eabi/4.7.0/../../../../arm-eabi/lib/thumb\libsysbase.a(getpid.o)
 .ARM.attributes
                0x000028ff       0x32 c:/devkitpro/devkitarm/bin/../lib/gcc/arm-eabi/4.7.0/../../../../arm-eabi/lib/thumb\libsysbase.a(isatty.o)
 .ARM.attributes
                0x00002931       0x32 c:/devkitpro/devkitarm/bin/../lib/gcc/arm-eabi/4.7.0/../../../../arm-eabi/lib/thumb\libsysbase.a(kill.o)
 .ARM.attributes
                0x00002963       0x32 c:/devkitpro/devkitarm/bin/../lib/gcc/arm-eabi/4.7.0/../../../../arm-eabi/lib/thumb\libsysbase.a(lseek.o)
 .ARM.attributes
                0x00002995       0x32 c:/devkitpro/devkitarm/bin/../lib/gcc/arm-eabi/4.7.0/../../../../arm-eabi/lib/thumb\libsysbase.a(open.o)
 .ARM.attributes
                0x000029c7       0x32 c:/devkitpro/devkitarm/bin/../lib/gcc/arm-eabi/4.7.0/../../../../arm-eabi/lib/thumb\libsysbase.a(read.o)
 .ARM.attributes
                0x000029f9       0x32 c:/devkitpro/devkitarm/bin/../lib/gcc/arm-eabi/4.7.0/../../../../arm-eabi/lib/thumb\libsysbase.a(sbrk.o)
 .ARM.attributes
                0x00002a2b       0x32 c:/devkitpro/devkitarm/bin/../lib/gcc/arm-eabi/4.7.0/../../../../arm-eabi/lib/thumb\libsysbase.a(stat.o)
 .ARM.attributes
                0x00002a5d       0x32 c:/devkitpro/devkitarm/bin/../lib/gcc/arm-eabi/4.7.0/../../../../arm-eabi/lib/thumb\libsysbase.a(times.o)
 .ARM.attributes
                0x00002a8f       0x32 c:/devkitpro/devkitarm/bin/../lib/gcc/arm-eabi/4.7.0/../../../../arm-eabi/lib/thumb\libsysbase.a(write.o)
 .ARM.attributes
                0x00002ac1       0x32 c:/devkitpro/devkitarm/bin/../lib/gcc/arm-eabi/4.7.0/../../../../arm-eabi/lib/thumb\libsysbase.a(_exit.o)
 .ARM.attributes
                0x00002af3       0x32 c:/devkitpro/devkitarm/bin/../lib/gcc/arm-eabi/4.7.0/../../../../arm-eabi/lib/thumb\libsysbase.a(malloc_vars.o)
 .ARM.attributes
                0x00002b25       0x32 c:/devkitpro/devkitarm/bin/../lib/gcc/arm-eabi/4.7.0/../../../../arm-eabi/lib/thumb\libsysbase.a(chdir.o)
 .ARM.attributes
                0x00002b57       0x32 c:/devkitpro/devkitarm/bin/../lib/gcc/arm-eabi/4.7.0/../../../../arm-eabi/lib/thumb\libsysbase.a(build_argv.o)
 .ARM.attributes
                0x00002b89       0x32 c:/devkitpro/devkitarm/bin/../lib/gcc/arm-eabi/4.7.0/../../../../arm-eabi/lib/thumb\libsysbase.a(syscall_support.o)
 .ARM.attributes
                0x00002bbb       0x32 c:/devkitpro/devkitarm/bin/../lib/gcc/arm-eabi/4.7.0/../../../../arm-eabi/lib/thumb\libsysbase.a(handle_manager.o)
 .ARM.attributes
                0x00002bed       0x32 c:/devkitpro/devkitarm/bin/../lib/gcc/arm-eabi/4.7.0/../../../../arm-eabi/lib/thumb\libsysbase.a(dirent.o)
 .ARM.attributes
                0x00002c1f       0x1a c:/devkitpro/devkitarm/bin/../lib/gcc/arm-eabi/4.7.0/thumb\libgcc.a(_aeabi_uldivmod.o)
 .ARM.attributes
                0x00002c39       0x32 c:/devkitpro/devkitarm/bin/../lib/gcc/arm-eabi/4.7.0/thumb\libgcc.a(bpabi.o)
 .ARM.attributes
                0x00002c6b       0x32 c:/devkitpro/devkitarm/bin/../lib/gcc/arm-eabi/4.7.0/thumb\libgcc.a(_divdi3.o)
 .ARM.attributes
                0x00002c9d       0x32 c:/devkitpro/devkitarm/bin/../lib/gcc/arm-eabi/4.7.0/thumb\libgcc.a(_udivdi3.o)
 .ARM.attributes
                0x00002ccf       0x32 c:/devkitpro/devkitarm/bin/../lib/gcc/arm-eabi/4.7.0/thumb/crtend.o
 .ARM.attributes
                0x00002d01       0x18 c:/devkitpro/devkitarm/bin/../lib/gcc/arm-eabi/4.7.0/thumb/crtn.o

.debug
 *(.debug)

.line
 *(.line)

.debug_srcinfo
 *(.debug_srcinfo)

.debug_sfnames
 *(.debug_sfnames)

.debug_aranges  0x00000000      0x5c8
 *(.debug_aranges)
 .debug_aranges
                0x00000000       0x20 EEprom.o
 .debug_aranges
                0x00000020       0x20 Flash.o
 .debug_aranges
                0x00000040       0x28 GBA.o
 .debug_aranges
                0x00000068       0x18 Globals.o
 .debug_aranges
                0x00000080       0x20 RTC.o
 .debug_aranges
                0x000000a0       0x20 Sram.o
 .debug_aranges
                0x000000c0       0x20 Util.o
 .debug_aranges
                0x000000e0       0x20 agbprint.o
 .debug_aranges
                0x00000100       0x20 armdis.o
 .debug_aranges
                0x00000120       0x28 bios.o
 .debug_aranges
                0x00000148       0x30 cpumg.o
 .debug_aranges
                0x00000178       0x70 file_browse.o
 .debug_aranges
                0x000001e8       0x28 main.o
 .debug_aranges
                0x00000210       0x20 mydebuger.o
 .debug_aranges
                0x00000230       0x18 sound.o
 .debug_aranges
                0x00000248       0x20 system.o
 .debug_aranges
                0x00000268       0x20 background.o
 .debug_aranges
                0x00000288       0x20 console.o
 .debug_aranges
                0x000002a8       0x20 devkitpatcher.o
 .debug_aranges
                0x000002c8       0x20 dldi.o
 .debug_aranges
                0x000002e8       0x20 heapfuncs.o
 .debug_aranges
                0x00000308       0x20 interrupts.o
 .debug_aranges
                0x00000328       0x20 keys.o
 .debug_aranges
                0x00000348       0x20 libnds_exit.o
 .debug_aranges
                0x00000368       0x20 sassert.o
 .debug_aranges
                0x00000388       0x20 trig.o
 .debug_aranges
                0x000003a8       0x20 video.o
 .debug_aranges
                0x000003c8       0x20 cpu_s.o
 .debug_aranges
                0x000003e8       0x20 dcache.o
 .debug_aranges
                0x00000408       0x20 dldi_stub.o
 .debug_aranges
                0x00000428       0x20 ex_s.o
 .debug_aranges
                0x00000448       0x20 icache.o
 .debug_aranges
                0x00000468       0x20 interruptDispatcher.o
 .debug_aranges
                0x00000488       0x20 mpu_setup.o
 .debug_aranges
                0x000004a8       0x20 c:/devkitPro/libnds/lib\libfat.a(libfat.o)
 .debug_aranges
                0x000004c8       0x20 c:/devkitPro/libnds/lib\libfat.a(partition.o)
 .debug_aranges
                0x000004e8       0x20 c:/devkitPro/libnds/lib\libfat.a(cache.o)
 .debug_aranges
                0x00000508       0x20 c:/devkitPro/libnds/lib\libfat.a(directory.o)
 .debug_aranges
                0x00000528       0x20 c:/devkitPro/libnds/lib\libfat.a(fatdir.o)
 .debug_aranges
                0x00000548       0x20 c:/devkitPro/libnds/lib\libfat.a(fatfile.o)
 .debug_aranges
                0x00000568       0x20 c:/devkitPro/libnds/lib\libfat.a(file_allocation_table.o)
 .debug_aranges
                0x00000588       0x20 c:/devkitPro/libnds/lib\libfat.a(filetime.o)
 .debug_aranges
                0x000005a8       0x20 c:/devkitPro/libnds/lib\libfat.a(lock.o)

.debug_pubnames
 *(.debug_pubnames)

.debug_info     0x00000000    0x4c115
 *(.debug_info)
 .debug_info    0x00000000      0xa56 EEprom.o
 .debug_info    0x00000a56      0xad6 Flash.o
 .debug_info    0x0000152c     0x46f9 GBA.o
 .debug_info    0x00005c25     0x157a Globals.o
 .debug_info    0x0000719f      0xd12 RTC.o
 .debug_info    0x00007eb1      0x4c8 Sram.o
 .debug_info    0x00008379     0x25cd Util.o
 .debug_info    0x0000a946      0x5bf agbprint.o
 .debug_info    0x0000af05     0x15fc armdis.o
 .debug_info    0x0000c501     0x6b0b bios.o
 .debug_info    0x0001300c    0x11bd6 cpumg.o
 .debug_info    0x00024be2     0xce59 file_browse.o
 .debug_info    0x00031a3b     0x5e82 main.o
 .debug_info    0x000378bd     0x2686 mydebuger.o
 .debug_info    0x00039f43      0x566 sound.o
 .debug_info    0x0003a4a9      0x856 system.o
 .debug_info    0x0003acff      0xc25 background.o
 .debug_info    0x0003b924     0x2915 console.o
 .debug_info    0x0003e239      0x47e devkitpatcher.o
 .debug_info    0x0003e6b7      0x7f6 dldi.o
 .debug_info    0x0003eead      0x137 heapfuncs.o
 .debug_info    0x0003efe4      0x63a interrupts.o
 .debug_info    0x0003f61e      0x22e keys.o
 .debug_info    0x0003f84c       0xbf libnds_exit.o
 .debug_info    0x0003f90b      0x548 sassert.o
 .debug_info    0x0003fe53      0x629 trig.o
 .debug_info    0x0004047c      0x71e video.o
 .debug_info    0x00040b9a       0xb9 cpu_s.o
 .debug_info    0x00040c53       0xba dcache.o
 .debug_info    0x00040d0d       0xbd dldi_stub.o
 .debug_info    0x00040dca       0xb8 ex_s.o
 .debug_info    0x00040e82       0xba icache.o
 .debug_info    0x00040f3c       0xc7 interruptDispatcher.o
 .debug_info    0x00041003       0xbd mpu_setup.o
 .debug_info    0x000410c0     0x19e3 c:/devkitPro/libnds/lib\libfat.a(libfat.o)
 .debug_info    0x00042aa3     0x2210 c:/devkitPro/libnds/lib\libfat.a(partition.o)
 .debug_info    0x00044cb3      0xc26 c:/devkitPro/libnds/lib\libfat.a(cache.o)
 .debug_info    0x000458d9     0x1c63 c:/devkitPro/libnds/lib\libfat.a(directory.o)
 .debug_info    0x0004753c      0x245 c:/devkitPro/libnds/lib\libfat.a(disc.o)
 .debug_info    0x00047781     0x1a2c c:/devkitPro/libnds/lib\libfat.a(fatdir.o)
 .debug_info    0x000491ad     0x234d c:/devkitPro/libnds/lib\libfat.a(fatfile.o)
 .debug_info    0x0004b4fa      0x91f c:/devkitPro/libnds/lib\libfat.a(file_allocation_table.o)
 .debug_info    0x0004be19      0x1da c:/devkitPro/libnds/lib\libfat.a(filetime.o)
 .debug_info    0x0004bff3      0x122 c:/devkitPro/libnds/lib\libfat.a(lock.o)

.debug_abbrev   0x00000000     0x6fbf
 *(.debug_abbrev)
 .debug_abbrev  0x00000000      0x24f EEprom.o
 .debug_abbrev  0x0000024f      0x288 Flash.o
 .debug_abbrev  0x000004d7      0x607 GBA.o
 .debug_abbrev  0x00000ade      0x1d8 Globals.o
 .debug_abbrev  0x00000cb6      0x338 RTC.o
 .debug_abbrev  0x00000fee      0x1bf Sram.o
 .debug_abbrev  0x000011ad      0x489 Util.o
 .debug_abbrev  0x00001636      0x22c agbprint.o
 .debug_abbrev  0x00001862      0x2cc armdis.o
 .debug_abbrev  0x00001b2e      0x558 bios.o
 .debug_abbrev  0x00002086      0x5f5 cpumg.o
 .debug_abbrev  0x0000267b      0xa47 file_browse.o
 .debug_abbrev  0x000030c2      0x7eb main.o
 .debug_abbrev  0x000038ad      0x377 mydebuger.o
 .debug_abbrev  0x00003c24      0x109 sound.o
 .debug_abbrev  0x00003d2d      0x22e system.o
 .debug_abbrev  0x00003f5b      0x2e1 background.o
 .debug_abbrev  0x0000423c      0x54e console.o
 .debug_abbrev  0x0000478a      0x202 devkitpatcher.o
 .debug_abbrev  0x0000498c      0x26f dldi.o
 .debug_abbrev  0x00004bfb       0xc6 heapfuncs.o
 .debug_abbrev  0x00004cc1      0x251 interrupts.o
 .debug_abbrev  0x00004f12      0x112 keys.o
 .debug_abbrev  0x00005024       0x69 libnds_exit.o
 .debug_abbrev  0x0000508d      0x176 sassert.o
 .debug_abbrev  0x00005203      0x206 trig.o
 .debug_abbrev  0x00005409      0x209 video.o
 .debug_abbrev  0x00005612       0x14 cpu_s.o
 .debug_abbrev  0x00005626       0x14 dcache.o
 .debug_abbrev  0x0000563a       0x14 dldi_stub.o
 .debug_abbrev  0x0000564e       0x14 ex_s.o
 .debug_abbrev  0x00005662       0x14 icache.o
 .debug_abbrev  0x00005676       0x14 interruptDispatcher.o
 .debug_abbrev  0x0000568a       0x14 mpu_setup.o
 .debug_abbrev  0x0000569e      0x303 c:/devkitPro/libnds/lib\libfat.a(libfat.o)
 .debug_abbrev  0x000059a1      0x39e c:/devkitPro/libnds/lib\libfat.a(partition.o)
 .debug_abbrev  0x00005d3f      0x281 c:/devkitPro/libnds/lib\libfat.a(cache.o)
 .debug_abbrev  0x00005fc0      0x430 c:/devkitPro/libnds/lib\libfat.a(directory.o)
 .debug_abbrev  0x000063f0       0xcb c:/devkitPro/libnds/lib\libfat.a(disc.o)
 .debug_abbrev  0x000064bb      0x369 c:/devkitPro/libnds/lib\libfat.a(fatdir.o)
 .debug_abbrev  0x00006824      0x40a c:/devkitPro/libnds/lib\libfat.a(fatfile.o)
 .debug_abbrev  0x00006c2e      0x277 c:/devkitPro/libnds/lib\libfat.a(file_allocation_table.o)
 .debug_abbrev  0x00006ea5       0xa1 c:/devkitPro/libnds/lib\libfat.a(filetime.o)
 .debug_abbrev  0x00006f46       0x79 c:/devkitPro/libnds/lib\libfat.a(lock.o)

.debug_line     0x00000000    0x146fe
 *(.debug_line)
 .debug_line    0x00000000      0x281 EEprom.o
 .debug_line    0x00000281      0x2c6 Flash.o
 .debug_line    0x00000547     0x14d5 GBA.o
 .debug_line    0x00001a1c      0x216 Globals.o
 .debug_line    0x00001c32      0x358 RTC.o
 .debug_line    0x00001f8a      0x18d Sram.o
 .debug_line    0x00002117      0x58d Util.o
 .debug_line    0x000026a4      0x1d3 agbprint.o
 .debug_line    0x00002877      0xa3a armdis.o
 .debug_line    0x000032b1     0x2f46 bios.o
 .debug_line    0x000061f7     0x6794 cpumg.o
 .debug_line    0x0000c98b     0x15a3 file_browse.o
 .debug_line    0x0000df2e      0xb79 main.o
 .debug_line    0x0000eaa7      0x61c mydebuger.o
 .debug_line    0x0000f0c3      0x108 sound.o
 .debug_line    0x0000f1cb      0x1e3 system.o
 .debug_line    0x0000f3ae      0x459 background.o
 .debug_line    0x0000f807      0x848 console.o
 .debug_line    0x0001004f      0x243 devkitpatcher.o
 .debug_line    0x00010292      0x329 dldi.o
 .debug_line    0x000105bb      0x1c4 heapfuncs.o
 .debug_line    0x0001077f      0x258 interrupts.o
 .debug_line    0x000109d7      0x145 keys.o
 .debug_line    0x00010b1c       0x83 libnds_exit.o
 .debug_line    0x00010b9f      0x166 sassert.o
 .debug_line    0x00010d05      0x2a8 trig.o
 .debug_line    0x00010fad      0x1ec video.o
 .debug_line    0x00011199      0x125 cpu_s.o
 .debug_line    0x000112be       0x9f dcache.o
 .debug_line    0x0001135d       0x83 dldi_stub.o
 .debug_line    0x000113e0      0x14c ex_s.o
 .debug_line    0x0001152c       0x89 icache.o
 .debug_line    0x000115b5       0xc5 interruptDispatcher.o
 .debug_line    0x0001167a       0xf7 mpu_setup.o
 .debug_line    0x00011771      0x3fe c:/devkitPro/libnds/lib\libfat.a(libfat.o)
 .debug_line    0x00011b6f      0x6d4 c:/devkitPro/libnds/lib\libfat.a(partition.o)
 .debug_line    0x00012243      0x3a5 c:/devkitPro/libnds/lib\libfat.a(cache.o)
 .debug_line    0x000125e8      0xabf c:/devkitPro/libnds/lib\libfat.a(directory.o)
 .debug_line    0x000130a7      0x100 c:/devkitPro/libnds/lib\libfat.a(disc.o)
 .debug_line    0x000131a7      0x64e c:/devkitPro/libnds/lib\libfat.a(fatdir.o)
 .debug_line    0x000137f5      0x9bf c:/devkitPro/libnds/lib\libfat.a(fatfile.o)
 .debug_line    0x000141b4      0x356 c:/devkitPro/libnds/lib\libfat.a(file_allocation_table.o)
 .debug_line    0x0001450a      0x173 c:/devkitPro/libnds/lib\libfat.a(filetime.o)
 .debug_line    0x0001467d       0x81 c:/devkitPro/libnds/lib\libfat.a(lock.o)

.debug_frame    0x00000000     0x27e4
 *(.debug_frame)
 .debug_frame   0x00000000       0xa8 EEprom.o
 .debug_frame   0x000000a8       0xe8 Flash.o
 .debug_frame   0x00000190      0x3bc GBA.o
 .debug_frame   0x0000054c       0xa8 RTC.o
 .debug_frame   0x000005f4       0x40 Sram.o
 .debug_frame   0x00000634      0x2a0 Util.o
 .debug_frame   0x000008d4       0x88 agbprint.o
 .debug_frame   0x0000095c       0xa0 armdis.o
 .debug_frame   0x000009fc      0x408 bios.o
 .debug_frame   0x00000e04      0x2b0 cpumg.o
 .debug_frame   0x000010b4      0x2a4 file_browse.o
 .debug_frame   0x00001358       0xd0 main.o
 .debug_frame   0x00001428       0x3c mydebuger.o
 .debug_frame   0x00001464       0xf0 system.o
 .debug_frame   0x00001554       0xb0 background.o
 .debug_frame   0x00001604      0x1d4 console.o
 .debug_frame   0x000017d8       0x38 devkitpatcher.o
 .debug_frame   0x00001810       0x94 dldi.o
 .debug_frame   0x000018a4       0x48 heapfuncs.o
 .debug_frame   0x000018ec       0xb8 interrupts.o
 .debug_frame   0x000019a4       0x8c keys.o
 .debug_frame   0x00001a30       0x38 libnds_exit.o
 .debug_frame   0x00001a68       0x30 sassert.o
 .debug_frame   0x00001a98       0xf4 trig.o
 .debug_frame   0x00001b8c       0xc4 video.o
 .debug_frame   0x00001c50       0xd4 c:/devkitPro/libnds/lib\libfat.a(libfat.o)
 .debug_frame   0x00001d24      0x134 c:/devkitPro/libnds/lib\libfat.a(partition.o)
 .debug_frame   0x00001e58      0x1c0 c:/devkitPro/libnds/lib\libfat.a(cache.o)
 .debug_frame   0x00002018      0x270 c:/devkitPro/libnds/lib\libfat.a(directory.o)
 .debug_frame   0x00002288      0x17c c:/devkitPro/libnds/lib\libfat.a(fatdir.o)
 .debug_frame   0x00002404      0x210 c:/devkitPro/libnds/lib\libfat.a(fatfile.o)
 .debug_frame   0x00002614      0x120 c:/devkitPro/libnds/lib\libfat.a(file_allocation_table.o)
 .debug_frame   0x00002734       0x60 c:/devkitPro/libnds/lib\libfat.a(filetime.o)
 .debug_frame   0x00002794       0x50 c:/devkitPro/libnds/lib\libfat.a(lock.o)

.debug_str      0x00000000     0xb82d
 *(.debug_str)
 .debug_str     0x00000000      0x6cb EEprom.o
                                0x7bb (size before relaxing)
 .debug_str     0x000006cb      0x215 Flash.o
                                0x7c8 (size before relaxing)
 .debug_str     0x000008e0     0x12cd GBA.o
                               0x1b50 (size before relaxing)
 .debug_str     0x00001bad       0xd0 Globals.o
                                0xad6 (size before relaxing)
 .debug_str     0x00001c7d      0x122 RTC.o
                                0x782 (size before relaxing)
 .debug_str     0x00001d9f       0xa6 Sram.o
                                0x416 (size before relaxing)
 .debug_str     0x00001e45      0x30d Util.o
                                0xd9c (size before relaxing)
 .debug_str     0x00002152       0xfd agbprint.o
                                0x495 (size before relaxing)
 .debug_str     0x0000224f      0x11b armdis.o
                                0x482 (size before relaxing)
 .debug_str     0x0000236a      0x563 bios.o
                               0x114f (size before relaxing)
 .debug_str     0x000028cd      0x65e cpumg.o
                               0x168c (size before relaxing)
 .debug_str     0x00002f2b     0x4965 file_browse.o
                               0x5592 (size before relaxing)
 .debug_str     0x00007890      0xebd main.o
                               0x3978 (size before relaxing)
 .debug_str     0x0000874d       0x81 mydebuger.o
                                0xf46 (size before relaxing)
 .debug_str     0x000087ce       0x50 sound.o
                                0x427 (size before relaxing)
 .debug_str     0x0000881e      0x2fd system.o
                                0x749 (size before relaxing)
 .debug_str     0x00008b1b      0x300 background.o
                                0x68e (size before relaxing)
 .debug_str     0x00008e1b      0x462 console.o
                               0x10b9 (size before relaxing)
 .debug_str     0x0000927d      0x209 devkitpatcher.o
                                0x353 (size before relaxing)
 .debug_str     0x00009486      0x11e dldi.o
                                0x40d (size before relaxing)
 .debug_str     0x000095a4       0x81 heapfuncs.o
                                0x157 (size before relaxing)
 .debug_str     0x00009625       0xe6 interrupts.o
                                0x399 (size before relaxing)
 .debug_str     0x0000970b       0xa8 keys.o
                                0x1b1 (size before relaxing)
 .debug_str     0x000097b3       0x72 libnds_exit.o
                                0x102 (size before relaxing)
 .debug_str     0x00009825       0x73 sassert.o
                                0x38f (size before relaxing)
 .debug_str     0x00009898       0xe0 trig.o
                                0x1e6 (size before relaxing)
 .debug_str     0x00009978      0x52c video.o
                                0xb3b (size before relaxing)
 .debug_str     0x00009ea4      0x40e c:/devkitPro/libnds/lib\libfat.a(libfat.o)
                                0xca5 (size before relaxing)
 .debug_str     0x0000a2b2      0x546 c:/devkitPro/libnds/lib\libfat.a(partition.o)
                               0x106a (size before relaxing)
 .debug_str     0x0000a7f8      0x204 c:/devkitPro/libnds/lib\libfat.a(cache.o)
                                0x507 (size before relaxing)
 .debug_str     0x0000a9fc      0x777 c:/devkitPro/libnds/lib\libfat.a(directory.o)
                                0xd41 (size before relaxing)
 .debug_str     0x0000b173       0x56 c:/devkitPro/libnds/lib\libfat.a(disc.o)
                                0x22b (size before relaxing)
 .debug_str     0x0000b1c9      0x1ae c:/devkitPro/libnds/lib\libfat.a(fatdir.o)
                                0xcb8 (size before relaxing)
 .debug_str     0x0000b377      0x212 c:/devkitPro/libnds/lib\libfat.a(fatfile.o)
                                0xd63 (size before relaxing)
 .debug_str     0x0000b589      0x168 c:/devkitPro/libnds/lib\libfat.a(file_allocation_table.o)
                                0x589 (size before relaxing)
 .debug_str     0x0000b6f1       0xb5 c:/devkitPro/libnds/lib\libfat.a(filetime.o)
                                0x1b3 (size before relaxing)
 .debug_str     0x0000b7a6       0x87 c:/devkitPro/libnds/lib\libfat.a(lock.o)
                                0x12e (size before relaxing)

.debug_loc      0x00000000    0x4634f
 *(.debug_loc)
 .debug_loc     0x00000000      0x290 EEprom.o
 .debug_loc     0x00000290      0x55d Flash.o
 .debug_loc     0x000007ed     0x3141 GBA.o
 .debug_loc     0x0000392e      0x5e5 RTC.o
 .debug_loc     0x00003f13       0x63 Sram.o
 .debug_loc     0x00003f76     0x19b2 Util.o
 .debug_loc     0x00005928      0x1e8 agbprint.o
 .debug_loc     0x00005b10     0x2fa5 armdis.o
 .debug_loc     0x00008ab5     0xfc04 bios.o
 .debug_loc     0x000186b9    0x1b423 cpumg.o
 .debug_loc     0x00033adc     0x5634 file_browse.o
 .debug_loc     0x00039110      0xc31 main.o
 .debug_loc     0x00039d41      0x329 mydebuger.o
 .debug_loc     0x0003a06a       0x59 system.o
 .debug_loc     0x0003a0c3      0x92f background.o
 .debug_loc     0x0003a9f2     0x19c6 console.o
 .debug_loc     0x0003c3b8       0x64 devkitpatcher.o
 .debug_loc     0x0003c41c      0x3a4 dldi.o
 .debug_loc     0x0003c7c0       0x20 heapfuncs.o
 .debug_loc     0x0003c7e0      0x1aa interrupts.o
 .debug_loc     0x0003c98a       0x20 keys.o
 .debug_loc     0x0003c9aa       0x20 libnds_exit.o
 .debug_loc     0x0003c9ca       0xa4 sassert.o
 .debug_loc     0x0003ca6e      0xc6a trig.o
 .debug_loc     0x0003d6d8      0x296 video.o
 .debug_loc     0x0003d96e      0x4cc c:/devkitPro/libnds/lib\libfat.a(libfat.o)
 .debug_loc     0x0003de3a      0xd75 c:/devkitPro/libnds/lib\libfat.a(partition.o)
 .debug_loc     0x0003ebaf      0xddc c:/devkitPro/libnds/lib\libfat.a(cache.o)
 .debug_loc     0x0003f98b     0x26cd c:/devkitPro/libnds/lib\libfat.a(directory.o)
 .debug_loc     0x00042058      0xeb4 c:/devkitPro/libnds/lib\libfat.a(fatdir.o)
 .debug_loc     0x00042f0c     0x29a8 c:/devkitPro/libnds/lib\libfat.a(fatfile.o)
 .debug_loc     0x000458b4      0x9f1 c:/devkitPro/libnds/lib\libfat.a(file_allocation_table.o)
 .debug_loc     0x000462a5       0xaa c:/devkitPro/libnds/lib\libfat.a(filetime.o)

.debug_macinfo
 *(.debug_macinfo)

.debug_weaknames
 *(.debug_weaknames)

.debug_funcnames
 *(.debug_funcnames)

.debug_typenames
 *(.debug_typenames)

.debug_varnames
 *(.debug_varnames)

.stack          0x00080000        0x0
                0x00080000                _stack = .
 *(.stack)
LOAD c:/devkitpro/devkitarm/bin/../lib/gcc/arm-eabi/4.7.0/../../../../arm-eabi/lib/thumb/ds_arm9_crt0.o
LOAD c:/devkitpro/devkitarm/bin/../lib/gcc/arm-eabi/4.7.0/thumb/crti.o
LOAD c:/devkitpro/devkitarm/bin/../lib/gcc/arm-eabi/4.7.0/thumb/crtbegin.o
LOAD default_font.bin.o
LOAD EEprom.o
LOAD Flash.o
LOAD GBA.o
LOAD Globals.o
LOAD RTC.o
LOAD Sram.o
LOAD Util.o
LOAD agbprint.o
LOAD armdis.o
LOAD bios.o
LOAD cpumg.o
LOAD file_browse.o
LOAD main.o
LOAD mydebuger.o
LOAD sound.o
LOAD system.o
LOAD background.o
LOAD console.o
LOAD devkitpatcher.o
LOAD dldi.o
LOAD heapfuncs.o
LOAD interrupts.o
LOAD keys.o
LOAD libnds_exit.o
LOAD sassert.o
LOAD trig.o
LOAD video.o
LOAD cpu_s.o
LOAD dcache.o
LOAD dldi_stub.o
LOAD ex_s.o
LOAD icache.o
LOAD interruptDispatcher.o
LOAD mpu_setup.o
LOAD c:/devkitPro/libnds/lib\libfat.a
LOAD c:/devkitpro/devkitarm/bin/../lib/gcc/arm-eabi/4.7.0/../../../../arm-eabi/lib/thumb\libstdc++.a
LOAD c:/devkitpro/devkitarm/bin/../lib/gcc/arm-eabi/4.7.0/../../../../arm-eabi/lib/thumb\libm.a
START GROUP
LOAD c:/devkitpro/devkitarm/bin/../lib/gcc/arm-eabi/4.7.0/thumb\libgcc.a
LOAD c:/devkitpro/devkitarm/bin/../lib/gcc/arm-eabi/4.7.0/../../../../arm-eabi/lib/thumb\libc.a
LOAD c:/devkitpro/devkitarm/bin/../lib/gcc/arm-eabi/4.7.0/../../../../arm-eabi/lib/thumb\libsysbase.a
END GROUP
LOAD c:/devkitpro/devkitarm/bin/../lib/gcc/arm-eabi/4.7.0/thumb/crtend.o
LOAD c:/devkitpro/devkitarm/bin/../lib/gcc/arm-eabi/4.7.0/thumb/crtn.o
OUTPUT(c:/Users/entwickler/gbaemu4DS/hyperspeedup/code_container/arm9/arm9.elf elf32-littlearm)

.debug_ranges   0x00000000     0xea28
 .debug_ranges  0x00000000       0x20 EEprom.o
 .debug_ranges  0x00000020       0x18 Flash.o
 .debug_ranges  0x00000038      0xcd0 GBA.o
 .debug_ranges  0x00000d08       0x90 RTC.o
 .debug_ranges  0x00000d98       0x18 Sram.o
 .debug_ranges  0x00000db0      0x2d8 Util.o
 .debug_ranges  0x00001088       0x48 agbprint.o
 .debug_ranges  0x000010d0      0xf00 armdis.o
 .debug_ranges  0x00001fd0     0x60a8 bios.o
 .debug_ranges  0x00008078     0x3358 cpumg.o
 .debug_ranges  0x0000b3d0     0x1c18 file_browse.o
 .debug_ranges  0x0000cfe8      0x360 main.o
 .debug_ranges  0x0000d348       0x50 mydebuger.o
 .debug_ranges  0x0000d398       0x18 system.o
 .debug_ranges  0x0000d3b0      0x230 background.o
 .debug_ranges  0x0000d5e0      0x660 console.o
 .debug_ranges  0x0000dc40       0x18 devkitpatcher.o
 .debug_ranges  0x0000dc58       0x30 dldi.o
 .debug_ranges  0x0000dc88      0x138 interrupts.o
 .debug_ranges  0x0000ddc0      0x110 trig.o
 .debug_ranges  0x0000ded0       0x78 video.o
 .debug_ranges  0x0000df48       0x60 c:/devkitPro/libnds/lib\libfat.a(libfat.o)
 .debug_ranges  0x0000dfa8      0x1e8 c:/devkitPro/libnds/lib\libfat.a(partition.o)
 .debug_ranges  0x0000e190       0x18 c:/devkitPro/libnds/lib\libfat.a(cache.o)
 .debug_ranges  0x0000e1a8      0x3a0 c:/devkitPro/libnds/lib\libfat.a(directory.o)
 .debug_ranges  0x0000e548      0x170 c:/devkitPro/libnds/lib\libfat.a(fatdir.o)
 .debug_ranges  0x0000e6b8      0x2c0 c:/devkitPro/libnds/lib\libfat.a(fatfile.o)
 .debug_ranges  0x0000e978       0xb0 c:/devkitPro/libnds/lib\libfat.a(file_allocation_table.o)
