	.arch armv5te
	.fpu softvfp
	.eabi_attribute 23, 1
	.eabi_attribute 24, 1
	.eabi_attribute 25, 1
	.eabi_attribute 26, 1
	.eabi_attribute 30, 2
	.eabi_attribute 34, 0
	.eabi_attribute 18, 4
	.file	"anothercpu.arm.cpp"
	.text
.Ltext0:
	.cfi_sections	.debug_frame
	.align	2
	.type	_ZL14CPUWriteBytepujh, %function
_ZL14CPUWriteBytepujh:
.LFB204:
	.file 1 "c:/Users/entwickler/Documents/GitHub/gbaemu4DS/hyperspeedup/code_container/arm9/source/GBAinlineforpu.h"
	.loc 1 717 0
	.cfi_startproc
	@ args = 0, pretend = 0, frame = 0
	@ frame_needed = 0, uses_anonymous_args = 0
.LVL0:
	stmfd	sp!, {r3, lr}
.LCFI0:
	.cfi_def_cfa_offset 8
	.cfi_offset 3, -8
	.cfi_offset 14, -4
	.loc 1 721 0
	mov	r3, r0, lsr #24
	cmp	r3, #13
	.loc 1 717 0
	mov	r2, r0
	mov	ip, r1
	.loc 1 721 0
	beq	.L4
	cmp	r3, #14
	beq	.L5
	cmp	r3, #4
	ldmnefd	sp!, {r3, pc}
	.loc 1 758 0
	ldr	r3, .L20
	cmp	r0, r3
	ldmhifd	sp!, {r3, pc}
	.loc 1 759 0
	mov	r3, r0, asl #22
	mov	r3, r3, lsr #22
	cmp	r3, #144
	bcc	.L6
	cmp	r3, #159
	bhi	.L19
.LVL1:
.L7:
	.loc 1 812 0
	orr	r3, r3, #1073741824
	orr	ip, r3, ip, asl #12
	mov	r2, #67108864
	str	ip, [r2, #392]
	.loc 1 815 0
	ldmfd	sp!, {r3, pc}
.LVL2:
.L5:
	.loc 1 850 0
	ldr	r3, .L20+4
	ldr	r3, [r3, #0]
	cmp	r3, #5
	ldmeqfd	sp!, {r3, pc}
	.loc 1 850 0 is_stmt 0 discriminator 1
	ldr	r3, .L20+8
	ldrb	ip, [r3, #0]	@ zero_extendqisi2
	ldr	r3, .L20+12
	ldrb	r2, [r3, #0]	@ zero_extendqisi2
	ldr	r3, .L20+16
	orr	r2, ip, r2
	ldrb	r3, [r3, #0]	@ zero_extendqisi2
	eor	r3, r3, #1
	orrs	r3, r2, r3
	ldmeqfd	sp!, {r3, pc}
.L2:
	.loc 1 853 0 is_stmt 1
	ldr	r3, .L20+20
	ldr	r3, [r3, #0]
	blx	r3
.LVL3:
	ldmfd	sp!, {r3, pc}
.LVL4:
.L4:
	.loc 1 841 0
	ldr	r3, .L20+24
	ldrb	r3, [r3, #0]	@ zero_extendqisi2
	cmp	r3, #0
	ldmeqfd	sp!, {r3, pc}
	.loc 1 868 0
	ldmfd	sp!, {r3, lr}
	.loc 1 842 0
	b	_Z11eepromWritejh
.LVL5:
.L19:
	.loc 1 759 0
	ldr	r1, .L20+28
.LVL6:
	cmp	r3, r1
	beq	.L7
.L6:
.LBB5:
.LBB6:
	.loc 1 825 0
	ldr	r0, .L20+32
.LVL7:
.LBE6:
.LBE5:
	.loc 1 822 0
	tst	r2, #1
.LBB10:
.LBB7:
	.loc 1 825 0
	and	r0, r2, r0
.LBE7:
	.loc 1 827 0
	ldr	r3, .L20+36
.LBE10:
	.loc 1 822 0
	beq	.L8
.LVL8:
.LBB11:
	.loc 1 827 0
	ldrb	r1, [r3, r0]	@ zero_extendqisi2
.LBB8:
	orr	r1, r1, ip, asl #8
.LBE8:
.LBE11:
	.loc 1 868 0
	ldmfd	sp!, {r3, lr}
.LBB12:
.LBB9:
	.loc 1 827 0
	b	_Z17CPUUpdateRegisterjt
.LVL9:
.L8:
.LBE9:
.LBE12:
	.loc 1 832 0
	ldrh	r1, [r0, r3]
	bic	r1, r1, #255
	orr	r1, ip, r1
	.loc 1 868 0
	ldmfd	sp!, {r3, lr}
	.loc 1 832 0
	b	_Z17CPUUpdateRegisterjt
.LVL10:
.L21:
	.align	2
.L20:
	.word	67109887
	.word	saveType
	.word	cpuFlashEnabled
	.word	cpuSramEnabled
	.word	eepromInUse
	.word	cpuSaveGameFunc
	.word	cpuEEPROMEnabled
	.word	769
	.word	1022
	.word	ioMem
	.cfi_endproc
.LFE204:
	.size	_ZL14CPUWriteBytepujh, .-_ZL14CPUWriteBytepujh
	.align	2
	.type	_ZL16CPUWriteMemorypujj, %function
_ZL16CPUWriteMemorypujj:
.LFB202:
	.loc 1 516 0
	.cfi_startproc
	@ args = 0, pretend = 0, frame = 0
	@ frame_needed = 0, uses_anonymous_args = 0
.LVL11:
	stmfd	sp!, {r3, r4, r5, lr}
.LCFI1:
	.cfi_def_cfa_offset 16
	.cfi_offset 3, -16
	.cfi_offset 4, -12
	.cfi_offset 5, -8
	.cfi_offset 14, -4
	.loc 1 533 0
	mov	r3, r0, lsr #24
	cmp	r3, #13
	.loc 1 516 0
	mov	r4, r1
	.loc 1 533 0
	beq	.L25
	cmp	r3, #14
	beq	.L26
	cmp	r3, #4
	ldmnefd	sp!, {r3, r4, r5, pc}
	.loc 1 569 0
	ldr	r3, .L34
	cmp	r0, r3
	ldmhifd	sp!, {r3, r4, r5, pc}
.LVL12:
.LBB15:
.LBB16:
	.loc 1 578 0
	and	r5, r0, #1020
	mov	r1, r1, asl #16
.LVL13:
	mov	r0, r5
.LVL14:
	mov	r1, r1, lsr #16
	bl	_Z17CPUUpdateRegisterjt
.LVL15:
	.loc 1 579 0
	add	r0, r5, #2
	mov	r1, r4, lsr #16
.LBE16:
.LBE15:
	.loc 1 613 0
	ldmfd	sp!, {r3, r4, r5, lr}
.LBB18:
.LBB17:
	.loc 1 579 0
	b	_Z17CPUUpdateRegisterjt
.LVL16:
.L26:
.LBE17:
.LBE18:
	.loc 1 596 0
	ldr	r3, .L34+4
	ldrb	r1, [r3, #0]	@ zero_extendqisi2
.LVL17:
	ldr	r3, .L34+8
	ldrb	r2, [r3, #0]	@ zero_extendqisi2
	ldr	r3, .L34+12
	orr	r2, r1, r2
	ldrb	r3, [r3, #0]	@ zero_extendqisi2
	eor	r3, r3, #1
	orrs	r3, r2, r3
	ldmeqfd	sp!, {r3, r4, r5, pc}
.L23:
.L27:
	.loc 1 597 0
	ldr	r3, .L34+16
	and	r1, r4, #255
	ldr	r3, [r3, #0]
	blx	r3
.LVL18:
	ldmfd	sp!, {r3, r4, r5, pc}
.LVL19:
.L25:
	.loc 1 587 0
	ldr	r3, .L34+20
	ldrb	r3, [r3, #0]	@ zero_extendqisi2
	cmp	r3, #0
	ldmeqfd	sp!, {r3, r4, r5, pc}
	.loc 1 588 0
	and	r1, r1, #255
.LVL20:
	.loc 1 613 0
	ldmfd	sp!, {r3, r4, r5, lr}
	.loc 1 588 0
	b	_Z11eepromWritejh
.LVL21:
.L35:
	.align	2
.L34:
	.word	67109887
	.word	cpuFlashEnabled
	.word	cpuSramEnabled
	.word	eepromInUse
	.word	cpuSaveGameFunc
	.word	cpuEEPROMEnabled
	.cfi_endproc
.LFE202:
	.size	_ZL16CPUWriteMemorypujj, .-_ZL16CPUWriteMemorypujj
	.align	2
	.type	_ZL18CPUWriteHalfWordpujt, %function
_ZL18CPUWriteHalfWordpujt:
.LFB203:
	.loc 1 618 0
	.cfi_startproc
	@ args = 0, pretend = 0, frame = 0
	@ frame_needed = 0, uses_anonymous_args = 0
.LVL22:
	stmfd	sp!, {r3, lr}
.LCFI2:
	.cfi_def_cfa_offset 8
	.cfi_offset 3, -8
	.cfi_offset 14, -4
	.loc 1 634 0
	mov	r3, r0, lsr #24
	sub	r3, r3, #4
	.loc 1 618 0
	mov	r2, r0
	.loc 1 634 0
	cmp	r3, #10
	ldrls	pc, [pc, r3, asl #2]
	b	.L36
.L42:
	.word	.L38
	.word	.L36
	.word	.L36
	.word	.L36
	.word	.L39
	.word	.L39
	.word	.L36
	.word	.L36
	.word	.L36
	.word	.L40
	.word	.L41
.L41:
	.loc 1 698 0
	ldr	r3, .L51
	ldrb	ip, [r3, #0]	@ zero_extendqisi2
	ldr	r3, .L51+4
	ldrb	r0, [r3, #0]	@ zero_extendqisi2
.LVL23:
	ldr	r3, .L51+8
	orr	r0, ip, r0
	ldrb	r3, [r3, #0]	@ zero_extendqisi2
	eor	r3, r3, #1
	orrs	r3, r0, r3
	ldmeqfd	sp!, {r3, pc}
.LVL24:
.LBB21:
.LBB22:
	.loc 1 699 0
	ldr	r3, .L51+12
	and	r1, r1, #255
.LVL25:
	ldr	r3, [r3, #0]
	mov	r0, r2
	blx	r3
.LVL26:
.LDL1:
.L37:
.L36:
	ldmfd	sp!, {r3, pc}
.LVL27:
.L40:
.LBE22:
.LBE21:
	.loc 1 689 0
	ldr	r3, .L51+16
	ldrb	r3, [r3, #0]	@ zero_extendqisi2
	cmp	r3, #0
	ldmeqfd	sp!, {r3, pc}
	.loc 1 690 0
	and	r1, r1, #255
.LVL28:
	.loc 1 714 0
	ldmfd	sp!, {r3, lr}
	.loc 1 690 0
	b	_Z11eepromWritejh
.LVL29:
.L39:
	.loc 1 680 0
	ldr	r3, .L51+20
	bic	r0, r0, #2
.LVL30:
	cmp	r0, r3
	.loc 1 681 0
	mov	r0, r2
	.loc 1 680 0
	beq	.L43
.LVL31:
	.loc 1 680 0 is_stmt 0 discriminator 1
	add	r3, r3, #4
	cmp	r2, r3
	beq	.L43
	.loc 1 714 0 is_stmt 1
	ldmfd	sp!, {r3, lr}
	.loc 1 683 0
	b	_Z13agbPrintWritejt
.LVL32:
.L38:
	.loc 1 674 0
	ldr	r3, .L51+24
	cmp	r0, r3
	ldmhifd	sp!, {r3, pc}
	.loc 1 675 0
	ldr	r0, .L51+28
.LVL33:
	and	r0, r2, r0
	.loc 1 714 0
	ldmfd	sp!, {r3, lr}
	.loc 1 675 0
	b	_Z17CPUUpdateRegisterjt
.LVL34:
.L43:
	.loc 1 714 0
	ldmfd	sp!, {r3, lr}
	.loc 1 681 0
	b	_Z8rtcWritejt
.LVL35:
.L52:
	.align	2
.L51:
	.word	cpuFlashEnabled
	.word	cpuSramEnabled
	.word	eepromInUse
	.word	cpuSaveGameFunc
	.word	cpuEEPROMEnabled
	.word	134217924
	.word	67109887
	.word	1022
	.cfi_endproc
.LFE203:
	.size	_ZL18CPUWriteHalfWordpujt, .-_ZL18CPUWriteHalfWordpujt
	.align	2
	.type	_ZL21CPUReadHalfWordrealpuj, %function
_ZL21CPUReadHalfWordrealpuj:
.LFB200:
	.loc 1 267 0
	.cfi_startproc
	@ args = 0, pretend = 0, frame = 0
	@ frame_needed = 0, uses_anonymous_args = 0
.LVL36:
	stmfd	sp!, {r3, r4, r5, r6, r7, lr}
.LCFI3:
	.cfi_def_cfa_offset 24
	.cfi_offset 3, -24
	.cfi_offset 4, -20
	.cfi_offset 5, -16
	.cfi_offset 6, -12
	.cfi_offset 7, -8
	.cfi_offset 14, -4
.LBB33:
	.loc 1 282 0
	mov	r3, r0, lsr #24
	sub	r3, r3, #4
.LBE33:
	.loc 1 267 0
	mov	r4, r0
.LBB40:
	.loc 1 282 0
	cmp	r3, #10
	ldrls	pc, [pc, r3, asl #2]
	b	.L54
.L59:
	.word	.L55
	.word	.L54
	.word	.L54
	.word	.L54
	.word	.L56
	.word	.L56
	.word	.L56
	.word	.L56
	.word	.L56
	.word	.L57
	.word	.L58
.L55:
	.loc 1 285 0
	add	r3, r0, #-67108864
	sub	r1, r3, #256
	cmp	r1, #16
	bls	.L81
.L60:
	.loc 1 302 0
	sub	r3, r3, #4
	cmp	r3, #3
	bls	.L82
	.loc 1 308 0
	ldr	r3, .L84
	cmp	r4, r3
	beq	.L83
	.loc 1 315 0
	ldr	r3, .L84+4
	cmp	r4, r3
	bls	.L64
.LVL37:
.L54:
	.loc 1 393 0
	tst	r4, #1
	.loc 1 394 0
	movne	r2, r2, ror #8
.LVL38:
.L61:
.LBE40:
	.loc 1 398 0
	mov	r0, r2
	ldmfd	sp!, {r3, r4, r5, r6, r7, pc}
.LVL39:
.L58:
.LBB41:
	.loc 1 369 0
	bl	_Z9flashReadj
.LVL40:
	mov	r2, r0
.LBE41:
	.loc 1 398 0
	mov	r0, r2
	ldmfd	sp!, {r3, r4, r5, r6, r7, pc}
.LVL41:
.L57:
	ldmfd	sp!, {r3, r4, r5, r6, r7, lr}
.LBB42:
	.loc 1 362 0
	b	_Z10eepromReadj
.LVL42:
.L56:
	.loc 1 326 0
	ldr	r3, .L84+8
	bic	r2, r0, #2
	cmp	r2, r3
	beq	.L67
	.loc 1 326 0 is_stmt 0 discriminator 1
	add	r3, r3, #4
	cmp	r0, r3
	beq	.L67
	.loc 1 331 0 is_stmt 1
	ldr	r2, .L84+12
	bic	r3, r0, #-33554432
	ldr	r2, [r2, #0]
	bic	r3, r3, #1
	cmp	r3, r2
	bls	.L69
	.loc 1 336 0
	ldr	r2, .L84+16
	ldr	r2, [r2, #0]
	cmp	r3, r2
	.loc 1 345 0
	movcs	r2, #0
	.loc 1 336 0
	bcs	.L54
.LVL43:
.LBB34:
.LBB35:
	.file 2 "c:/Users/entwickler/Documents/GitHub/gbaemu4DS/hyperspeedup/code_container/arm9/source/fatfileextract.h"
	.loc 2 69 0
	ldr	r2, .L84+20
	.loc 2 67 0
	mov	r3, r3, lsr #9
.LVL44:
	.loc 2 69 0
	ldr	r1, [r2, #0]
	.loc 2 66 0
	ldr	r5, .L84+24
	.loc 2 69 0
	ldr	r2, [r1, r3, asl #3]
	.loc 2 66 0
	and	r5, r0, r5
.LVL45:
	.loc 2 71 0
	cmp	r2, #0
	.loc 2 69 0
	add	r0, r1, r3, asl #3
.LVL46:
	.loc 2 71 0
	beq	.L70
	ldrh	r2, [r2, r5]
.LVL47:
	b	.L54
.LVL48:
.L81:
.LBE35:
.LBE34:
	.loc 1 288 0
	tst	r0, #2
	bne	.L60
.LVL49:
.LBE42:
.LBB43:
.LBB44:
.LBB45:
	.loc 1 296 0
	ldrh	r2, [r0, #0]
	mov	r2, r2, asr #1
.LVL50:
	b	.L61
.LVL51:
.L67:
.LBE45:
.LBE44:
.LBE43:
.LBB46:
	.loc 1 327 0
	mov	r0, r4
.LVL52:
	bl	_Z7rtcReadj
.LVL53:
	mov	r2, r0
.LVL54:
	b	.L54
.LVL55:
.L82:
.LBB37:
.LBB38:
	.loc 1 96 0
	ldr	r0, .L84+28
.LVL56:
	.loc 1 78 0
	mov	r1, #67108864
	ldrh	r5, [r1, #6]
.LVL57:
	.loc 1 96 0
	ldrh	r3, [r0, #0]
	.loc 1 79 0
	ldrh	ip, [r1, #4]
.LVL58:
	.loc 1 83 0
	ldr	r1, .L84+32
	.loc 1 99 0
	and	ip, ip, #3
.LVL59:
	.loc 1 83 0
	ldrb	r1, [r1, r5]	@ zero_extendqisi2
	.loc 1 96 0
	bic	r3, r3, #7
	.loc 1 99 0
	orr	r3, ip, r3
	.loc 1 103 0
	cmp	r1, r3, lsr #8
	.loc 1 102 0
	ldr	ip, .L84+36
	.loc 1 83 0
	ldr	r5, .L84+40
.LVL60:
	.loc 1 99 0
	strh	r3, [r0, #0]	@ movhi
	.loc 1 105 0
	orreq	r3, r3, #4
	.loc 1 83 0
	strh	r1, [r5, #0]	@ movhi
	.loc 1 102 0
	strh	r1, [ip, #6]	@ movhi
	.loc 1 105 0
	streqh	r3, [r0, #0]	@ movhi
	.loc 1 111 0
	strh	r3, [ip, #4]	@ movhi
.LVL61:
.L64:
.LBE38:
.LBE37:
	.loc 1 315 0 discriminator 1
	ldr	r3, .L84+44
.LVL62:
	ldr	r1, .L84+48
	and	r3, r4, r3
	ldrb	r1, [r1, r3]	@ zero_extendqisi2
	cmp	r1, #0
	.loc 1 317 0
	ldrne	r2, .L84+36
	ldrneh	r2, [r3, r2]
.LVL63:
	.loc 1 320 0
	b	.L54
.LVL64:
.L69:
	.loc 1 350 0
	ldr	r2, .L84+52
	ldr	r2, [r2, #0]
	ldrh	r2, [r2, r3]
.LVL65:
	b	.L54
.LVL66:
.L83:
	.loc 1 310 0
	mov	r1, #67108864
	mov	r3, #532
	ldrh	r3, [r1, r3]
	ldr	r1, .L84+56
	.loc 1 311 0
	ldr	r0, .L84+36
.LVL67:
	.loc 1 310 0
	strh	r3, [r1, #0]	@ movhi
	.loc 1 311 0
	ldr	r1, .L84+60
	strh	r3, [r0, r1]	@ movhi
	b	.L64
.LVL68:
.L70:
.LBB39:
.LBB36:
	.loc 2 73 0
	ldr	r6, .L84+64
	ldr	ip, .L84+68
	ldr	lr, [r6, #0]
	.loc 2 76 0
	ldr	r7, .L84+72
	.loc 2 73 0
	ldr	lr, [ip, lr, asl #2]
	.loc 2 76 0
	ldr	r7, [r7, #0]
	.loc 2 73 0
	str	r2, [r1, lr, asl #2]
	.loc 2 75 0
	ldr	r2, [r6, #0]
.LVL69:
	mov	lr, r3, asl #1
	.loc 2 76 0
	add	r7, r7, r2, asl #9
.LVL70:
	.loc 2 75 0
	str	lr, [ip, r2, asl #2]
	.loc 2 77 0
	str	r7, [r1, r3, asl #3]
	.loc 2 79 0
	ldr	r3, .L84+76
.LVL71:
	mov	r2, r7
	ldr	r3, [r3, #0]
	ldr	r0, [r0, #4]
	mov	r1, #1
	blx	r3
.LVL72:
	.loc 2 83 0
	ldr	r3, [r6, #0]
	.loc 2 86 0
	ldrh	r2, [r7, r5]
	.loc 2 83 0
	cmp	r3, #254
	addne	r3, r3, #1
	moveq	r3, #0
	str	r3, [r6, #0]
.LVL73:
	b	.L54
.L85:
	.align	2
.L84:
	.word	67109378
	.word	67109887
	.word	134217924
	.word	romSize
	.word	ichflyfilestreamsize
	.word	sectortabel
	.word	510
	.word	DISPSTAT
	.word	VCountdstogba
	.word	ioMem
	.word	VCOUNT
	.word	1022
	.word	ioReadable
	.word	rom
	.word	IF
	.word	514
	.word	current_pointer
	.word	allocedfild
	.word	greatownfilebuffer
	.word	readSectorslocked
.LBE36:
.LBE39:
.LBE46:
	.cfi_endproc
.LFE200:
	.size	_ZL21CPUReadHalfWordrealpuj, .-_ZL21CPUReadHalfWordrealpuj
	.align	2
	.type	_ZL17CPUReadByterealpuj, %function
_ZL17CPUReadByterealpuj:
.LFB201:
	.loc 1 401 0
	.cfi_startproc
	@ args = 0, pretend = 0, frame = 0
	@ frame_needed = 0, uses_anonymous_args = 0
.LVL74:
	.loc 1 406 0
	mov	r3, r0, lsr #24
	sub	r3, r3, #4
	.loc 1 401 0
	stmfd	sp!, {r4, r5, r6, lr}
.LCFI4:
	.cfi_def_cfa_offset 16
	.cfi_offset 4, -16
	.cfi_offset 5, -12
	.cfi_offset 6, -8
	.cfi_offset 14, -4
	.loc 1 406 0
	cmp	r3, #10
	ldrls	pc, [pc, r3, asl #2]
	b	.L87
.L92:
	.word	.L88
	.word	.L87
	.word	.L87
	.word	.L87
	.word	.L89
	.word	.L89
	.word	.L89
	.word	.L89
	.word	.L89
	.word	.L90
	.word	.L91
.LVL75:
.L87:
	ldmfd	sp!, {r4, r5, r6, pc}
.LVL76:
.L91:
	.loc 1 512 0
	ldmfd	sp!, {r4, r5, r6, lr}
	.loc 1 477 0
	b	_Z9flashReadj
.LVL77:
.L90:
	.loc 1 471 0
	bl	_Z10eepromReadj
.LVL78:
	and	r0, r0, #255
	ldmfd	sp!, {r4, r5, r6, pc}
.LVL79:
.L89:
	.loc 1 442 0
	ldr	r2, .L112
	bic	r3, r0, #-33554432
	ldr	r2, [r2, #0]
	cmp	r3, r2
	bls	.L100
	.loc 1 447 0
	ldr	r2, .L112+4
	ldr	r2, [r2, #0]
	cmp	r3, r2
	bcc	.L109
	.loc 1 457 0
	mov	r0, #0
.LVL80:
	.loc 1 512 0
	ldmfd	sp!, {r4, r5, r6, pc}
.LVL81:
.L88:
	.loc 1 409 0
	add	r3, r0, #-67108864
	sub	r2, r3, #256
	cmp	r2, #16
	bhi	.L93
	.loc 1 417 0
	ldr	r2, .L112+8
	.loc 1 411 0
	and	r1, r0, #1020
	.loc 1 417 0
	and	r2, r0, r2
	ldrh	ip, [r2, #0]
	ldr	r2, .L112+12
	mov	ip, ip, asr #1
	strh	ip, [r1, r2]	@ movhi
.L93:
	.loc 1 421 0
	sub	r3, r3, #4
	cmp	r3, #3
	bls	.L110
.L94:
	.loc 1 426 0
	sub	r3, r0, #512
	sub	r3, r3, #67108866
	cmp	r3, #1
	bls	.L111
	.loc 1 432 0
	ldr	r3, .L112+16
	cmp	r0, r3
	bhi	.L87
.LVL82:
.L97:
	.loc 1 432 0 is_stmt 0 discriminator 1
	ldr	r3, .L112+20
.LVL83:
	mov	r0, r0, asl #22
.LVL84:
	ldrb	r3, [r3, r0, lsr #22]	@ zero_extendqisi2
	cmp	r3, #0
	beq	.L87
	.loc 1 433 0 is_stmt 1
	ldr	r3, .L112+12
	ldrb	r0, [r3, r0, lsr #22]	@ zero_extendqisi2
	ldmfd	sp!, {r4, r5, r6, pc}
.LVL85:
.L100:
	.loc 1 462 0
	ldr	r2, .L112+24
	ldr	r2, [r2, #0]
	ldrb	r0, [r2, r3]	@ zero_extendqisi2
.LVL86:
	ldmfd	sp!, {r4, r5, r6, pc}
.LVL87:
.L110:
.LBB53:
.LBB54:
	.loc 1 96 0
	ldr	r1, .L112+28
	.loc 1 78 0
	mov	r2, #67108864
	ldrh	r4, [r2, #6]
.LVL88:
	.loc 1 96 0
	ldrh	r3, [r1, #0]
	.loc 1 79 0
	ldrh	ip, [r2, #4]
.LVL89:
	.loc 1 83 0
	ldr	r2, .L112+32
	.loc 1 99 0
	and	ip, ip, #3
.LVL90:
	.loc 1 83 0
	ldrb	r2, [r2, r4]	@ zero_extendqisi2
	.loc 1 96 0
	bic	r3, r3, #7
	.loc 1 99 0
	orr	r3, ip, r3
	.loc 1 103 0
	cmp	r2, r3, lsr #8
	.loc 1 102 0
	ldr	ip, .L112+12
	.loc 1 83 0
	ldr	r4, .L112+36
.LVL91:
	.loc 1 99 0
	strh	r3, [r1, #0]	@ movhi
	.loc 1 105 0
	orreq	r3, r3, #4
	.loc 1 83 0
	strh	r2, [r4, #0]	@ movhi
	.loc 1 102 0
	strh	r2, [ip, #6]	@ movhi
	.loc 1 105 0
	streqh	r3, [r1, #0]	@ movhi
	.loc 1 111 0
	strh	r3, [ip, #4]	@ movhi
	b	.L94
.L111:
.LBE54:
.LBE53:
	.loc 1 428 0
	mov	r2, #67108864
	mov	r3, #532
	ldrh	r3, [r2, r3]
	ldr	r2, .L112+40
	.loc 1 429 0
	ldr	r1, .L112+12
.LVL92:
	.loc 1 428 0
	strh	r3, [r2, #0]	@ movhi
	.loc 1 429 0
	ldr	r2, .L112+44
	strh	r3, [r1, r2]	@ movhi
	b	.L97
.LVL93:
.L109:
.LBB55:
.LBB56:
	.loc 2 42 0
	ldr	r2, .L112+48
	.loc 2 40 0
	mov	r3, r3, lsr #9
.LVL94:
	.loc 2 42 0
	ldr	r1, [r2, #0]
	.loc 2 39 0
	mov	r4, r0, asl #23
.LVL95:
	.loc 2 42 0
	ldr	r2, [r1, r3, asl #3]
.LVL96:
	add	r0, r1, r3, asl #3
.LVL97:
	.loc 2 44 0
	cmp	r2, #0
	beq	.L101
	ldrb	r0, [r2, r4, lsr #23]	@ zero_extendqisi2
	ldmfd	sp!, {r4, r5, r6, pc}
.L101:
	.loc 2 46 0
	ldr	r5, .L112+52
	ldr	ip, .L112+56
	ldr	lr, [r5, #0]
	.loc 2 49 0
	ldr	r6, .L112+60
	.loc 2 46 0
	ldr	lr, [ip, lr, asl #2]
	.loc 2 49 0
	ldr	r6, [r6, #0]
	.loc 2 46 0
	str	r2, [r1, lr, asl #2]
	.loc 2 48 0
	ldr	r2, [r5, #0]
.LVL98:
	mov	lr, r3, asl #1
	.loc 2 49 0
	add	r6, r6, r2, asl #9
.LVL99:
	.loc 2 48 0
	str	lr, [ip, r2, asl #2]
	.loc 2 50 0
	str	r6, [r1, r3, asl #3]
	.loc 2 52 0
	ldr	r3, .L112+64
.LVL100:
	mov	r1, #1
	ldr	r3, [r3, #0]
	mov	r2, r6
	ldr	r0, [r0, #4]
	blx	r3
.LVL101:
	.loc 2 56 0
	ldr	r3, [r5, #0]
	cmp	r3, #254
	addne	r3, r3, #1
	moveq	r3, #0
	str	r3, [r5, #0]
	.loc 2 59 0
	ldrb	r0, [r6, r4, lsr #23]	@ zero_extendqisi2
.LBE56:
.LBE55:
	.loc 1 453 0
	ldmfd	sp!, {r4, r5, r6, pc}
.L113:
	.align	2
.L112:
	.word	romSize
	.word	ichflyfilestreamsize
	.word	67109884
	.word	ioMem
	.word	67109887
	.word	ioReadable
	.word	rom
	.word	DISPSTAT
	.word	VCountdstogba
	.word	VCOUNT
	.word	IF
	.word	514
	.word	sectortabel
	.word	current_pointer
	.word	allocedfild
	.word	greatownfilebuffer
	.word	readSectorslocked
	.cfi_endproc
.LFE201:
	.size	_ZL17CPUReadByterealpuj, .-_ZL17CPUReadByterealpuj
	.align	2
	.type	_ZL19CPUReadMemoryrealpuj, %function
_ZL19CPUReadMemoryrealpuj:
.LFB199:
	.loc 1 118 0
	.cfi_startproc
	@ args = 0, pretend = 0, frame = 0
	@ frame_needed = 0, uses_anonymous_args = 0
.LVL102:
	stmfd	sp!, {r3, r4, r5, r6, r7, lr}
.LCFI5:
	.cfi_def_cfa_offset 24
	.cfi_offset 3, -24
	.cfi_offset 4, -20
	.cfi_offset 5, -16
	.cfi_offset 6, -12
	.cfi_offset 7, -8
	.cfi_offset 14, -4
.LBB66:
	.loc 1 135 0
	mov	r3, r0, lsr #24
	sub	r3, r3, #4
.LBE66:
	.loc 1 118 0
	mov	r4, r0
.LBB75:
	.loc 1 135 0
	cmp	r3, #10
	ldrls	pc, [pc, r3, asl #2]
	b	.L115
.L120:
	.word	.L116
	.word	.L115
	.word	.L115
	.word	.L115
	.word	.L117
	.word	.L117
	.word	.L117
	.word	.L117
	.word	.L117
	.word	.L118
	.word	.L119
.L117:
	.loc 1 175 0
	ldr	r2, .L150
	bic	r3, r0, #-33554432
	ldr	r2, [r2, #0]
	bic	r3, r3, #3
	cmp	r3, r2
	bhi	.L148
	.loc 1 194 0
	ldr	r2, .L150+4
	ldr	r2, [r2, #0]
.LVL103:
.L147:
	ldr	r2, [r2, r3]
.LVL104:
.L115:
.LBB67:
	.loc 1 240 0
	ands	r4, r4, #3
.LVL105:
.LBB68:
	.loc 1 242 0
	movne	r4, r4, asl #3
.LVL106:
	.loc 1 243 0
	movne	r2, r2, ror r4
.LVL107:
.L133:
.LBE68:
.LBE67:
.LBE75:
	.loc 1 262 0
	mov	r0, r2
	ldmfd	sp!, {r3, r4, r5, r6, r7, pc}
.LVL108:
.L119:
.LBB76:
	.loc 1 212 0
	ldr	r3, .L150+8
	ldrb	r1, [r3, #0]	@ zero_extendqisi2
	ldr	r3, .L150+12
	ldrb	r3, [r3, #0]	@ zero_extendqisi2
	orrs	r3, r1, r3
	beq	.L115
	.loc 1 214 0
	bl	_Z9flashReadj
.LVL109:
	mov	r2, r0
	b	.L133
.LVL110:
.L118:
	.loc 1 204 0
	ldr	r3, .L150+16
	ldrb	r3, [r3, #0]	@ zero_extendqisi2
	cmp	r3, #0
	beq	.L115
.LBE76:
	.loc 1 262 0
	ldmfd	sp!, {r3, r4, r5, r6, r7, lr}
.LBB77:
	.loc 1 206 0
	b	_Z10eepromReadj
.LVL111:
.L116:
	.loc 1 138 0
	add	r3, r0, #-67108864
	sub	r1, r3, #256
	cmp	r1, #16
	bhi	.L121
	.loc 1 146 0
	ldr	r1, .L150+20
	and	r1, r0, r1
	ldrh	ip, [r1, #0]
	ldr	r1, .L150+24
	.loc 1 140 0
	and	r0, r0, #1020
.LVL112:
	.loc 1 146 0
	mov	ip, ip, asr #1
	strh	ip, [r0, r1]	@ movhi
.L121:
	.loc 1 150 0
	ldr	r1, .L150+28
	bic	r0, r4, #2
	cmp	r0, r1
	bne	.L122
	.loc 1 152 0
	mov	r0, #67108864
	mov	r1, #532
	ldrh	r1, [r0, r1]
	ldr	r0, .L150+32
	.loc 1 153 0
	ldr	ip, .L150+24
.LVL113:
	.loc 1 152 0
	strh	r1, [r0, #0]	@ movhi
	.loc 1 153 0
	ldr	r0, .L150+36
	strh	r1, [ip, r0]	@ movhi
.L122:
	.loc 1 158 0
	sub	r3, r3, #4
	cmp	r3, #3
	bls	.L149
	.loc 1 162 0
	ldr	r3, .L150+40
	cmp	r4, r3
	bhi	.L115
	b	.L125
.LVL114:
.L148:
	.loc 1 180 0
	ldr	r2, .L150+44
	ldr	r2, [r2, #0]
	cmp	r3, r2
	.loc 1 189 0
	movcs	r2, #0
	.loc 1 180 0
	bcs	.L115
.LVL115:
.LBB69:
.LBB70:
	.loc 2 96 0
	ldr	r2, .L150+48
	.loc 2 94 0
	mov	r3, r3, lsr #9
.LVL116:
	.loc 2 96 0
	ldr	r1, [r2, #0]
	.loc 2 93 0
	and	r5, r0, #508
.LVL117:
	.loc 2 96 0
	ldr	r2, [r1, r3, asl #3]
.LVL118:
	add	r0, r1, r3, asl #3
.LVL119:
	.loc 2 98 0
	cmp	r2, #0
	beq	.L129
	ldr	r2, [r2, r5]
.LVL120:
	b	.L115
.LVL121:
.L149:
.LBE70:
.LBE69:
.LBB72:
.LBB73:
	.loc 1 96 0
	ldr	r0, .L150+52
	.loc 1 78 0
	mov	r1, #67108864
.LVL122:
	ldrh	r5, [r1, #6]
.LVL123:
	.loc 1 96 0
	ldrh	r3, [r0, #0]
	.loc 1 79 0
	ldrh	ip, [r1, #4]
.LVL124:
	.loc 1 83 0
	ldr	r1, .L150+56
	.loc 1 99 0
	and	ip, ip, #3
.LVL125:
	.loc 1 83 0
	ldrb	r1, [r1, r5]	@ zero_extendqisi2
	.loc 1 96 0
	bic	r3, r3, #7
	.loc 1 99 0
	orr	r3, ip, r3
	.loc 1 103 0
	cmp	r1, r3, lsr #8
	.loc 1 102 0
	ldr	ip, .L150+24
	.loc 1 83 0
	ldr	r5, .L150+60
.LVL126:
	.loc 1 99 0
	strh	r3, [r0, #0]	@ movhi
	.loc 1 105 0
	orreq	r3, r3, #4
	.loc 1 83 0
	strh	r1, [r5, #0]	@ movhi
	.loc 1 102 0
	strh	r1, [ip, #6]	@ movhi
	.loc 1 105 0
	streqh	r3, [r0, #0]	@ movhi
	.loc 1 111 0
	strh	r3, [ip, #4]	@ movhi
.LVL127:
.L125:
.LBE73:
.LBE72:
	.loc 1 162 0 discriminator 1
	ldr	r1, .L150+64
.LVL128:
	and	r3, r4, #1020
	ldrb	r0, [r1, r3]	@ zero_extendqisi2
	cmp	r0, #0
	beq	.L115
	.loc 1 163 0
	add	r1, r1, r3
	ldrb	r2, [r1, #2]	@ zero_extendqisi2
	cmp	r2, #0
	.loc 1 164 0
	ldr	r2, .L150+24
	.loc 1 163 0
	bne	.L147
	.loc 1 166 0
	ldrh	r2, [r3, r2]
.LVL129:
	b	.L115
.LVL130:
.L129:
.LBB74:
.LBB71:
	.loc 2 100 0
	ldr	r6, .L150+68
	ldr	ip, .L150+72
	ldr	lr, [r6, #0]
	.loc 2 103 0
	ldr	r7, .L150+76
	.loc 2 100 0
	ldr	lr, [ip, lr, asl #2]
	.loc 2 103 0
	ldr	r7, [r7, #0]
	.loc 2 100 0
	str	r2, [r1, lr, asl #2]
	.loc 2 102 0
	ldr	r2, [r6, #0]
.LVL131:
	mov	lr, r3, asl #1
	.loc 2 103 0
	add	r7, r7, r2, asl #9
.LVL132:
	.loc 2 102 0
	str	lr, [ip, r2, asl #2]
	.loc 2 104 0
	str	r7, [r1, r3, asl #3]
	.loc 2 106 0
	ldr	r3, .L150+80
.LVL133:
	mov	r2, r7
	ldr	r3, [r3, #0]
	ldr	r0, [r0, #4]
	mov	r1, #1
	blx	r3
.LVL134:
	.loc 2 110 0
	ldr	r3, [r6, #0]
	cmp	r3, #254
	addne	r3, r3, #1
	moveq	r3, #0
	str	r3, [r6, #0]
	.loc 2 113 0
	ldr	r2, [r7, r5]
	b	.L115
.L151:
	.align	2
.L150:
	.word	romSize
	.word	rom
	.word	cpuSramEnabled
	.word	cpuFlashEnabled
	.word	cpuEEPROMEnabled
	.word	67109884
	.word	ioMem
	.word	67109376
	.word	IF
	.word	514
	.word	67109887
	.word	ichflyfilestreamsize
	.word	sectortabel
	.word	DISPSTAT
	.word	VCountdstogba
	.word	VCOUNT
	.word	ioReadable
	.word	current_pointer
	.word	allocedfild
	.word	greatownfilebuffer
	.word	readSectorslocked
.LBE71:
.LBE74:
.LBE77:
	.cfi_endproc
.LFE199:
	.size	_ZL19CPUReadMemoryrealpuj, .-_ZL19CPUReadMemoryrealpuj
	.section	.text.hot,"ax",%progbits
	.align	2
	.global	_Z11emuInstrARMjPi
	.type	_Z11emuInstrARMjPi, %function
_Z11emuInstrARMjPi:
.LFB206:
	.file 3 "c:/Users/entwickler/Documents/GitHub/gbaemu4DS/hyperspeedup/code_container/arm9/source/anothercpu.arm.cpp"
	.loc 3 3014 0
	.cfi_startproc
	@ args = 0, pretend = 0, frame = 8
	@ frame_needed = 0, uses_anonymous_args = 0
.LVL135:
	stmfd	sp!, {r4, r5, r6, r7, r8, r9, sl, fp, lr}
.LCFI6:
	.cfi_def_cfa_offset 36
	.cfi_offset 4, -36
	.cfi_offset 5, -32
	.cfi_offset 6, -28
	.cfi_offset 7, -24
	.cfi_offset 8, -20
	.cfi_offset 9, -16
	.cfi_offset 10, -12
	.cfi_offset 11, -8
	.cfi_offset 14, -4
.LBB752:
.LBB753:
	.loc 3 3079 0
	mov	r2, r0, lsr #4
	mov	r3, r0, lsr #16
.LBE753:
.LBE752:
	.loc 3 3014 0
	mov	r5, r0
.LBB2321:
.LBB2302:
	.loc 3 3079 0
	and	ip, r2, #15
	and	r0, r3, #4080
.LVL136:
	orr	r0, ip, r0
.LBE2302:
.LBE2321:
	.loc 3 3014 0
	mov	r4, r1
.LVL137:
.LBB2322:
.LBB2303:
	.loc 3 3079 0
	ldr	r1, .L5450
.LVL138:
	sub	r0, r0, #11
.LBE2303:
.LBE2322:
	.loc 3 3014 0
	sub	sp, sp, #12
.LCFI7:
	.cfi_def_cfa_offset 48
	b	.L5451
.L5452:
	.align	2
.L5450:
	.word	2548
.L5451:
.LBB2323:
.LBB2304:
	.loc 3 3079 0
	cmp	r0, r1
	ldrls	pc, [pc, r0, asl #2]
	b	.L153
.L357:
	.word	.L154
	.word	.L153
	.word	.L153
	.word	.L153
	.word	.L153
	.word	.L153
	.word	.L153
	.word	.L153
	.word	.L153
	.word	.L153
	.word	.L153
	.word	.L153
	.word	.L153
	.word	.L153
	.word	.L153
	.word	.L153
	.word	.L155
	.word	.L153
	.word	.L156
	.word	.L153
	.word	.L157
	.word	.L153
	.word	.L153
	.word	.L153
	.word	.L153
	.word	.L153
	.word	.L153
	.word	.L153
	.word	.L153
	.word	.L153
	.word	.L153
	.word	.L153
	.word	.L154
	.word	.L153
	.word	.L153
	.word	.L153
	.word	.L153
	.word	.L153
	.word	.L153
	.word	.L153
	.word	.L153
	.word	.L153
	.word	.L153
	.word	.L153
	.word	.L153
	.word	.L153
	.word	.L153
	.word	.L153
	.word	.L155
	.word	.L153
	.word	.L156
	.word	.L153
	.word	.L157
	.word	.L153
	.word	.L153
	.word	.L153
	.word	.L153
	.word	.L153
	.word	.L153
	.word	.L153
	.word	.L153
	.word	.L153
	.word	.L153
	.word	.L153
	.word	.L158
	.word	.L153
	.word	.L153
	.word	.L153
	.word	.L153
	.word	.L153
	.word	.L153
	.word	.L153
	.word	.L153
	.word	.L153
	.word	.L153
	.word	.L153
	.word	.L153
	.word	.L153
	.word	.L153
	.word	.L153
	.word	.L159
	.word	.L153
	.word	.L160
	.word	.L153
	.word	.L161
	.word	.L153
	.word	.L153
	.word	.L153
	.word	.L153
	.word	.L153
	.word	.L153
	.word	.L153
	.word	.L153
	.word	.L153
	.word	.L153
	.word	.L153
	.word	.L158
	.word	.L153
	.word	.L153
	.word	.L153
	.word	.L153
	.word	.L153
	.word	.L153
	.word	.L153
	.word	.L153
	.word	.L153
	.word	.L153
	.word	.L153
	.word	.L153
	.word	.L153
	.word	.L153
	.word	.L153
	.word	.L159
	.word	.L153
	.word	.L160
	.word	.L153
	.word	.L161
	.word	.L153
	.word	.L153
	.word	.L153
	.word	.L153
	.word	.L153
	.word	.L153
	.word	.L153
	.word	.L153
	.word	.L153
	.word	.L153
	.word	.L153
	.word	.L162
	.word	.L153
	.word	.L153
	.word	.L153
	.word	.L153
	.word	.L153
	.word	.L153
	.word	.L153
	.word	.L153
	.word	.L153
	.word	.L153
	.word	.L153
	.word	.L153
	.word	.L153
	.word	.L153
	.word	.L153
	.word	.L163
	.word	.L153
	.word	.L164
	.word	.L153
	.word	.L165
	.word	.L153
	.word	.L153
	.word	.L153
	.word	.L153
	.word	.L153
	.word	.L153
	.word	.L153
	.word	.L153
	.word	.L153
	.word	.L153
	.word	.L153
	.word	.L162
	.word	.L153
	.word	.L153
	.word	.L153
	.word	.L153
	.word	.L153
	.word	.L153
	.word	.L153
	.word	.L153
	.word	.L153
	.word	.L153
	.word	.L153
	.word	.L153
	.word	.L153
	.word	.L153
	.word	.L153
	.word	.L163
	.word	.L153
	.word	.L164
	.word	.L153
	.word	.L165
	.word	.L153
	.word	.L153
	.word	.L153
	.word	.L153
	.word	.L153
	.word	.L153
	.word	.L153
	.word	.L153
	.word	.L153
	.word	.L153
	.word	.L153
	.word	.L166
	.word	.L153
	.word	.L153
	.word	.L153
	.word	.L153
	.word	.L153
	.word	.L153
	.word	.L153
	.word	.L153
	.word	.L153
	.word	.L153
	.word	.L153
	.word	.L153
	.word	.L153
	.word	.L153
	.word	.L153
	.word	.L167
	.word	.L153
	.word	.L168
	.word	.L153
	.word	.L169
	.word	.L153
	.word	.L153
	.word	.L153
	.word	.L153
	.word	.L153
	.word	.L153
	.word	.L153
	.word	.L153
	.word	.L153
	.word	.L153
	.word	.L153
	.word	.L166
	.word	.L153
	.word	.L153
	.word	.L153
	.word	.L153
	.word	.L153
	.word	.L153
	.word	.L153
	.word	.L153
	.word	.L153
	.word	.L153
	.word	.L153
	.word	.L153
	.word	.L153
	.word	.L153
	.word	.L153
	.word	.L167
	.word	.L153
	.word	.L168
	.word	.L153
	.word	.L169
	.word	.L153
	.word	.L153
	.word	.L153
	.word	.L153
	.word	.L153
	.word	.L153
	.word	.L153
	.word	.L153
	.word	.L153
	.word	.L153
	.word	.L153
	.word	.L170
	.word	.L153
	.word	.L153
	.word	.L153
	.word	.L153
	.word	.L153
	.word	.L153
	.word	.L153
	.word	.L153
	.word	.L153
	.word	.L153
	.word	.L153
	.word	.L153
	.word	.L153
	.word	.L153
	.word	.L153
	.word	.L171
	.word	.L153
	.word	.L172
	.word	.L153
	.word	.L173
	.word	.L153
	.word	.L153
	.word	.L153
	.word	.L153
	.word	.L153
	.word	.L153
	.word	.L153
	.word	.L153
	.word	.L153
	.word	.L153
	.word	.L153
	.word	.L174
	.word	.L153
	.word	.L153
	.word	.L153
	.word	.L153
	.word	.L153
	.word	.L153
	.word	.L153
	.word	.L153
	.word	.L153
	.word	.L153
	.word	.L153
	.word	.L153
	.word	.L153
	.word	.L153
	.word	.L153
	.word	.L175
	.word	.L153
	.word	.L176
	.word	.L153
	.word	.L177
	.word	.L153
	.word	.L153
	.word	.L153
	.word	.L153
	.word	.L153
	.word	.L153
	.word	.L153
	.word	.L153
	.word	.L153
	.word	.L178
	.word	.L153
	.word	.L179
	.word	.L153
	.word	.L153
	.word	.L153
	.word	.L153
	.word	.L153
	.word	.L153
	.word	.L153
	.word	.L153
	.word	.L153
	.word	.L153
	.word	.L153
	.word	.L153
	.word	.L153
	.word	.L153
	.word	.L153
	.word	.L180
	.word	.L153
	.word	.L181
	.word	.L153
	.word	.L182
	.word	.L153
	.word	.L153
	.word	.L153
	.word	.L153
	.word	.L153
	.word	.L153
	.word	.L153
	.word	.L153
	.word	.L153
	.word	.L153
	.word	.L153
	.word	.L183
	.word	.L153
	.word	.L153
	.word	.L153
	.word	.L153
	.word	.L153
	.word	.L153
	.word	.L153
	.word	.L153
	.word	.L153
	.word	.L153
	.word	.L153
	.word	.L153
	.word	.L153
	.word	.L153
	.word	.L153
	.word	.L184
	.word	.L153
	.word	.L185
	.word	.L153
	.word	.L186
	.word	.L153
	.word	.L153
	.word	.L153
	.word	.L153
	.word	.L153
	.word	.L153
	.word	.L153
	.word	.L153
	.word	.L153
	.word	.L153
	.word	.L153
	.word	.L187
	.word	.L153
	.word	.L153
	.word	.L153
	.word	.L153
	.word	.L153
	.word	.L153
	.word	.L153
	.word	.L153
	.word	.L153
	.word	.L153
	.word	.L153
	.word	.L153
	.word	.L153
	.word	.L153
	.word	.L153
	.word	.L188
	.word	.L153
	.word	.L189
	.word	.L153
	.word	.L190
	.word	.L153
	.word	.L153
	.word	.L153
	.word	.L153
	.word	.L153
	.word	.L153
	.word	.L153
	.word	.L153
	.word	.L153
	.word	.L153
	.word	.L153
	.word	.L191
	.word	.L153
	.word	.L153
	.word	.L153
	.word	.L153
	.word	.L153
	.word	.L153
	.word	.L153
	.word	.L153
	.word	.L153
	.word	.L153
	.word	.L153
	.word	.L153
	.word	.L153
	.word	.L153
	.word	.L153
	.word	.L192
	.word	.L153
	.word	.L193
	.word	.L153
	.word	.L194
	.word	.L153
	.word	.L153
	.word	.L153
	.word	.L153
	.word	.L153
	.word	.L153
	.word	.L153
	.word	.L153
	.word	.L153
	.word	.L153
	.word	.L153
	.word	.L195
	.word	.L153
	.word	.L153
	.word	.L153
	.word	.L153
	.word	.L153
	.word	.L153
	.word	.L153
	.word	.L153
	.word	.L153
	.word	.L153
	.word	.L153
	.word	.L153
	.word	.L153
	.word	.L153
	.word	.L153
	.word	.L196
	.word	.L153
	.word	.L197
	.word	.L153
	.word	.L198
	.word	.L153
	.word	.L153
	.word	.L153
	.word	.L153
	.word	.L153
	.word	.L153
	.word	.L153
	.word	.L153
	.word	.L153
	.word	.L153
	.word	.L153
	.word	.L199
	.word	.L153
	.word	.L153
	.word	.L153
	.word	.L153
	.word	.L153
	.word	.L153
	.word	.L153
	.word	.L153
	.word	.L153
	.word	.L153
	.word	.L153
	.word	.L153
	.word	.L153
	.word	.L153
	.word	.L153
	.word	.L200
	.word	.L153
	.word	.L201
	.word	.L153
	.word	.L202
	.word	.L153
	.word	.L153
	.word	.L153
	.word	.L153
	.word	.L153
	.word	.L153
	.word	.L153
	.word	.L153
	.word	.L153
	.word	.L153
	.word	.L153
	.word	.L153
	.word	.L153
	.word	.L153
	.word	.L153
	.word	.L153
	.word	.L153
	.word	.L153
	.word	.L153
	.word	.L153
	.word	.L153
	.word	.L153
	.word	.L153
	.word	.L153
	.word	.L153
	.word	.L153
	.word	.L153
	.word	.L153
	.word	.L153
	.word	.L153
	.word	.L153
	.word	.L153
	.word	.L153
	.word	.L153
	.word	.L153
	.word	.L153
	.word	.L153
	.word	.L153
	.word	.L153
	.word	.L153
	.word	.L153
	.word	.L153
	.word	.L153
	.word	.L153
	.word	.L153
	.word	.L153
	.word	.L153
	.word	.L153
	.word	.L153
	.word	.L153
	.word	.L153
	.word	.L153
	.word	.L153
	.word	.L153
	.word	.L153
	.word	.L153
	.word	.L153
	.word	.L153
	.word	.L153
	.word	.L153
	.word	.L153
	.word	.L153
	.word	.L153
	.word	.L153
	.word	.L153
	.word	.L153
	.word	.L153
	.word	.L153
	.word	.L153
	.word	.L153
	.word	.L153
	.word	.L153
	.word	.L153
	.word	.L153
	.word	.L153
	.word	.L153
	.word	.L153
	.word	.L153
	.word	.L153
	.word	.L153
	.word	.L153
	.word	.L153
	.word	.L153
	.word	.L153
	.word	.L153
	.word	.L153
	.word	.L153
	.word	.L153
	.word	.L153
	.word	.L153
	.word	.L153
	.word	.L153
	.word	.L153
	.word	.L153
	.word	.L153
	.word	.L153
	.word	.L153
	.word	.L153
	.word	.L153
	.word	.L153
	.word	.L153
	.word	.L153
	.word	.L153
	.word	.L153
	.word	.L153
	.word	.L153
	.word	.L153
	.word	.L153
	.word	.L153
	.word	.L153
	.word	.L153
	.word	.L153
	.word	.L153
	.word	.L153
	.word	.L153
	.word	.L153
	.word	.L153
	.word	.L153
	.word	.L153
	.word	.L153
	.word	.L153
	.word	.L153
	.word	.L153
	.word	.L153
	.word	.L153
	.word	.L153
	.word	.L153
	.word	.L153
	.word	.L153
	.word	.L153
	.word	.L153
	.word	.L153
	.word	.L153
	.word	.L153
	.word	.L153
	.word	.L153
	.word	.L153
	.word	.L153
	.word	.L153
	.word	.L153
	.word	.L153
	.word	.L153
	.word	.L153
	.word	.L153
	.word	.L153
	.word	.L153
	.word	.L153
	.word	.L153
	.word	.L153
	.word	.L153
	.word	.L153
	.word	.L153
	.word	.L153
	.word	.L153
	.word	.L153
	.word	.L153
	.word	.L153
	.word	.L153
	.word	.L153
	.word	.L153
	.word	.L153
	.word	.L153
	.word	.L153
	.word	.L153
	.word	.L153
	.word	.L153
	.word	.L153
	.word	.L153
	.word	.L153
	.word	.L153
	.word	.L153
	.word	.L153
	.word	.L153
	.word	.L153
	.word	.L153
	.word	.L153
	.word	.L153
	.word	.L153
	.word	.L153
	.word	.L153
	.word	.L153
	.word	.L153
	.word	.L153
	.word	.L153
	.word	.L153
	.word	.L153
	.word	.L153
	.word	.L153
	.word	.L153
	.word	.L153
	.word	.L153
	.word	.L153
	.word	.L153
	.word	.L153
	.word	.L153
	.word	.L153
	.word	.L153
	.word	.L153
	.word	.L153
	.word	.L153
	.word	.L153
	.word	.L153
	.word	.L153
	.word	.L153
	.word	.L153
	.word	.L153
	.word	.L153
	.word	.L153
	.word	.L153
	.word	.L153
	.word	.L153
	.word	.L153
	.word	.L153
	.word	.L153
	.word	.L153
	.word	.L153
	.word	.L153
	.word	.L153
	.word	.L153
	.word	.L153
	.word	.L153
	.word	.L153
	.word	.L153
	.word	.L153
	.word	.L153
	.word	.L153
	.word	.L153
	.word	.L153
	.word	.L153
	.word	.L153
	.word	.L153
	.word	.L153
	.word	.L153
	.word	.L153
	.word	.L153
	.word	.L153
	.word	.L153
	.word	.L153
	.word	.L153
	.word	.L153
	.word	.L153
	.word	.L153
	.word	.L153
	.word	.L153
	.word	.L153
	.word	.L153
	.word	.L153
	.word	.L153
	.word	.L153
	.word	.L153
	.word	.L153
	.word	.L153
	.word	.L153
	.word	.L153
	.word	.L153
	.word	.L153
	.word	.L153
	.word	.L153
	.word	.L153
	.word	.L153
	.word	.L153
	.word	.L153
	.word	.L153
	.word	.L153
	.word	.L153
	.word	.L153
	.word	.L153
	.word	.L153
	.word	.L153
	.word	.L153
	.word	.L153
	.word	.L153
	.word	.L153
	.word	.L153
	.word	.L153
	.word	.L153
	.word	.L153
	.word	.L153
	.word	.L153
	.word	.L153
	.word	.L153
	.word	.L153
	.word	.L153
	.word	.L153
	.word	.L153
	.word	.L153
	.word	.L153
	.word	.L153
	.word	.L153
	.word	.L153
	.word	.L153
	.word	.L153
	.word	.L153
	.word	.L153
	.word	.L153
	.word	.L153
	.word	.L153
	.word	.L153
	.word	.L153
	.word	.L153
	.word	.L153
	.word	.L153
	.word	.L153
	.word	.L153
	.word	.L153
	.word	.L153
	.word	.L153
	.word	.L153
	.word	.L153
	.word	.L153
	.word	.L153
	.word	.L153
	.word	.L153
	.word	.L153
	.word	.L153
	.word	.L153
	.word	.L153
	.word	.L153
	.word	.L153
	.word	.L153
	.word	.L153
	.word	.L153
	.word	.L153
	.word	.L153
	.word	.L153
	.word	.L153
	.word	.L153
	.word	.L153
	.word	.L153
	.word	.L153
	.word	.L153
	.word	.L153
	.word	.L153
	.word	.L153
	.word	.L153
	.word	.L153
	.word	.L153
	.word	.L153
	.word	.L153
	.word	.L153
	.word	.L153
	.word	.L153
	.word	.L153
	.word	.L153
	.word	.L153
	.word	.L153
	.word	.L153
	.word	.L153
	.word	.L153
	.word	.L153
	.word	.L153
	.word	.L153
	.word	.L153
	.word	.L153
	.word	.L153
	.word	.L153
	.word	.L153
	.word	.L153
	.word	.L153
	.word	.L153
	.word	.L153
	.word	.L153
	.word	.L153
	.word	.L153
	.word	.L153
	.word	.L153
	.word	.L153
	.word	.L153
	.word	.L153
	.word	.L153
	.word	.L153
	.word	.L153
	.word	.L153
	.word	.L153
	.word	.L153
	.word	.L153
	.word	.L153
	.word	.L153
	.word	.L153
	.word	.L153
	.word	.L153
	.word	.L153
	.word	.L153
	.word	.L153
	.word	.L153
	.word	.L153
	.word	.L153
	.word	.L153
	.word	.L153
	.word	.L153
	.word	.L153
	.word	.L153
	.word	.L153
	.word	.L153
	.word	.L153
	.word	.L153
	.word	.L153
	.word	.L153
	.word	.L153
	.word	.L153
	.word	.L153
	.word	.L153
	.word	.L153
	.word	.L153
	.word	.L153
	.word	.L153
	.word	.L153
	.word	.L153
	.word	.L153
	.word	.L153
	.word	.L153
	.word	.L153
	.word	.L153
	.word	.L153
	.word	.L153
	.word	.L153
	.word	.L153
	.word	.L153
	.word	.L153
	.word	.L153
	.word	.L153
	.word	.L153
	.word	.L153
	.word	.L153
	.word	.L153
	.word	.L153
	.word	.L153
	.word	.L153
	.word	.L153
	.word	.L153
	.word	.L153
	.word	.L153
	.word	.L153
	.word	.L153
	.word	.L153
	.word	.L153
	.word	.L153
	.word	.L153
	.word	.L153
	.word	.L153
	.word	.L153
	.word	.L153
	.word	.L153
	.word	.L153
	.word	.L153
	.word	.L153
	.word	.L153
	.word	.L153
	.word	.L153
	.word	.L153
	.word	.L153
	.word	.L153
	.word	.L153
	.word	.L153
	.word	.L153
	.word	.L153
	.word	.L153
	.word	.L153
	.word	.L153
	.word	.L153
	.word	.L153
	.word	.L153
	.word	.L153
	.word	.L153
	.word	.L153
	.word	.L153
	.word	.L153
	.word	.L153
	.word	.L153
	.word	.L153
	.word	.L153
	.word	.L153
	.word	.L153
	.word	.L153
	.word	.L153
	.word	.L153
	.word	.L153
	.word	.L153
	.word	.L153
	.word	.L153
	.word	.L153
	.word	.L153
	.word	.L153
	.word	.L153
	.word	.L153
	.word	.L153
	.word	.L153
	.word	.L153
	.word	.L153
	.word	.L153
	.word	.L153
	.word	.L153
	.word	.L153
	.word	.L153
	.word	.L153
	.word	.L153
	.word	.L153
	.word	.L153
	.word	.L153
	.word	.L153
	.word	.L153
	.word	.L153
	.word	.L153
	.word	.L153
	.word	.L153
	.word	.L153
	.word	.L153
	.word	.L153
	.word	.L153
	.word	.L153
	.word	.L153
	.word	.L153
	.word	.L203
	.word	.L203
	.word	.L203
	.word	.L203
	.word	.L203
	.word	.L203
	.word	.L203
	.word	.L203
	.word	.L203
	.word	.L203
	.word	.L203
	.word	.L203
	.word	.L203
	.word	.L203
	.word	.L203
	.word	.L203
	.word	.L204
	.word	.L204
	.word	.L204
	.word	.L204
	.word	.L204
	.word	.L204
	.word	.L204
	.word	.L204
	.word	.L204
	.word	.L204
	.word	.L204
	.word	.L204
	.word	.L204
	.word	.L204
	.word	.L204
	.word	.L204
	.word	.L203
	.word	.L203
	.word	.L203
	.word	.L203
	.word	.L203
	.word	.L203
	.word	.L203
	.word	.L203
	.word	.L203
	.word	.L203
	.word	.L203
	.word	.L203
	.word	.L203
	.word	.L203
	.word	.L203
	.word	.L203
	.word	.L205
	.word	.L205
	.word	.L205
	.word	.L205
	.word	.L205
	.word	.L205
	.word	.L205
	.word	.L205
	.word	.L205
	.word	.L205
	.word	.L205
	.word	.L205
	.word	.L205
	.word	.L205
	.word	.L205
	.word	.L205
	.word	.L206
	.word	.L206
	.word	.L206
	.word	.L206
	.word	.L206
	.word	.L206
	.word	.L206
	.word	.L206
	.word	.L206
	.word	.L206
	.word	.L206
	.word	.L206
	.word	.L206
	.word	.L206
	.word	.L206
	.word	.L206
	.word	.L207
	.word	.L207
	.word	.L207
	.word	.L207
	.word	.L207
	.word	.L207
	.word	.L207
	.word	.L207
	.word	.L207
	.word	.L207
	.word	.L207
	.word	.L207
	.word	.L207
	.word	.L207
	.word	.L207
	.word	.L207
	.word	.L206
	.word	.L206
	.word	.L206
	.word	.L206
	.word	.L206
	.word	.L206
	.word	.L206
	.word	.L206
	.word	.L206
	.word	.L206
	.word	.L206
	.word	.L206
	.word	.L206
	.word	.L206
	.word	.L206
	.word	.L206
	.word	.L207
	.word	.L207
	.word	.L207
	.word	.L207
	.word	.L207
	.word	.L207
	.word	.L207
	.word	.L207
	.word	.L207
	.word	.L207
	.word	.L207
	.word	.L207
	.word	.L207
	.word	.L207
	.word	.L207
	.word	.L207
	.word	.L208
	.word	.L208
	.word	.L208
	.word	.L208
	.word	.L208
	.word	.L208
	.word	.L208
	.word	.L208
	.word	.L208
	.word	.L208
	.word	.L208
	.word	.L208
	.word	.L208
	.word	.L208
	.word	.L208
	.word	.L208
	.word	.L209
	.word	.L209
	.word	.L209
	.word	.L209
	.word	.L209
	.word	.L209
	.word	.L209
	.word	.L209
	.word	.L209
	.word	.L209
	.word	.L209
	.word	.L209
	.word	.L209
	.word	.L209
	.word	.L209
	.word	.L209
	.word	.L208
	.word	.L208
	.word	.L208
	.word	.L208
	.word	.L208
	.word	.L208
	.word	.L208
	.word	.L208
	.word	.L208
	.word	.L208
	.word	.L208
	.word	.L208
	.word	.L208
	.word	.L208
	.word	.L208
	.word	.L208
	.word	.L210
	.word	.L210
	.word	.L210
	.word	.L210
	.word	.L210
	.word	.L210
	.word	.L210
	.word	.L210
	.word	.L210
	.word	.L210
	.word	.L210
	.word	.L210
	.word	.L210
	.word	.L210
	.word	.L210
	.word	.L210
	.word	.L211
	.word	.L211
	.word	.L211
	.word	.L211
	.word	.L211
	.word	.L211
	.word	.L211
	.word	.L211
	.word	.L211
	.word	.L211
	.word	.L211
	.word	.L211
	.word	.L211
	.word	.L211
	.word	.L211
	.word	.L211
	.word	.L212
	.word	.L212
	.word	.L212
	.word	.L212
	.word	.L212
	.word	.L212
	.word	.L212
	.word	.L212
	.word	.L212
	.word	.L212
	.word	.L212
	.word	.L212
	.word	.L212
	.word	.L212
	.word	.L212
	.word	.L212
	.word	.L211
	.word	.L211
	.word	.L211
	.word	.L211
	.word	.L211
	.word	.L211
	.word	.L211
	.word	.L211
	.word	.L211
	.word	.L211
	.word	.L211
	.word	.L211
	.word	.L211
	.word	.L211
	.word	.L211
	.word	.L211
	.word	.L212
	.word	.L212
	.word	.L212
	.word	.L212
	.word	.L212
	.word	.L212
	.word	.L212
	.word	.L212
	.word	.L212
	.word	.L212
	.word	.L212
	.word	.L212
	.word	.L212
	.word	.L212
	.word	.L212
	.word	.L212
	.word	.L213
	.word	.L213
	.word	.L213
	.word	.L213
	.word	.L213
	.word	.L213
	.word	.L213
	.word	.L213
	.word	.L213
	.word	.L213
	.word	.L213
	.word	.L213
	.word	.L213
	.word	.L213
	.word	.L213
	.word	.L213
	.word	.L214
	.word	.L214
	.word	.L214
	.word	.L214
	.word	.L214
	.word	.L214
	.word	.L214
	.word	.L214
	.word	.L214
	.word	.L214
	.word	.L214
	.word	.L214
	.word	.L214
	.word	.L214
	.word	.L214
	.word	.L214
	.word	.L215
	.word	.L215
	.word	.L215
	.word	.L215
	.word	.L215
	.word	.L215
	.word	.L215
	.word	.L215
	.word	.L215
	.word	.L215
	.word	.L215
	.word	.L215
	.word	.L215
	.word	.L215
	.word	.L215
	.word	.L215
	.word	.L216
	.word	.L216
	.word	.L216
	.word	.L216
	.word	.L216
	.word	.L216
	.word	.L216
	.word	.L216
	.word	.L216
	.word	.L216
	.word	.L216
	.word	.L216
	.word	.L216
	.word	.L216
	.word	.L216
	.word	.L216
	.word	.L217
	.word	.L217
	.word	.L217
	.word	.L217
	.word	.L217
	.word	.L217
	.word	.L217
	.word	.L217
	.word	.L217
	.word	.L217
	.word	.L217
	.word	.L217
	.word	.L217
	.word	.L217
	.word	.L217
	.word	.L217
	.word	.L218
	.word	.L218
	.word	.L218
	.word	.L218
	.word	.L218
	.word	.L218
	.word	.L218
	.word	.L218
	.word	.L218
	.word	.L218
	.word	.L218
	.word	.L218
	.word	.L218
	.word	.L218
	.word	.L218
	.word	.L218
	.word	.L219
	.word	.L219
	.word	.L219
	.word	.L219
	.word	.L219
	.word	.L219
	.word	.L219
	.word	.L219
	.word	.L219
	.word	.L219
	.word	.L219
	.word	.L219
	.word	.L219
	.word	.L219
	.word	.L219
	.word	.L219
	.word	.L220
	.word	.L220
	.word	.L220
	.word	.L220
	.word	.L220
	.word	.L220
	.word	.L220
	.word	.L220
	.word	.L220
	.word	.L220
	.word	.L220
	.word	.L220
	.word	.L220
	.word	.L220
	.word	.L220
	.word	.L220
	.word	.L221
	.word	.L221
	.word	.L221
	.word	.L221
	.word	.L221
	.word	.L221
	.word	.L221
	.word	.L221
	.word	.L221
	.word	.L221
	.word	.L221
	.word	.L221
	.word	.L221
	.word	.L221
	.word	.L221
	.word	.L221
	.word	.L222
	.word	.L222
	.word	.L222
	.word	.L222
	.word	.L222
	.word	.L222
	.word	.L222
	.word	.L222
	.word	.L222
	.word	.L222
	.word	.L222
	.word	.L222
	.word	.L222
	.word	.L222
	.word	.L222
	.word	.L222
	.word	.L223
	.word	.L223
	.word	.L223
	.word	.L223
	.word	.L223
	.word	.L223
	.word	.L223
	.word	.L223
	.word	.L223
	.word	.L223
	.word	.L223
	.word	.L223
	.word	.L223
	.word	.L223
	.word	.L223
	.word	.L223
	.word	.L224
	.word	.L224
	.word	.L224
	.word	.L224
	.word	.L224
	.word	.L224
	.word	.L224
	.word	.L224
	.word	.L224
	.word	.L224
	.word	.L224
	.word	.L224
	.word	.L224
	.word	.L224
	.word	.L224
	.word	.L224
	.word	.L225
	.word	.L225
	.word	.L225
	.word	.L225
	.word	.L225
	.word	.L225
	.word	.L225
	.word	.L225
	.word	.L225
	.word	.L225
	.word	.L225
	.word	.L225
	.word	.L225
	.word	.L225
	.word	.L225
	.word	.L225
	.word	.L226
	.word	.L226
	.word	.L226
	.word	.L226
	.word	.L226
	.word	.L226
	.word	.L226
	.word	.L226
	.word	.L226
	.word	.L226
	.word	.L226
	.word	.L226
	.word	.L226
	.word	.L226
	.word	.L226
	.word	.L226
	.word	.L227
	.word	.L227
	.word	.L227
	.word	.L227
	.word	.L227
	.word	.L227
	.word	.L227
	.word	.L227
	.word	.L227
	.word	.L227
	.word	.L227
	.word	.L227
	.word	.L227
	.word	.L227
	.word	.L227
	.word	.L227
	.word	.L228
	.word	.L228
	.word	.L228
	.word	.L228
	.word	.L228
	.word	.L228
	.word	.L228
	.word	.L228
	.word	.L228
	.word	.L228
	.word	.L228
	.word	.L228
	.word	.L228
	.word	.L228
	.word	.L228
	.word	.L228
	.word	.L229
	.word	.L153
	.word	.L230
	.word	.L153
	.word	.L231
	.word	.L153
	.word	.L232
	.word	.L153
	.word	.L229
	.word	.L153
	.word	.L230
	.word	.L153
	.word	.L231
	.word	.L153
	.word	.L232
	.word	.L153
	.word	.L233
	.word	.L153
	.word	.L234
	.word	.L153
	.word	.L235
	.word	.L153
	.word	.L236
	.word	.L153
	.word	.L233
	.word	.L153
	.word	.L234
	.word	.L153
	.word	.L235
	.word	.L153
	.word	.L236
	.word	.L153
	.word	.L229
	.word	.L153
	.word	.L230
	.word	.L153
	.word	.L231
	.word	.L153
	.word	.L232
	.word	.L153
	.word	.L229
	.word	.L153
	.word	.L230
	.word	.L153
	.word	.L231
	.word	.L153
	.word	.L232
	.word	.L153
	.word	.L233
	.word	.L153
	.word	.L234
	.word	.L153
	.word	.L235
	.word	.L153
	.word	.L236
	.word	.L153
	.word	.L233
	.word	.L153
	.word	.L234
	.word	.L153
	.word	.L235
	.word	.L153
	.word	.L236
	.word	.L153
	.word	.L237
	.word	.L153
	.word	.L238
	.word	.L153
	.word	.L239
	.word	.L153
	.word	.L240
	.word	.L153
	.word	.L237
	.word	.L153
	.word	.L238
	.word	.L153
	.word	.L239
	.word	.L153
	.word	.L240
	.word	.L153
	.word	.L241
	.word	.L153
	.word	.L242
	.word	.L153
	.word	.L243
	.word	.L153
	.word	.L244
	.word	.L153
	.word	.L241
	.word	.L153
	.word	.L242
	.word	.L153
	.word	.L243
	.word	.L153
	.word	.L244
	.word	.L153
	.word	.L237
	.word	.L153
	.word	.L238
	.word	.L153
	.word	.L239
	.word	.L153
	.word	.L240
	.word	.L153
	.word	.L237
	.word	.L153
	.word	.L238
	.word	.L153
	.word	.L239
	.word	.L153
	.word	.L240
	.word	.L153
	.word	.L241
	.word	.L153
	.word	.L242
	.word	.L153
	.word	.L243
	.word	.L153
	.word	.L244
	.word	.L153
	.word	.L241
	.word	.L153
	.word	.L242
	.word	.L153
	.word	.L243
	.word	.L153
	.word	.L244
	.word	.L153
	.word	.L245
	.word	.L153
	.word	.L246
	.word	.L153
	.word	.L247
	.word	.L153
	.word	.L248
	.word	.L153
	.word	.L245
	.word	.L153
	.word	.L246
	.word	.L153
	.word	.L247
	.word	.L153
	.word	.L248
	.word	.L153
	.word	.L249
	.word	.L153
	.word	.L250
	.word	.L153
	.word	.L251
	.word	.L153
	.word	.L252
	.word	.L153
	.word	.L249
	.word	.L153
	.word	.L250
	.word	.L153
	.word	.L251
	.word	.L153
	.word	.L252
	.word	.L153
	.word	.L245
	.word	.L153
	.word	.L246
	.word	.L153
	.word	.L247
	.word	.L153
	.word	.L248
	.word	.L153
	.word	.L245
	.word	.L153
	.word	.L246
	.word	.L153
	.word	.L247
	.word	.L153
	.word	.L248
	.word	.L153
	.word	.L249
	.word	.L153
	.word	.L250
	.word	.L153
	.word	.L251
	.word	.L153
	.word	.L252
	.word	.L153
	.word	.L249
	.word	.L153
	.word	.L250
	.word	.L153
	.word	.L251
	.word	.L153
	.word	.L252
	.word	.L153
	.word	.L253
	.word	.L153
	.word	.L254
	.word	.L153
	.word	.L255
	.word	.L153
	.word	.L256
	.word	.L153
	.word	.L253
	.word	.L153
	.word	.L254
	.word	.L153
	.word	.L255
	.word	.L153
	.word	.L256
	.word	.L153
	.word	.L257
	.word	.L153
	.word	.L258
	.word	.L153
	.word	.L259
	.word	.L153
	.word	.L260
	.word	.L153
	.word	.L257
	.word	.L153
	.word	.L258
	.word	.L153
	.word	.L259
	.word	.L153
	.word	.L260
	.word	.L153
	.word	.L253
	.word	.L153
	.word	.L254
	.word	.L153
	.word	.L255
	.word	.L153
	.word	.L256
	.word	.L153
	.word	.L253
	.word	.L153
	.word	.L254
	.word	.L153
	.word	.L255
	.word	.L153
	.word	.L256
	.word	.L153
	.word	.L257
	.word	.L153
	.word	.L258
	.word	.L153
	.word	.L259
	.word	.L153
	.word	.L260
	.word	.L153
	.word	.L257
	.word	.L153
	.word	.L258
	.word	.L153
	.word	.L259
	.word	.L153
	.word	.L260
	.word	.L153
	.word	.L261
	.word	.L153
	.word	.L262
	.word	.L153
	.word	.L263
	.word	.L153
	.word	.L264
	.word	.L153
	.word	.L261
	.word	.L153
	.word	.L262
	.word	.L153
	.word	.L263
	.word	.L153
	.word	.L264
	.word	.L153
	.word	.L265
	.word	.L153
	.word	.L266
	.word	.L153
	.word	.L267
	.word	.L153
	.word	.L268
	.word	.L153
	.word	.L265
	.word	.L153
	.word	.L266
	.word	.L153
	.word	.L267
	.word	.L153
	.word	.L268
	.word	.L153
	.word	.L269
	.word	.L153
	.word	.L270
	.word	.L153
	.word	.L271
	.word	.L153
	.word	.L272
	.word	.L153
	.word	.L269
	.word	.L153
	.word	.L270
	.word	.L153
	.word	.L271
	.word	.L153
	.word	.L272
	.word	.L153
	.word	.L273
	.word	.L153
	.word	.L274
	.word	.L153
	.word	.L275
	.word	.L153
	.word	.L276
	.word	.L153
	.word	.L273
	.word	.L153
	.word	.L274
	.word	.L153
	.word	.L275
	.word	.L153
	.word	.L276
	.word	.L153
	.word	.L277
	.word	.L153
	.word	.L278
	.word	.L153
	.word	.L279
	.word	.L153
	.word	.L280
	.word	.L153
	.word	.L277
	.word	.L153
	.word	.L278
	.word	.L153
	.word	.L279
	.word	.L153
	.word	.L280
	.word	.L153
	.word	.L281
	.word	.L153
	.word	.L282
	.word	.L153
	.word	.L283
	.word	.L153
	.word	.L284
	.word	.L153
	.word	.L281
	.word	.L153
	.word	.L282
	.word	.L153
	.word	.L283
	.word	.L153
	.word	.L284
	.word	.L153
	.word	.L285
	.word	.L153
	.word	.L286
	.word	.L153
	.word	.L287
	.word	.L153
	.word	.L288
	.word	.L153
	.word	.L285
	.word	.L153
	.word	.L286
	.word	.L153
	.word	.L287
	.word	.L153
	.word	.L288
	.word	.L153
	.word	.L289
	.word	.L153
	.word	.L290
	.word	.L153
	.word	.L291
	.word	.L153
	.word	.L292
	.word	.L153
	.word	.L289
	.word	.L153
	.word	.L290
	.word	.L153
	.word	.L291
	.word	.L153
	.word	.L292
	.word	.L153
	.word	.L293
	.word	.L153
	.word	.L294
	.word	.L153
	.word	.L295
	.word	.L153
	.word	.L296
	.word	.L153
	.word	.L293
	.word	.L153
	.word	.L294
	.word	.L153
	.word	.L295
	.word	.L153
	.word	.L296
	.word	.L153
	.word	.L297
	.word	.L153
	.word	.L298
	.word	.L153
	.word	.L299
	.word	.L153
	.word	.L300
	.word	.L153
	.word	.L297
	.word	.L153
	.word	.L298
	.word	.L153
	.word	.L299
	.word	.L153
	.word	.L300
	.word	.L153
	.word	.L301
	.word	.L153
	.word	.L302
	.word	.L153
	.word	.L303
	.word	.L153
	.word	.L304
	.word	.L153
	.word	.L301
	.word	.L153
	.word	.L302
	.word	.L153
	.word	.L303
	.word	.L153
	.word	.L304
	.word	.L153
	.word	.L305
	.word	.L153
	.word	.L306
	.word	.L153
	.word	.L307
	.word	.L153
	.word	.L308
	.word	.L153
	.word	.L305
	.word	.L153
	.word	.L306
	.word	.L153
	.word	.L307
	.word	.L153
	.word	.L308
	.word	.L153
	.word	.L309
	.word	.L153
	.word	.L310
	.word	.L153
	.word	.L311
	.word	.L153
	.word	.L312
	.word	.L153
	.word	.L309
	.word	.L153
	.word	.L310
	.word	.L153
	.word	.L311
	.word	.L153
	.word	.L312
	.word	.L153
	.word	.L313
	.word	.L153
	.word	.L314
	.word	.L153
	.word	.L315
	.word	.L153
	.word	.L316
	.word	.L153
	.word	.L313
	.word	.L153
	.word	.L314
	.word	.L153
	.word	.L315
	.word	.L153
	.word	.L316
	.word	.L153
	.word	.L317
	.word	.L153
	.word	.L318
	.word	.L153
	.word	.L319
	.word	.L153
	.word	.L320
	.word	.L153
	.word	.L317
	.word	.L153
	.word	.L318
	.word	.L153
	.word	.L319
	.word	.L153
	.word	.L320
	.word	.L153
	.word	.L321
	.word	.L153
	.word	.L322
	.word	.L153
	.word	.L323
	.word	.L153
	.word	.L324
	.word	.L153
	.word	.L321
	.word	.L153
	.word	.L322
	.word	.L153
	.word	.L323
	.word	.L153
	.word	.L324
	.word	.L153
	.word	.L325
	.word	.L325
	.word	.L325
	.word	.L325
	.word	.L325
	.word	.L325
	.word	.L325
	.word	.L325
	.word	.L325
	.word	.L325
	.word	.L325
	.word	.L325
	.word	.L325
	.word	.L325
	.word	.L325
	.word	.L325
	.word	.L326
	.word	.L326
	.word	.L326
	.word	.L326
	.word	.L326
	.word	.L326
	.word	.L326
	.word	.L326
	.word	.L326
	.word	.L326
	.word	.L326
	.word	.L326
	.word	.L326
	.word	.L326
	.word	.L326
	.word	.L326
	.word	.L327
	.word	.L327
	.word	.L327
	.word	.L327
	.word	.L327
	.word	.L327
	.word	.L327
	.word	.L327
	.word	.L327
	.word	.L327
	.word	.L327
	.word	.L327
	.word	.L327
	.word	.L327
	.word	.L327
	.word	.L327
	.word	.L328
	.word	.L328
	.word	.L328
	.word	.L328
	.word	.L328
	.word	.L328
	.word	.L328
	.word	.L328
	.word	.L328
	.word	.L328
	.word	.L328
	.word	.L328
	.word	.L328
	.word	.L328
	.word	.L328
	.word	.L328
	.word	.L329
	.word	.L329
	.word	.L329
	.word	.L329
	.word	.L329
	.word	.L329
	.word	.L329
	.word	.L329
	.word	.L329
	.word	.L329
	.word	.L329
	.word	.L329
	.word	.L329
	.word	.L329
	.word	.L329
	.word	.L329
	.word	.L330
	.word	.L330
	.word	.L330
	.word	.L330
	.word	.L330
	.word	.L330
	.word	.L330
	.word	.L330
	.word	.L330
	.word	.L330
	.word	.L330
	.word	.L330
	.word	.L330
	.word	.L330
	.word	.L330
	.word	.L330
	.word	.L331
	.word	.L331
	.word	.L331
	.word	.L331
	.word	.L331
	.word	.L331
	.word	.L331
	.word	.L331
	.word	.L331
	.word	.L331
	.word	.L331
	.word	.L331
	.word	.L331
	.word	.L331
	.word	.L331
	.word	.L331
	.word	.L332
	.word	.L332
	.word	.L332
	.word	.L332
	.word	.L332
	.word	.L332
	.word	.L332
	.word	.L332
	.word	.L332
	.word	.L332
	.word	.L332
	.word	.L332
	.word	.L332
	.word	.L332
	.word	.L332
	.word	.L332
	.word	.L333
	.word	.L333
	.word	.L333
	.word	.L333
	.word	.L333
	.word	.L333
	.word	.L333
	.word	.L333
	.word	.L333
	.word	.L333
	.word	.L333
	.word	.L333
	.word	.L333
	.word	.L333
	.word	.L333
	.word	.L333
	.word	.L334
	.word	.L334
	.word	.L334
	.word	.L334
	.word	.L334
	.word	.L334
	.word	.L334
	.word	.L334
	.word	.L334
	.word	.L334
	.word	.L334
	.word	.L334
	.word	.L334
	.word	.L334
	.word	.L334
	.word	.L334
	.word	.L335
	.word	.L335
	.word	.L335
	.word	.L335
	.word	.L335
	.word	.L335
	.word	.L335
	.word	.L335
	.word	.L335
	.word	.L335
	.word	.L335
	.word	.L335
	.word	.L335
	.word	.L335
	.word	.L335
	.word	.L335
	.word	.L336
	.word	.L336
	.word	.L336
	.word	.L336
	.word	.L336
	.word	.L336
	.word	.L336
	.word	.L336
	.word	.L336
	.word	.L336
	.word	.L336
	.word	.L336
	.word	.L336
	.word	.L336
	.word	.L336
	.word	.L336
	.word	.L337
	.word	.L337
	.word	.L337
	.word	.L337
	.word	.L337
	.word	.L337
	.word	.L337
	.word	.L337
	.word	.L337
	.word	.L337
	.word	.L337
	.word	.L337
	.word	.L337
	.word	.L337
	.word	.L337
	.word	.L337
	.word	.L338
	.word	.L338
	.word	.L338
	.word	.L338
	.word	.L338
	.word	.L338
	.word	.L338
	.word	.L338
	.word	.L338
	.word	.L338
	.word	.L338
	.word	.L338
	.word	.L338
	.word	.L338
	.word	.L338
	.word	.L338
	.word	.L339
	.word	.L339
	.word	.L339
	.word	.L339
	.word	.L339
	.word	.L339
	.word	.L339
	.word	.L339
	.word	.L339
	.word	.L339
	.word	.L339
	.word	.L339
	.word	.L339
	.word	.L339
	.word	.L339
	.word	.L339
	.word	.L340
	.word	.L340
	.word	.L340
	.word	.L340
	.word	.L340
	.word	.L340
	.word	.L340
	.word	.L340
	.word	.L340
	.word	.L340
	.word	.L340
	.word	.L340
	.word	.L340
	.word	.L340
	.word	.L340
	.word	.L340
	.word	.L341
	.word	.L341
	.word	.L341
	.word	.L341
	.word	.L341
	.word	.L341
	.word	.L341
	.word	.L341
	.word	.L341
	.word	.L341
	.word	.L341
	.word	.L341
	.word	.L341
	.word	.L341
	.word	.L341
	.word	.L341
	.word	.L342
	.word	.L342
	.word	.L342
	.word	.L342
	.word	.L342
	.word	.L342
	.word	.L342
	.word	.L342
	.word	.L342
	.word	.L342
	.word	.L342
	.word	.L342
	.word	.L342
	.word	.L342
	.word	.L342
	.word	.L342
	.word	.L343
	.word	.L343
	.word	.L343
	.word	.L343
	.word	.L343
	.word	.L343
	.word	.L343
	.word	.L343
	.word	.L343
	.word	.L343
	.word	.L343
	.word	.L343
	.word	.L343
	.word	.L343
	.word	.L343
	.word	.L343
	.word	.L344
	.word	.L344
	.word	.L344
	.word	.L344
	.word	.L344
	.word	.L344
	.word	.L344
	.word	.L344
	.word	.L344
	.word	.L344
	.word	.L344
	.word	.L344
	.word	.L344
	.word	.L344
	.word	.L344
	.word	.L344
	.word	.L345
	.word	.L345
	.word	.L345
	.word	.L345
	.word	.L345
	.word	.L345
	.word	.L345
	.word	.L345
	.word	.L345
	.word	.L345
	.word	.L345
	.word	.L345
	.word	.L345
	.word	.L345
	.word	.L345
	.word	.L345
	.word	.L346
	.word	.L346
	.word	.L346
	.word	.L346
	.word	.L346
	.word	.L346
	.word	.L346
	.word	.L346
	.word	.L346
	.word	.L346
	.word	.L346
	.word	.L346
	.word	.L346
	.word	.L346
	.word	.L346
	.word	.L346
	.word	.L347
	.word	.L347
	.word	.L347
	.word	.L347
	.word	.L347
	.word	.L347
	.word	.L347
	.word	.L347
	.word	.L347
	.word	.L347
	.word	.L347
	.word	.L347
	.word	.L347
	.word	.L347
	.word	.L347
	.word	.L347
	.word	.L348
	.word	.L348
	.word	.L348
	.word	.L348
	.word	.L348
	.word	.L348
	.word	.L348
	.word	.L348
	.word	.L348
	.word	.L348
	.word	.L348
	.word	.L348
	.word	.L348
	.word	.L348
	.word	.L348
	.word	.L348
	.word	.L349
	.word	.L349
	.word	.L349
	.word	.L349
	.word	.L349
	.word	.L349
	.word	.L349
	.word	.L349
	.word	.L349
	.word	.L349
	.word	.L349
	.word	.L349
	.word	.L349
	.word	.L349
	.word	.L349
	.word	.L349
	.word	.L350
	.word	.L350
	.word	.L350
	.word	.L350
	.word	.L350
	.word	.L350
	.word	.L350
	.word	.L350
	.word	.L350
	.word	.L350
	.word	.L350
	.word	.L350
	.word	.L350
	.word	.L350
	.word	.L350
	.word	.L350
	.word	.L351
	.word	.L351
	.word	.L351
	.word	.L351
	.word	.L351
	.word	.L351
	.word	.L351
	.word	.L351
	.word	.L351
	.word	.L351
	.word	.L351
	.word	.L351
	.word	.L351
	.word	.L351
	.word	.L351
	.word	.L351
	.word	.L352
	.word	.L352
	.word	.L352
	.word	.L352
	.word	.L352
	.word	.L352
	.word	.L352
	.word	.L352
	.word	.L352
	.word	.L352
	.word	.L352
	.word	.L352
	.word	.L352
	.word	.L352
	.word	.L352
	.word	.L352
	.word	.L353
	.word	.L353
	.word	.L353
	.word	.L353
	.word	.L353
	.word	.L353
	.word	.L353
	.word	.L353
	.word	.L353
	.word	.L353
	.word	.L353
	.word	.L353
	.word	.L353
	.word	.L353
	.word	.L353
	.word	.L353
	.word	.L354
	.word	.L354
	.word	.L354
	.word	.L354
	.word	.L354
	.word	.L354
	.word	.L354
	.word	.L354
	.word	.L354
	.word	.L354
	.word	.L354
	.word	.L354
	.word	.L354
	.word	.L354
	.word	.L354
	.word	.L354
	.word	.L355
	.word	.L355
	.word	.L355
	.word	.L355
	.word	.L355
	.word	.L355
	.word	.L355
	.word	.L355
	.word	.L355
	.word	.L355
	.word	.L355
	.word	.L355
	.word	.L355
	.word	.L355
	.word	.L355
	.word	.L355
	.word	.L356
	.word	.L356
	.word	.L356
	.word	.L356
	.word	.L356
	.word	.L356
	.word	.L356
	.word	.L356
	.word	.L356
	.word	.L356
	.word	.L356
	.word	.L356
	.word	.L356
	.word	.L356
	.word	.L356
	.word	.L356
.L356:
.LBB754:
.LBB755:
	.loc 3 8523 0
	ldr	r2, .L5453+8
	.loc 3 8521 0
	and	r8, r5, #983040
	.loc 3 8523 0
	mov	r1, r5, lsr #8
	.loc 3 8521 0
	mov	r8, r8, lsr #16
.LVL139:
	.loc 3 8523 0
	and	r0, r5, #255
	and	r1, r1, #255
	ldr	r3, [r4, r8, asl #2]
	ldrb	sl, [r2, r0]	@ zero_extendqisi2
	ldrb	r2, [r2, r1]	@ zero_extendqisi2
	.loc 3 8524 0
	add	r6, r3, #4
	.loc 3 8523 0
	add	sl, sl, r2
	.loc 3 8526 0
	tst	r5, #32768
	.loc 3 8523 0
	add	sl, r3, sl, asl #2
.LVL140:
	.loc 3 8524 0
	bic	r6, r6, #3
.LVL141:
	.loc 3 8526 0
	beq	.L1895
	.loc 3 8527 0
	tst	r5, #1
	beq	.L1896
	.loc 3 8527 0 is_stmt 0 discriminator 1
	mov	r0, r6
	bl	_ZL19CPUReadMemoryrealpuj
.LVL142:
	add	r6, r6, #4
.LVL143:
	str	r0, [r4, #0]
.LVL144:
.L1896:
	.loc 3 8528 0 is_stmt 1
	tst	r5, #2
	beq	.L1897
	.loc 3 8528 0 is_stmt 0 discriminator 1
	mov	r0, r6
	bl	_ZL19CPUReadMemoryrealpuj
.LVL145:
	add	r6, r6, #4
.LVL146:
	str	r0, [r4, #4]
.LVL147:
.L1897:
	.loc 3 8529 0 is_stmt 1
	tst	r5, #4
	beq	.L1898
	.loc 3 8529 0 is_stmt 0 discriminator 1
	mov	r0, r6
	bl	_ZL19CPUReadMemoryrealpuj
.LVL148:
	add	r6, r6, #4
.LVL149:
	str	r0, [r4, #8]
.LVL150:
.L1898:
	.loc 3 8530 0 is_stmt 1
	tst	r5, #8
	beq	.L1899
	.loc 3 8530 0 is_stmt 0 discriminator 1
	mov	r0, r6
	bl	_ZL19CPUReadMemoryrealpuj
.LVL151:
	add	r6, r6, #4
.LVL152:
	str	r0, [r4, #12]
.LVL153:
.L1899:
	.loc 3 8531 0 is_stmt 1
	tst	r5, #16
	beq	.L1900
	.loc 3 8531 0 is_stmt 0 discriminator 1
	mov	r0, r6
	bl	_ZL19CPUReadMemoryrealpuj
.LVL154:
	add	r6, r6, #4
.LVL155:
	str	r0, [r4, #16]
.LVL156:
.L1900:
	.loc 3 8532 0 is_stmt 1
	tst	r5, #32
	beq	.L1901
	.loc 3 8532 0 is_stmt 0 discriminator 1
	mov	r0, r6
	bl	_ZL19CPUReadMemoryrealpuj
.LVL157:
	add	r6, r6, #4
.LVL158:
	str	r0, [r4, #20]
.LVL159:
.L1901:
	.loc 3 8533 0 is_stmt 1
	tst	r5, #64
	beq	.L1902
	.loc 3 8533 0 is_stmt 0 discriminator 1
	mov	r0, r6
	bl	_ZL19CPUReadMemoryrealpuj
.LVL160:
	add	r6, r6, #4
.LVL161:
	str	r0, [r4, #24]
.LVL162:
.L1902:
	.loc 3 8534 0 is_stmt 1
	tst	r5, #128
	beq	.L1903
	.loc 3 8534 0 is_stmt 0 discriminator 1
	mov	r0, r6
	bl	_ZL19CPUReadMemoryrealpuj
.LVL163:
	add	r6, r6, #4
.LVL164:
	str	r0, [r4, #28]
.LVL165:
.L1903:
	.loc 3 8535 0 is_stmt 1
	tst	r5, #256
	beq	.L1904
	.loc 3 8535 0 is_stmt 0 discriminator 1
	mov	r0, r6
	bl	_ZL19CPUReadMemoryrealpuj
.LVL166:
	add	r6, r6, #4
.LVL167:
	str	r0, [r4, #32]
.LVL168:
.L1904:
	.loc 3 8536 0 is_stmt 1
	tst	r5, #512
	beq	.L1905
	.loc 3 8536 0 is_stmt 0 discriminator 1
	mov	r0, r6
	bl	_ZL19CPUReadMemoryrealpuj
.LVL169:
	add	r6, r6, #4
.LVL170:
	str	r0, [r4, #36]
.LVL171:
.L1905:
	.loc 3 8537 0 is_stmt 1
	tst	r5, #1024
	beq	.L1906
	.loc 3 8537 0 is_stmt 0 discriminator 1
	mov	r0, r6
	bl	_ZL19CPUReadMemoryrealpuj
.LVL172:
	add	r6, r6, #4
.LVL173:
	str	r0, [r4, #40]
.LVL174:
.L1906:
	.loc 3 8538 0 is_stmt 1
	tst	r5, #2048
	beq	.L1907
	.loc 3 8538 0 is_stmt 0 discriminator 1
	mov	r0, r6
	bl	_ZL19CPUReadMemoryrealpuj
.LVL175:
	add	r6, r6, #4
.LVL176:
	str	r0, [r4, #44]
.LVL177:
.L1907:
	.loc 3 8539 0 is_stmt 1
	tst	r5, #4096
	beq	.L1908
	.loc 3 8539 0 is_stmt 0 discriminator 1
	mov	r0, r6
	bl	_ZL19CPUReadMemoryrealpuj
.LVL178:
	add	r6, r6, #4
.LVL179:
	str	r0, [r4, #48]
.LVL180:
.L1908:
	.loc 3 8540 0 is_stmt 1
	tst	r5, #8192
	beq	.L1909
	.loc 3 8540 0 is_stmt 0 discriminator 1
	mov	r0, r6
	bl	_ZL19CPUReadMemoryrealpuj
.LVL181:
	add	r6, r6, #4
.LVL182:
	str	r0, [r4, #52]
.LVL183:
.L1909:
	.loc 3 8541 0 is_stmt 1
	tst	r5, #16384
	beq	.L1910
	.loc 3 8541 0 is_stmt 0 discriminator 1
	mov	r0, r6
	bl	_ZL19CPUReadMemoryrealpuj
.LVL184:
	add	r6, r6, #4
.LVL185:
	str	r0, [r4, #56]
.L1910:
	.loc 3 8543 0 is_stmt 1
	mov	r0, r6
	bl	_ZL19CPUReadMemoryrealpuj
.LVL186:
	.loc 3 8545 0
	mov	r3, #1
	ands	r3, r5, r3, asl r8
	.loc 3 8543 0
	str	r0, [r4, #60]
	.loc 3 8546 0
	streq	sl, [r4, r8, asl #2]
	.loc 3 8548 0
	ldr	r3, [r4, #60]
	add	r3, r3, #4
	str	r3, [r4, #60]
.L358:
.L1937:
.L1938:
.L1939:
.L1940:
.L1941:
.L1942:
.L1943:
.L1944:
.L1945:
.L1946:
.L1947:
.L1948:
.L1949:
.L1950:
.L1951:
.L1952:
.L1953:
.L1954:
.L1955:
.L1956:
.L1957:
.L1958:
.L1959:
.L1960:
.L1961:
.L1962:
.L1963:
.L1964:
.L1965:
.L1966:
.L1967:
.L1968:
.L1969:
.L1970:
.L1971:
.L1972:
.L1973:
.L1974:
.L1975:
.L1976:
.L1977:
.L1978:
.L1979:
.L1980:
.L1981:
.LVL187:
.L152:
.LBE755:
.LBE754:
.LBE2304:
.LBE2323:
	.loc 3 8619 0
	add	sp, sp, #12
	ldmfd	sp!, {r4, r5, r6, r7, r8, r9, sl, fp, pc}
.LVL188:
.L355:
.LBB2324:
.LBB2305:
.LBB2286:
.LBB756:
	.loc 3 7646 0
	ldr	r2, .L5453+8
	.loc 3 7643 0
	and	sl, r5, #983040
	.loc 3 7647 0
	mov	r1, r5, lsr #8
	.loc 3 7643 0
	mov	sl, sl, lsr #16
.LVL189:
	.loc 3 7646 0
	and	r0, r5, #255
	.loc 3 7647 0
	and	r1, r1, #255
	.loc 3 7644 0
	ldr	r3, [r4, sl, asl #2]
	.loc 3 7647 0
	ldrb	r9, [r2, r0]	@ zero_extendqisi2
	ldrb	r2, [r2, r1]	@ zero_extendqisi2
	.loc 3 7644 0
	add	r6, r3, #4
	.loc 3 7647 0
	add	r9, r9, r2
	.loc 3 7648 0
	ands	r8, r5, #1
	.loc 3 7644 0
	bic	r6, r6, #3
.LVL190:
	.loc 3 7647 0
	add	r9, r3, r9, asl #2
.LVL191:
	.loc 3 7648 0
	bne	.L5005
.LVL192:
.L1457:
	.loc 3 7649 0
	tst	r5, #2
	bne	.L5006
.LVL193:
.L1458:
	.loc 3 7650 0
	tst	r5, #4
	bne	.L5007
.LVL194:
.L1460:
	.loc 3 7651 0
	tst	r5, #8
	bne	.L5008
.LVL195:
.L1462:
	.loc 3 7652 0
	tst	r5, #16
	bne	.L5009
.LVL196:
.L1464:
	.loc 3 7653 0
	tst	r5, #32
	bne	.L5010
.LVL197:
.L1466:
	.loc 3 7654 0
	tst	r5, #64
	bne	.L5011
.LVL198:
.L1468:
	.loc 3 7655 0
	tst	r5, #128
	bne	.L5012
.LVL199:
.L1470:
	.loc 3 7656 0
	ldr	r7, .L5453+12
	ldr	r3, [r7, #0]
	cmp	r3, #17
	beq	.L5013
	.loc 3 7663 0
	tst	r5, #256
	bne	.L5014
.LVL200:
.L1483:
	.loc 3 7664 0
	tst	r5, #512
	bne	.L5015
.LVL201:
.L1485:
	.loc 3 7665 0
	tst	r5, #1024
	bne	.L5016
.LVL202:
.L1487:
	.loc 3 7666 0
	tst	r5, #2048
	bne	.L5017
.LVL203:
.L1489:
	.loc 3 7667 0
	tst	r5, #4096
	bne	.L5018
.LVL204:
.L1481:
	.loc 3 7669 0
	ldr	r3, [r7, #0]
	cmp	r3, #31
	cmpne	r3, #16
	beq	.L1492
	.loc 3 7670 0
	tst	r5, #8192
	beq	.L1493
	.loc 3 7670 0 is_stmt 0 discriminator 1
	mov	r0, r6
	ldr	r1, [r4, #104]
	bl	_ZL16CPUWriteMemorypujj
.LVL205:
	cmp	r8, #0
	streq	r9, [r4, sl, asl #2]
.LVL206:
	add	r6, r6, #4
.LVL207:
	mov	r8, #1
.LVL208:
.L1493:
	.loc 3 7671 0 is_stmt 1
	tst	r5, #16384
	bne	.L5019
.LVL209:
.L1495:
	.loc 3 7676 0
	tst	r5, #32768
	beq	.L152
	.loc 3 7677 0
	ldr	r1, [r4, #60]
	mov	r0, r6
	add	r1, r1, #4
	bl	_ZL16CPUWriteMemorypujj
.LVL210:
	.loc 3 7678 0
	cmp	r8, #0
	.loc 3 7679 0
	streq	r9, [r4, sl, asl #2]
	b	.L152
.LVL211:
.L354:
.LBE756:
.LBB757:
	.loc 3 8451 0
	and	r3, r5, #983040
	.loc 3 8452 0
	ldr	r6, [r4, r3, lsr #14]
	.loc 3 8454 0
	tst	r5, #32768
	.loc 3 8452 0
	add	r6, r6, #4
	bic	r6, r6, #3
.LVL212:
	.loc 3 8454 0
	beq	.L1858
	.loc 3 8455 0
	tst	r5, #1
	beq	.L1859
	.loc 3 8455 0 is_stmt 0 discriminator 1
	mov	r0, r6
	bl	_ZL19CPUReadMemoryrealpuj
.LVL213:
	add	r6, r6, #4
.LVL214:
	str	r0, [r4, #0]
.LVL215:
.L1859:
	.loc 3 8456 0 is_stmt 1
	tst	r5, #2
	beq	.L1860
	.loc 3 8456 0 is_stmt 0 discriminator 1
	mov	r0, r6
	bl	_ZL19CPUReadMemoryrealpuj
.LVL216:
	add	r6, r6, #4
.LVL217:
	str	r0, [r4, #4]
.LVL218:
.L1860:
	.loc 3 8457 0 is_stmt 1
	tst	r5, #4
	beq	.L1861
	.loc 3 8457 0 is_stmt 0 discriminator 1
	mov	r0, r6
	bl	_ZL19CPUReadMemoryrealpuj
.LVL219:
	add	r6, r6, #4
.LVL220:
	str	r0, [r4, #8]
.LVL221:
.L1861:
	.loc 3 8458 0 is_stmt 1
	tst	r5, #8
	beq	.L1862
	.loc 3 8458 0 is_stmt 0 discriminator 1
	mov	r0, r6
	bl	_ZL19CPUReadMemoryrealpuj
.LVL222:
	add	r6, r6, #4
.LVL223:
	str	r0, [r4, #12]
.LVL224:
.L1862:
	.loc 3 8459 0 is_stmt 1
	tst	r5, #16
	beq	.L1863
	.loc 3 8459 0 is_stmt 0 discriminator 1
	mov	r0, r6
	bl	_ZL19CPUReadMemoryrealpuj
.LVL225:
	add	r6, r6, #4
.LVL226:
	str	r0, [r4, #16]
.LVL227:
.L1863:
	.loc 3 8460 0 is_stmt 1
	tst	r5, #32
	beq	.L1864
	.loc 3 8460 0 is_stmt 0 discriminator 1
	mov	r0, r6
	bl	_ZL19CPUReadMemoryrealpuj
.LVL228:
	add	r6, r6, #4
.LVL229:
	str	r0, [r4, #20]
.LVL230:
.L1864:
	.loc 3 8461 0 is_stmt 1
	tst	r5, #64
	beq	.L1865
	.loc 3 8461 0 is_stmt 0 discriminator 1
	mov	r0, r6
	bl	_ZL19CPUReadMemoryrealpuj
.LVL231:
	add	r6, r6, #4
.LVL232:
	str	r0, [r4, #24]
.LVL233:
.L1865:
	.loc 3 8462 0 is_stmt 1
	tst	r5, #128
	beq	.L1866
	.loc 3 8462 0 is_stmt 0 discriminator 1
	mov	r0, r6
	bl	_ZL19CPUReadMemoryrealpuj
.LVL234:
	add	r6, r6, #4
.LVL235:
	str	r0, [r4, #28]
.LVL236:
.L1866:
	.loc 3 8463 0 is_stmt 1
	tst	r5, #256
	beq	.L1867
	.loc 3 8463 0 is_stmt 0 discriminator 1
	mov	r0, r6
	bl	_ZL19CPUReadMemoryrealpuj
.LVL237:
	add	r6, r6, #4
.LVL238:
	str	r0, [r4, #32]
.LVL239:
.L1867:
	.loc 3 8464 0 is_stmt 1
	tst	r5, #512
	beq	.L1868
	.loc 3 8464 0 is_stmt 0 discriminator 1
	mov	r0, r6
	bl	_ZL19CPUReadMemoryrealpuj
.LVL240:
	add	r6, r6, #4
.LVL241:
	str	r0, [r4, #36]
.LVL242:
.L1868:
	.loc 3 8465 0 is_stmt 1
	tst	r5, #1024
	beq	.L1869
	.loc 3 8465 0 is_stmt 0 discriminator 1
	mov	r0, r6
	bl	_ZL19CPUReadMemoryrealpuj
.LVL243:
	add	r6, r6, #4
.LVL244:
	str	r0, [r4, #40]
.LVL245:
.L1869:
	.loc 3 8466 0 is_stmt 1
	tst	r5, #2048
	beq	.L1870
	.loc 3 8466 0 is_stmt 0 discriminator 1
	mov	r0, r6
	bl	_ZL19CPUReadMemoryrealpuj
.LVL246:
	add	r6, r6, #4
.LVL247:
	str	r0, [r4, #44]
.LVL248:
.L1870:
	.loc 3 8467 0 is_stmt 1
	tst	r5, #4096
	beq	.L1871
	.loc 3 8467 0 is_stmt 0 discriminator 1
	mov	r0, r6
	bl	_ZL19CPUReadMemoryrealpuj
.LVL249:
	add	r6, r6, #4
.LVL250:
	str	r0, [r4, #48]
.LVL251:
.L1871:
	.loc 3 8468 0 is_stmt 1
	tst	r5, #8192
	beq	.L1872
	.loc 3 8468 0 is_stmt 0 discriminator 1
	mov	r0, r6
	bl	_ZL19CPUReadMemoryrealpuj
.LVL252:
	add	r6, r6, #4
.LVL253:
	str	r0, [r4, #52]
.LVL254:
.L1872:
	.loc 3 8469 0 is_stmt 1
	tst	r5, #16384
	beq	.L1873
	.loc 3 8469 0 is_stmt 0 discriminator 1
	mov	r0, r6
	bl	_ZL19CPUReadMemoryrealpuj
.LVL255:
	add	r6, r6, #4
.LVL256:
	str	r0, [r4, #56]
.L1873:
	.loc 3 8471 0 is_stmt 1
	mov	r0, r6
	bl	_ZL19CPUReadMemoryrealpuj
.LVL257:
	.loc 3 8474 0
	add	r0, r0, #4
	str	r0, [r4, #60]
	b	.L152
.LVL258:
.L352:
.LBE757:
.LBB758:
	.loc 3 8417 0
	and	r7, r5, #983040
	mov	r7, r7, lsr #16
.LVL259:
	.loc 3 8419 0
	ldr	r8, [r4, r7, asl #2]
	ldr	r3, .L5453+8
	mov	r2, r5, lsr #8
	and	r1, r5, #255
	and	r2, r2, #255
	.loc 3 8420 0
	add	r6, r8, #4
	.loc 3 8422 0
	tst	r5, #1
	.loc 3 8419 0
	ldrb	r9, [r3, r1]	@ zero_extendqisi2
	ldrb	sl, [r3, r2]	@ zero_extendqisi2
.LVL260:
	.loc 3 8420 0
	bic	r6, r6, #3
.LVL261:
	.loc 3 8422 0
	bne	.L5020
.LVL262:
.L1842:
	.loc 3 8423 0
	tst	r5, #2
	bne	.L5021
.L1843:
	.loc 3 8424 0
	tst	r5, #4
	bne	.L5022
.L1844:
	.loc 3 8425 0
	tst	r5, #8
	bne	.L5023
.L1845:
	.loc 3 8426 0
	tst	r5, #16
	bne	.L5024
.L1846:
	.loc 3 8427 0
	tst	r5, #32
	bne	.L5025
.L1847:
	.loc 3 8428 0
	tst	r5, #64
	bne	.L5026
.L1848:
	.loc 3 8429 0
	tst	r5, #128
	bne	.L5027
.L1849:
	.loc 3 8430 0
	tst	r5, #256
	bne	.L5028
.L1850:
	.loc 3 8431 0
	tst	r5, #512
	bne	.L5029
.L1851:
	.loc 3 8432 0
	tst	r5, #1024
	bne	.L5030
.L1852:
	.loc 3 8433 0
	tst	r5, #2048
	bne	.L5031
.L1853:
	.loc 3 8434 0
	tst	r5, #4096
	bne	.L5032
.L1854:
	.loc 3 8435 0
	tst	r5, #8192
	bne	.L5033
.L1855:
	.loc 3 8436 0
	tst	r5, #16384
	bne	.L5034
.L1856:
	.loc 3 8437 0
	tst	r5, #32768
	bne	.L5035
.L1857:
	.loc 3 8444 0
	mov	r3, #1
	ands	r3, r5, r3, asl r7
	.loc 3 8419 0
	addeq	sl, r9, sl
.LVL263:
	addeq	r8, r8, sl, asl #2
	.loc 3 8445 0
	streq	r8, [r4, r7, asl #2]
	b	.L152
.LVL264:
.L351:
.LBE758:
.LBB759:
	.loc 3 7569 0
	ldr	r2, .L5453+8
	.loc 3 7566 0
	and	r8, r5, #983040
	.loc 3 7570 0
	mov	r1, r5, lsr #8
	.loc 3 7566 0
	mov	r8, r8, lsr #16
.LVL265:
	.loc 3 7569 0
	and	r0, r5, #255
	.loc 3 7570 0
	and	r1, r1, #255
	.loc 3 7567 0
	ldr	r3, [r4, r8, asl #2]
	.loc 3 7570 0
	ldrb	sl, [r2, r0]	@ zero_extendqisi2
	ldrb	r2, [r2, r1]	@ zero_extendqisi2
	.loc 3 7567 0
	add	r6, r3, #4
	.loc 3 7570 0
	add	sl, sl, r2
	.loc 3 7571 0
	ands	r7, r5, #1
	.loc 3 7567 0
	bic	r6, r6, #3
.LVL266:
	.loc 3 7570 0
	add	sl, r3, sl, asl #2
.LVL267:
	.loc 3 7571 0
	bne	.L5036
.LVL268:
.L1391:
	.loc 3 7572 0
	tst	r5, #2
	bne	.L5037
.LVL269:
.L1392:
	.loc 3 7573 0
	tst	r5, #4
	bne	.L5038
.LVL270:
.L1394:
	.loc 3 7574 0
	tst	r5, #8
	bne	.L5039
.LVL271:
.L1396:
	.loc 3 7575 0
	tst	r5, #16
	bne	.L5040
.LVL272:
.L1398:
	.loc 3 7576 0
	tst	r5, #32
	bne	.L5041
.LVL273:
.L1400:
	.loc 3 7577 0
	tst	r5, #64
	bne	.L5042
.LVL274:
.L1402:
	.loc 3 7578 0
	tst	r5, #128
	bne	.L5043
.LVL275:
.L1404:
	.loc 3 7579 0
	tst	r5, #256
	bne	.L5044
.LVL276:
.L1411:
	.loc 3 7580 0
	tst	r5, #512
	bne	.L5045
.LVL277:
.L1413:
	.loc 3 7581 0
	tst	r5, #1024
	bne	.L5046
.LVL278:
.L1415:
	.loc 3 7582 0
	tst	r5, #2048
	bne	.L5047
.LVL279:
.L1417:
	.loc 3 7583 0
	tst	r5, #4096
	bne	.L5048
.LVL280:
.L1419:
	.loc 3 7584 0
	tst	r5, #8192
	bne	.L5049
.LVL281:
.L1421:
	.loc 3 7585 0
	tst	r5, #16384
	bne	.L5050
.LVL282:
.L1423:
	.loc 3 7586 0
	tst	r5, #32768
	beq	.L152
	.loc 3 7587 0
	ldr	r5, [r4, #60]
.LVL283:
.LBB760:
.LBB761:
	.loc 1 533 0
	mov	r3, r6, lsr #24
	cmp	r3, #13
.LBE761:
.LBE760:
	.loc 3 7587 0
	add	r5, r5, #4
.LVL284:
.LBB769:
.LBB764:
	.loc 1 533 0
	beq	.L1427
	cmp	r3, #14
	beq	.L1428
	cmp	r3, #4
	beq	.L5051
.LVL285:
.L1429:
.LBE764:
.LBE769:
	.loc 3 7588 0
	cmp	r7, #0
	.loc 3 7589 0
	streq	sl, [r4, r8, asl #2]
	b	.L152
.LVL286:
.L350:
.LBE759:
.LBB782:
	.loc 3 8387 0
	and	r3, r5, #983040
	.loc 3 8388 0
	ldr	r6, [r4, r3, lsr #14]
	.loc 3 8390 0
	tst	r5, #1
	.loc 3 8388 0
	add	r6, r6, #4
	bic	r6, r6, #3
.LVL287:
	.loc 3 8390 0
	bne	.L5052
.LVL288:
.L1827:
	.loc 3 8391 0
	tst	r5, #2
	bne	.L5053
.L1828:
	.loc 3 8392 0
	tst	r5, #4
	bne	.L5054
.L1829:
	.loc 3 8393 0
	tst	r5, #8
	bne	.L5055
.L1830:
	.loc 3 8394 0
	tst	r5, #16
	bne	.L5056
.L1831:
	.loc 3 8395 0
	tst	r5, #32
	bne	.L5057
.L1832:
	.loc 3 8396 0
	tst	r5, #64
	bne	.L5058
.L1833:
	.loc 3 8397 0
	tst	r5, #128
	bne	.L5059
.L1834:
	.loc 3 8398 0
	tst	r5, #256
	bne	.L5060
.L1835:
	.loc 3 8399 0
	tst	r5, #512
	bne	.L5061
.L1836:
	.loc 3 8400 0
	tst	r5, #1024
	bne	.L5062
.L1837:
	.loc 3 8401 0
	tst	r5, #2048
	bne	.L5063
.L1838:
	.loc 3 8402 0
	tst	r5, #4096
	bne	.L5064
.L1839:
	.loc 3 8403 0
	tst	r5, #8192
	bne	.L5065
.L1840:
	.loc 3 8404 0
	tst	r5, #16384
	bne	.L5066
.L1841:
	.loc 3 8405 0
	tst	r5, #32768
	beq	.L152
	.loc 3 8406 0
	mov	r0, r6
	bl	_ZL19CPUReadMemoryrealpuj
.LVL289:
	.loc 3 8409 0
	add	r0, r0, #4
	str	r0, [r4, #60]
	b	.L152
.LVL290:
.L349:
.LBE782:
.LBB783:
	.loc 3 7537 0
	and	r3, r5, #983040
	.loc 3 7538 0
	ldr	r6, [r4, r3, lsr #14]
	.loc 3 7540 0
	tst	r5, #1
	.loc 3 7538 0
	add	r6, r6, #4
	bic	r6, r6, #3
.LVL291:
	.loc 3 7540 0
	bne	.L5067
.LVL292:
.L1373:
	.loc 3 7541 0
	tst	r5, #2
	bne	.L5068
.L1374:
	.loc 3 7542 0
	tst	r5, #4
	bne	.L5069
.L1375:
	.loc 3 7543 0
	tst	r5, #8
	bne	.L5070
.L1376:
	.loc 3 7544 0
	tst	r5, #16
	bne	.L5071
.L1377:
	.loc 3 7545 0
	tst	r5, #32
	bne	.L5072
.L1378:
	.loc 3 7546 0
	tst	r5, #64
	bne	.L5073
.L1379:
	.loc 3 7547 0
	tst	r5, #128
	bne	.L5074
.L1380:
	.loc 3 7548 0
	tst	r5, #256
	bne	.L5075
.L1381:
	.loc 3 7549 0
	tst	r5, #512
	bne	.L5076
.L1382:
	.loc 3 7550 0
	tst	r5, #1024
	bne	.L5077
.L1383:
	.loc 3 7551 0
	tst	r5, #2048
	bne	.L5078
.L1384:
	.loc 3 7552 0
	tst	r5, #4096
	bne	.L5079
.L1385:
	.loc 3 7553 0
	tst	r5, #8192
	bne	.L5080
.L1386:
	.loc 3 7554 0
	tst	r5, #16384
	bne	.L5081
.L1387:
	.loc 3 7555 0
	tst	r5, #32768
	beq	.L152
	.loc 3 7556 0
	ldr	r4, [r4, #60]
.LVL293:
.LBB784:
.LBB785:
	.loc 1 533 0
	mov	r3, r6, lsr #24
	cmp	r3, #13
.LBE785:
.LBE784:
	.loc 3 7556 0
	add	r4, r4, #4
.LVL294:
.LBB795:
.LBB790:
	.loc 1 533 0
	beq	.L1389
	cmp	r3, #14
	beq	.L1390
.LVL295:
.L4953:
	cmp	r3, #4
	bne	.L152
	.loc 1 569 0
	ldr	r3, .L5453
	cmp	r6, r3
	bhi	.L152
.LVL296:
.LBB786:
.LBB787:
	.loc 1 578 0
	and	r6, r6, #1020
.LVL297:
	mov	r1, r4, asl #16
	mov	r0, r6
	mov	r1, r1, lsr #16
	bl	_Z17CPUUpdateRegisterjt
.LVL298:
	.loc 1 579 0
	add	r0, r6, #2
	mov	r1, r4, lsr #16
.LBE787:
.LBE786:
.LBE790:
.LBE795:
.LBE783:
.LBE2286:
.LBE2305:
.LBE2324:
	.loc 3 8619 0
	add	sp, sp, #12
	ldmfd	sp!, {r4, r5, r6, r7, r8, r9, sl, fp, lr}
.LBB2325:
.LBB2306:
.LBB2287:
.LBB799:
.LBB796:
.LBB791:
.LBB789:
.LBB788:
	.loc 1 579 0
	b	_Z17CPUUpdateRegisterjt
.LVL299:
.L353:
.LBE788:
.LBE789:
.LBE791:
.LBE796:
.LBE799:
.LBB800:
	.loc 3 7601 0
	and	r3, r5, #983040
	.loc 3 7602 0
	ldr	r6, [r4, r3, lsr #14]
	.loc 3 7604 0
	tst	r5, #1
	.loc 3 7602 0
	add	r6, r6, #4
	bic	r6, r6, #3
.LVL300:
	.loc 3 7604 0
	bne	.L5082
.LVL301:
.L1430:
	.loc 3 7605 0
	tst	r5, #2
	bne	.L5083
.L1431:
	.loc 3 7606 0
	tst	r5, #4
	bne	.L5084
.L1432:
	.loc 3 7607 0
	tst	r5, #8
	bne	.L5085
.LVL302:
.L1433:
	.loc 3 7608 0
	tst	r5, #16
	bne	.L5086
.L1439:
	.loc 3 7609 0
	tst	r5, #32
	bne	.L5087
.L1440:
	.loc 3 7610 0
	tst	r5, #64
	bne	.L5088
.L1441:
	.loc 3 7611 0
	tst	r5, #128
	bne	.L5089
.L1442:
	.loc 3 7612 0
	ldr	r7, .L5453+12
	ldr	r3, [r7, #0]
	cmp	r3, #17
	beq	.L5090
	.loc 3 7619 0
	tst	r5, #256
	bne	.L5091
.L1449:
	.loc 3 7620 0
	tst	r5, #512
	bne	.L5092
.L1450:
	.loc 3 7621 0
	tst	r5, #1024
	bne	.L5093
.L1451:
	.loc 3 7622 0
	tst	r5, #2048
	bne	.L5094
.L1452:
	.loc 3 7623 0
	tst	r5, #4096
	bne	.L5095
.L1448:
	.loc 3 7625 0
	ldr	r3, [r7, #0]
	cmp	r3, #31
	cmpne	r3, #16
	beq	.L1453
	.loc 3 7626 0
	tst	r5, #8192
	bne	.L5096
.LVL303:
.L1454:
	.loc 3 7627 0
	tst	r5, #16384
	beq	.L1455
	.loc 3 7627 0 is_stmt 0 discriminator 1
	mov	r0, r6
	ldr	r1, [r4, #108]
	bl	_ZL16CPUWriteMemorypujj
.LVL304:
	add	r6, r6, #4
.LVL305:
.L1455:
	.loc 3 7632 0 is_stmt 1
	tst	r5, #32768
	beq	.L152
	.loc 3 7633 0
	ldr	r1, [r4, #60]
	mov	r0, r6
	add	r1, r1, #4
.LBE800:
.LBE2287:
.LBE2306:
.LBE2325:
	.loc 3 8619 0
	add	sp, sp, #12
	ldmfd	sp!, {r4, r5, r6, r7, r8, r9, sl, fp, lr}
.LBB2326:
.LBB2307:
.LBB2288:
.LBB811:
	.loc 3 7633 0
	b	_ZL16CPUWriteMemorypujj
.LVL306:
.L280:
.LBE811:
.LBB812:
	.loc 3 4788 0
	mov	r2, r5, lsr #7
.LVL307:
	.loc 3 4789 0
	and	r0, r5, #15
	.loc 3 4790 0
	ands	r1, r2, #31
.LVL308:
	.loc 3 4789 0
	ldr	r2, [r4, r0, asl #2]
.LVL309:
	.loc 3 4793 0
	ldreq	r1, .L5453+4
.LVL310:
	.loc 3 4791 0
	movne	r2, r2, ror r1
.LVL311:
	.loc 3 4793 0
	ldreqb	r1, [r1, #0]	@ zero_extendqisi2
	moveq	r1, r1, asl #31
	orreq	r2, r1, r2, lsr #1
.LVL312:
.L444:
	.loc 3 4796 0
	and	r3, r3, #15
.LVL313:
	.loc 3 4797 0
	ldr	r0, [r4, r3, asl #2]
	.loc 3 4795 0
	mov	r3, r5, lsr #12
.LVL314:
	and	r3, r3, #15
.LVL315:
	.loc 3 4798 0
	ldrb	r1, [r4, r3, asl #2]	@ zero_extendqisi2
	rsb	r0, r2, r0
.LBE812:
.LBE2288:
.LBE2307:
.LBE2326:
	.loc 3 8619 0
	add	sp, sp, #12
	ldmfd	sp!, {r4, r5, r6, r7, r8, r9, sl, fp, lr}
.LBB2327:
.LBB2308:
.LBB2289:
.LBB813:
	.loc 3 4798 0
	b	_ZL14CPUWriteBytepujh
.LVL316:
.L279:
.LBE813:
.LBB814:
	.loc 3 4768 0
	mov	r2, r5, lsr #7
.LVL317:
	.loc 3 4770 0
	ands	r2, r2, #31
.LVL318:
	beq	.L441
	.loc 3 4771 0
	and	r1, r5, #15
	ldr	r1, [r4, r1, asl #2]
	mov	r2, r1, asr r2
.LVL319:
	b	.L444
.LVL320:
.L278:
.LBE814:
.LBB815:
	.loc 3 4754 0
	mov	r2, r5, lsr #7
.LVL321:
	.loc 3 4755 0
	ands	r2, r2, #31
.LVL322:
	.loc 3 4755 0 is_stmt 0 discriminator 1
	andne	r1, r5, #15
	ldrne	r1, [r4, r1, asl #2]
	movne	r2, r1, lsr r2
.LVL323:
	b	.L444
.LVL324:
.L277:
.LBE815:
.LBB816:
	.loc 3 4743 0 is_stmt 1
	and	r3, r3, #15
.LVL325:
	.loc 3 4741 0
	and	r1, r5, #15
	ldr	r1, [r4, r1, asl #2]
	.loc 3 4744 0
	ldr	r0, [r4, r3, asl #2]
	.loc 3 4741 0
	mov	r2, r5, lsr #7
	and	r2, r2, #31
	.loc 3 4745 0
	sub	r0, r0, r1, asl r2
	.loc 3 4742 0
	mov	r3, r5, lsr #12
.LVL326:
	and	r3, r3, #15
.LVL327:
	.loc 3 4745 0
	ldrb	r1, [r4, r3, asl #2]	@ zero_extendqisi2
.LBE816:
.LBE2289:
.LBE2308:
.LBE2327:
	.loc 3 8619 0
	add	sp, sp, #12
	ldmfd	sp!, {r4, r5, r6, r7, r8, r9, sl, fp, lr}
.LBB2328:
.LBB2309:
.LBB2290:
.LBB817:
	.loc 3 4745 0
	b	_ZL14CPUWriteBytepujh
.LVL328:
.L276:
.LBE817:
.LBB818:
	.loc 3 6051 0
	and	r1, r5, #15
	ldr	r7, [r4, r1, asl #2]
	.loc 3 6050 0
	mov	r2, r5, lsr #7
.LVL329:
	.loc 3 6052 0
	ands	r2, r2, #31
.LVL330:
	.loc 3 6053 0
	movne	r2, r7, ror r2
.LVL331:
	.loc 3 6055 0
	ldreq	r2, .L5453+4
.LVL332:
	.loc 3 6058 0
	and	r6, r3, #15
	.loc 3 6055 0
	ldreqb	r2, [r2, #0]	@ zero_extendqisi2
	.loc 3 6057 0
	mov	r5, r5, lsr #12
.LVL333:
	.loc 3 6055 0
	moveq	r2, r2, asl #31
	orreq	r2, r2, r7, lsr #1
.LVL334:
	.loc 3 6059 0
	ldr	r7, [r4, r6, asl #2]
	.loc 3 6057 0
	and	r5, r5, #15
.LVL335:
	.loc 3 6059 0
	rsb	r7, r2, r7
.LVL336:
	.loc 3 6060 0
	mov	r0, r7
	bl	_ZL19CPUReadMemoryrealpuj
.LVL337:
	.loc 3 6061 0
	cmp	r5, r6
	.loc 3 6060 0
	str	r0, [r4, r5, asl #2]
	.loc 3 6062 0
	strne	r7, [r4, r6, asl #2]
	.loc 3 6064 0
	cmp	r5, #15
	.loc 3 6065 0
	ldreq	r3, [r4, #60]
	biceq	r3, r3, #3
	.loc 3 6067 0
	addeq	r3, r3, #4
	streq	r3, [r4, #60]
	b	.L152
.LVL338:
.L275:
.LBE818:
.LBB819:
	.loc 3 6022 0
	mov	r2, r5, lsr #7
.LVL339:
	.loc 3 6024 0
	ands	r2, r2, #31
.LVL340:
	beq	.L531
	.loc 3 6025 0
	and	r1, r5, #15
	ldr	r1, [r4, r1, asl #2]
	mov	r2, r1, asr r2
.LVL341:
.L532:
	.loc 3 6031 0
	and	r6, r3, #15
	.loc 3 6032 0
	ldr	r7, [r4, r6, asl #2]
	.loc 3 6030 0
	mov	r5, r5, lsr #12
.LVL342:
	.loc 3 6032 0
	rsb	r7, r2, r7
	.loc 3 6033 0
	mov	r0, r7
	bl	_ZL19CPUReadMemoryrealpuj
.LVL343:
	.loc 3 6030 0
	and	r5, r5, #15
.LVL344:
	.loc 3 6034 0
	cmp	r5, r6
	.loc 3 6033 0
	str	r0, [r4, r5, asl #2]
	.loc 3 6035 0
	strne	r7, [r4, r6, asl #2]
	.loc 3 6037 0
	cmp	r5, #15
	.loc 3 6038 0
	ldreq	r3, [r4, #60]
	biceq	r3, r3, #3
	.loc 3 6040 0
	addeq	r3, r3, #4
	streq	r3, [r4, #60]
	b	.L152
.LVL345:
.L274:
.LBE819:
.LBB820:
	.loc 3 6000 0
	mov	r2, r5, lsr #7
.LVL346:
	.loc 3 6001 0
	ands	r2, r2, #31
.LVL347:
	andne	r1, r5, #15
	ldrne	r1, [r4, r1, asl #2]
	.loc 3 6003 0
	and	r6, r3, #15
	.loc 3 6001 0
	movne	r2, r1, lsr r2
.LVL348:
	.loc 3 6004 0
	ldr	r7, [r4, r6, asl #2]
	.loc 3 6002 0
	mov	r5, r5, lsr #12
.LVL349:
	.loc 3 6004 0
	rsb	r7, r2, r7
	.loc 3 6005 0
	mov	r0, r7
	bl	_ZL19CPUReadMemoryrealpuj
.LVL350:
	.loc 3 6002 0
	and	r5, r5, #15
.LVL351:
	.loc 3 6006 0
	cmp	r5, r6
	.loc 3 6005 0
	str	r0, [r4, r5, asl #2]
	.loc 3 6007 0
	strne	r7, [r4, r6, asl #2]
	.loc 3 6009 0
	cmp	r5, #15
	.loc 3 6010 0
	ldreq	r3, [r4, #60]
	biceq	r3, r3, #3
	.loc 3 6012 0
	addeq	r3, r3, #4
	streq	r3, [r4, #60]
	b	.L152
.LVL352:
.L273:
.LBE820:
.LBB821:
	.loc 3 5981 0
	and	r6, r3, #15
	.loc 3 5979 0
	and	r3, r5, #15
	ldr	r2, [r4, r3, asl #2]
	.loc 3 5982 0
	ldr	r7, [r4, r6, asl #2]
	.loc 3 5979 0
	mov	r3, r5, lsr #7
	and	r3, r3, #31
	.loc 3 5982 0
	sub	r7, r7, r2, asl r3
	.loc 3 5983 0
	mov	r0, r7
	bl	_ZL19CPUReadMemoryrealpuj
.LVL353:
	.loc 3 5980 0
	mov	r5, r5, lsr #12
.LVL354:
.LBE821:
	and	r5, r5, #15
.LVL355:
.LBB822:
	.loc 3 5984 0
	cmp	r5, r6
	.loc 3 5983 0
	str	r0, [r4, r5, asl #2]
	.loc 3 5985 0
	strne	r7, [r4, r6, asl #2]
	.loc 3 5987 0
	cmp	r5, #15
	.loc 3 5988 0
	ldreq	r3, [r4, #60]
	biceq	r3, r3, #3
	.loc 3 5990 0
	addeq	r3, r3, #4
	streq	r3, [r4, #60]
	b	.L152
.LVL356:
.L272:
.LBE822:
.LBB823:
	.loc 3 6688 0
	and	r1, r5, #15
	ldr	r0, [r4, r1, asl #2]
	.loc 3 6687 0
	mov	r2, r5, lsr #7
.LVL357:
	.loc 3 6689 0
	ands	r2, r2, #31
.LVL358:
	.loc 3 6690 0
	movne	r2, r0, ror r2
.LVL359:
	.loc 3 6692 0
	ldreq	r2, .L5453+4
.LVL360:
	.loc 3 6695 0
	and	r3, r3, #15
	.loc 3 6692 0
	ldreqb	r2, [r2, #0]	@ zero_extendqisi2
	.loc 3 6694 0
	mov	r5, r5, lsr #12
.LVL361:
	.loc 3 6692 0
	moveq	r2, r2, asl #31
	orreq	r2, r2, r0, lsr #1
.LVL362:
	.loc 3 6696 0
	ldr	r0, [r4, r3, asl #2]
	rsb	r0, r2, r0
.LVL363:
.LBB824:
.LBB825:
	.loc 1 533 0
	mov	r2, r0, lsr #24
.LVL364:
.LBE825:
.LBE824:
	.loc 3 6697 0
	str	r0, [r4, r3, asl #2]
.LBB830:
.LBB826:
	.loc 1 533 0
	cmp	r2, #13
.LVL365:
.LBE826:
.LBE830:
	.loc 3 6694 0
	and	r3, r5, #15
	.loc 3 6698 0
	ldr	r4, [r4, r3, asl #2]
.LVL366:
.LBB831:
.LBB827:
	.loc 1 533 0
	beq	.L668
	cmp	r2, #14
	beq	.L635
.LVL367:
.L4931:
.LBE827:
.LBE831:
.LBE823:
.LBB833:
.LBB834:
.LBB835:
	cmp	r2, #4
	bne	.L152
.L4870:
	.loc 1 569 0
	ldr	r3, .L5453
	cmp	r0, r3
	bhi	.L152
.LVL368:
.LBB836:
.LBB837:
	.loc 1 578 0
	and	r5, r0, #1020
	mov	r1, r4, asl #16
	mov	r0, r5
.LVL369:
	mov	r1, r1, lsr #16
	bl	_Z17CPUUpdateRegisterjt
.LVL370:
	.loc 1 579 0
	add	r0, r5, #2
	mov	r1, r4, lsr #16
.LBE837:
.LBE836:
.LBE835:
.LBE834:
.LBE833:
.LBE2290:
.LBE2309:
.LBE2328:
	.loc 3 8619 0
	add	sp, sp, #12
	ldmfd	sp!, {r4, r5, r6, r7, r8, r9, sl, fp, lr}
.LBB2329:
.LBB2310:
.LBB2291:
.LBB854:
.LBB848:
.LBB840:
.LBB839:
.LBB838:
	.loc 1 579 0
	b	_Z17CPUUpdateRegisterjt
.LVL371:
.L271:
.LBE838:
.LBE839:
.LBE840:
.LBE848:
.LBE854:
.LBB855:
	.loc 3 6666 0
	mov	r2, r5, lsr #7
.LVL372:
	.loc 3 6668 0
	ands	r2, r2, #31
.LVL373:
	beq	.L626
	.loc 3 6669 0
	and	r1, r5, #15
	ldr	r1, [r4, r1, asl #2]
	mov	r2, r1, asr r2
.LVL374:
.L627:
	.loc 3 6675 0
	and	r3, r3, #15
.LVL375:
	.loc 3 6676 0
	ldr	r0, [r4, r3, asl #2]
	.loc 3 6674 0
	mov	r5, r5, lsr #12
.LVL376:
	.loc 3 6676 0
	rsb	r0, r2, r0
.LVL377:
.LBB856:
.LBB857:
	.loc 1 533 0
	mov	r2, r0, lsr #24
.LVL378:
.LBE857:
.LBE856:
	.loc 3 6677 0
	str	r0, [r4, r3, asl #2]
.LBB862:
.LBB858:
	.loc 1 533 0
	cmp	r2, #13
.LBE858:
.LBE862:
	.loc 3 6674 0
	and	r3, r5, #15
.LVL379:
	.loc 3 6678 0
	ldr	r4, [r4, r3, asl #2]
.LVL380:
.LBB863:
.LBB859:
	.loc 1 533 0
	beq	.L668
	cmp	r2, #14
	bne	.L4931
.LBE859:
	.loc 1 596 0
	ldr	r3, .L5453+16
.LVL381:
	ldrb	r1, [r3, #0]	@ zero_extendqisi2
	ldr	r3, .L5453+20
	ldrb	r2, [r3, #0]	@ zero_extendqisi2
.LBB860:
	ldr	r3, .L5453+24
.LBE860:
	orr	r2, r1, r2
.LBB861:
	ldrb	r3, [r3, #0]	@ zero_extendqisi2
	eor	r3, r3, #1
	orrs	r3, r2, r3
	beq	.L152
	.loc 1 597 0
	ldr	r3, .L5453+28
	and	r1, r4, #255
	ldr	r3, [r3, #0]
	blx	r3
.LVL382:
	b	.L152
.LVL383:
.L270:
.LBE861:
.LBE863:
.LBE855:
.LBB864:
	.loc 3 6651 0
	mov	r2, r5, lsr #7
.LVL384:
	.loc 3 6652 0
	ands	r2, r2, #31
.LVL385:
	andne	r1, r5, #15
	ldrne	r1, [r4, r1, asl #2]
	.loc 3 6654 0
	and	r3, r3, #15
	.loc 3 6652 0
	movne	r2, r1, lsr r2
.LVL386:
	.loc 3 6655 0
	ldr	r0, [r4, r3, asl #2]
	.loc 3 6653 0
	mov	r5, r5, lsr #12
.LVL387:
	.loc 3 6655 0
	rsb	r0, r2, r0
.LVL388:
.LBB865:
.LBB866:
	.loc 1 533 0
	mov	r2, r0, lsr #24
.LVL389:
.LBE866:
.LBE865:
	.loc 3 6656 0
	str	r0, [r4, r3, asl #2]
.LBB871:
.LBB867:
	.loc 1 533 0
	cmp	r2, #13
.LVL390:
.LBE867:
.LBE871:
	.loc 3 6653 0
	and	r3, r5, #15
.LVL391:
	.loc 3 6657 0
	ldr	r4, [r4, r3, asl #2]
.LVL392:
.LBB872:
.LBB868:
	.loc 1 533 0
	beq	.L668
	.loc 1 533 0 is_stmt 0 discriminator 3
	cmp	r2, #14
	bne	.L4931
.LBE868:
	.loc 1 596 0 is_stmt 1
	ldr	r3, .L5453+16
.LVL393:
	ldrb	r1, [r3, #0]	@ zero_extendqisi2
.LVL394:
	ldr	r3, .L5453+20
	ldrb	r2, [r3, #0]	@ zero_extendqisi2
.LBB869:
	ldr	r3, .L5453+24
.LBE869:
	orr	r2, r1, r2
.LBB870:
	ldrb	r3, [r3, #0]	@ zero_extendqisi2
	eor	r3, r3, #1
	orrs	r3, r2, r3
	beq	.L152
	.loc 1 597 0
	ldr	r3, .L5453+28
	and	r1, r4, #255
	ldr	r3, [r3, #0]
	blx	r3
.LVL395:
	b	.L152
.LVL396:
.L344:
.LBE870:
.LBE872:
.LBE864:
.LBB873:
	.loc 3 8197 0
	ldr	r3, .L5453+8
	mov	r1, r5, lsr #8
	.loc 3 8195 0
	and	r7, r5, #983040
	.loc 3 8197 0
	and	r2, r5, #255
	and	r1, r1, #255
	ldrb	r2, [r3, r2]	@ zero_extendqisi2
	.loc 3 8195 0
	mov	r7, r7, lsr #16
.LVL397:
	.loc 3 8197 0
	ldrb	r3, [r3, r1]	@ zero_extendqisi2
	ldr	r8, [r4, r7, asl #2]
	add	r3, r2, r3
	sub	r8, r8, r3, asl #2
.LVL398:
	.loc 3 8201 0
	tst	r5, #1
	.loc 3 8198 0
	bic	r6, r8, #3
.LVL399:
	.loc 3 8201 0
	bne	.L5097
.LVL400:
.L1733:
	.loc 3 8202 0
	tst	r5, #2
	bne	.L5098
.L1734:
	.loc 3 8203 0
	tst	r5, #4
	bne	.L5099
.L1735:
	.loc 3 8204 0
	tst	r5, #8
	bne	.L5100
.L1736:
	.loc 3 8205 0
	tst	r5, #16
	bne	.L5101
.L1737:
	.loc 3 8206 0
	tst	r5, #32
	bne	.L5102
.L1738:
	.loc 3 8207 0
	tst	r5, #64
	bne	.L5103
.L1739:
	.loc 3 8208 0
	tst	r5, #128
	bne	.L5104
.L1740:
	.loc 3 8209 0
	tst	r5, #256
	bne	.L5105
.L1741:
	.loc 3 8210 0
	tst	r5, #512
	bne	.L5106
.L1742:
	.loc 3 8211 0
	tst	r5, #1024
	bne	.L5107
.L1743:
	.loc 3 8212 0
	tst	r5, #2048
	bne	.L5108
.L1744:
	.loc 3 8213 0
	tst	r5, #4096
	bne	.L5109
.L1745:
	.loc 3 8214 0
	tst	r5, #8192
	bne	.L5110
.L1746:
	.loc 3 8215 0
	tst	r5, #16384
	bne	.L5111
.L1747:
	.loc 3 8216 0
	tst	r5, #32768
	bne	.L5112
.L1748:
	.loc 3 8224 0
	mov	r3, #1
	ands	r3, r5, r3, asl r7
	.loc 3 8225 0
	streq	r8, [r4, r7, asl #2]
	b	.L152
.LVL401:
.L343:
.LBE873:
.LBB874:
	.loc 3 7407 0
	ldr	r3, .L5453+8
	mov	r1, r5, lsr #8
	.loc 3 7405 0
	and	r8, r5, #983040
	.loc 3 7407 0
	and	r2, r5, #255
	and	r1, r1, #255
	ldrb	r2, [r3, r2]	@ zero_extendqisi2
	.loc 3 7405 0
	mov	r8, r8, lsr #16
.LVL402:
	.loc 3 7407 0
	ldrb	r3, [r3, r1]	@ zero_extendqisi2
	ldr	sl, [r4, r8, asl #2]
	add	r3, r2, r3
	sub	sl, sl, r3, asl #2
.LVL403:
	.loc 3 7411 0
	ands	r7, r5, #1
	.loc 3 7408 0
	bic	r6, sl, #3
.LVL404:
	.loc 3 7411 0
	bne	.L5113
.LVL405:
.L1274:
	.loc 3 7412 0
	tst	r5, #2
	bne	.L5114
.LVL406:
.L1275:
	.loc 3 7413 0
	tst	r5, #4
	bne	.L5115
.LVL407:
.L1277:
	.loc 3 7414 0
	tst	r5, #8
	bne	.L5116
.LVL408:
.L1279:
	.loc 3 7415 0
	tst	r5, #16
	bne	.L5117
.LVL409:
.L1281:
	.loc 3 7416 0
	tst	r5, #32
	bne	.L5118
.LVL410:
.L1283:
	.loc 3 7417 0
	tst	r5, #64
	bne	.L5119
.LVL411:
.L1285:
	.loc 3 7418 0
	tst	r5, #128
	bne	.L5120
.LVL412:
.L1287:
	.loc 3 7419 0
	tst	r5, #256
	bne	.L5121
.LVL413:
.L1289:
	.loc 3 7420 0
	tst	r5, #512
	bne	.L5122
.LVL414:
.L1291:
	.loc 3 7421 0
	tst	r5, #1024
	bne	.L5123
.LVL415:
.L1293:
	.loc 3 7422 0
	tst	r5, #2048
	bne	.L5124
.LVL416:
.L1295:
	.loc 3 7423 0
	tst	r5, #4096
	bne	.L5125
.LVL417:
.L1297:
	.loc 3 7424 0
	tst	r5, #8192
	bne	.L5126
.LVL418:
.L1299:
	.loc 3 7425 0
	tst	r5, #16384
	bne	.L5127
.LVL419:
.L1301:
	.loc 3 7426 0
	tst	r5, #32768
	beq	.L152
	.loc 3 7427 0
	ldr	r1, [r4, #60]
	mov	r0, r6
	add	r1, r1, #4
	bl	_ZL16CPUWriteMemorypujj
.LVL420:
	.loc 3 7430 0
	str	sl, [r4, r8, asl #2]
	b	.L152
.LVL421:
.L342:
.LBE874:
.LBB875:
	.loc 3 8161 0
	ldr	r3, .L5453+8
	mov	r1, r5, lsr #8
	and	r1, r1, #255
	and	r2, r5, #255
	ldrb	r2, [r3, r2]	@ zero_extendqisi2
	ldrb	r3, [r3, r1]	@ zero_extendqisi2
	.loc 3 8159 0
	and	r1, r5, #983040
	.loc 3 8161 0
	ldr	r6, [r4, r1, lsr #14]
	add	r3, r2, r3
	sub	r6, r6, r3, asl #2
	.loc 3 8165 0
	tst	r5, #1
	.loc 3 8162 0
	bic	r6, r6, #3
.LVL422:
	.loc 3 8165 0
	bne	.L5128
.LVL423:
.L1718:
	.loc 3 8166 0
	tst	r5, #2
	bne	.L5129
.L1719:
	.loc 3 8167 0
	tst	r5, #4
	bne	.L5130
.L1720:
	.loc 3 8168 0
	tst	r5, #8
	bne	.L5131
.L1721:
	.loc 3 8169 0
	tst	r5, #16
	bne	.L5132
.L1722:
	.loc 3 8170 0
	tst	r5, #32
	bne	.L5133
.L1723:
	.loc 3 8171 0
	tst	r5, #64
	bne	.L5134
.L1724:
	.loc 3 8172 0
	tst	r5, #128
	bne	.L5135
.L1725:
	.loc 3 8173 0
	tst	r5, #256
	bne	.L5136
.L1726:
	.loc 3 8174 0
	tst	r5, #512
	bne	.L5137
.L1727:
	.loc 3 8175 0
	tst	r5, #1024
	bne	.L5138
.L1728:
	.loc 3 8176 0
	tst	r5, #2048
	bne	.L5139
.L1729:
	.loc 3 8177 0
	tst	r5, #4096
	bne	.L5140
.L1730:
	.loc 3 8178 0
	tst	r5, #8192
	bne	.L5141
.L1731:
	.loc 3 8179 0
	tst	r5, #16384
	bne	.L5142
.L1732:
	.loc 3 8180 0
	tst	r5, #32768
	beq	.L152
	.loc 3 8181 0
	mov	r0, r6
	bl	_ZL19CPUReadMemoryrealpuj
.LVL424:
	.loc 3 8184 0
	add	r0, r0, #4
	str	r0, [r4, #60]
	b	.L152
.L5454:
	.align	2
.L5453:
	.word	67109887
	.word	C_FLAG
	.word	cpuBitsSet
	.word	armMode
	.word	cpuFlashEnabled
	.word	cpuSramEnabled
	.word	eepromInUse
	.word	cpuSaveGameFunc
.LVL425:
.L340:
.LBE875:
.LBB876:
	.loc 3 8078 0
	ldr	r3, .L5453+8
	mov	r2, r5, lsr #8
	.loc 3 8076 0
	and	r8, r5, #983040
	.loc 3 8078 0
	and	r1, r5, #255
	and	r2, r2, #255
	ldrb	sl, [r3, r1]	@ zero_extendqisi2
	.loc 3 8076 0
	mov	r8, r8, lsr #16
.LVL426:
	.loc 3 8078 0
	ldrb	r3, [r3, r2]	@ zero_extendqisi2
	ldr	r6, [r4, r8, asl #2]
	add	sl, sl, r3
	.loc 3 8082 0
	tst	r5, #32768
	.loc 3 8078 0
	add	sl, r6, sl, asl #2
.LVL427:
	.loc 3 8079 0
	bic	r6, r6, #3
.LVL428:
	.loc 3 8082 0
	beq	.L1677
	.loc 3 8083 0
	tst	r5, #1
	beq	.L1678
	.loc 3 8083 0 is_stmt 0 discriminator 1
	mov	r0, r6
	bl	_ZL19CPUReadMemoryrealpuj
.LVL429:
	add	r6, r6, #4
.LVL430:
	str	r0, [r4, #0]
.LVL431:
.L1678:
	.loc 3 8084 0 is_stmt 1
	tst	r5, #2
	beq	.L1679
	.loc 3 8084 0 is_stmt 0 discriminator 1
	mov	r0, r6
	bl	_ZL19CPUReadMemoryrealpuj
.LVL432:
	add	r6, r6, #4
.LVL433:
	str	r0, [r4, #4]
.LVL434:
.L1679:
	.loc 3 8085 0 is_stmt 1
	tst	r5, #4
	beq	.L1680
	.loc 3 8085 0 is_stmt 0 discriminator 1
	mov	r0, r6
	bl	_ZL19CPUReadMemoryrealpuj
.LVL435:
	add	r6, r6, #4
.LVL436:
	str	r0, [r4, #8]
.LVL437:
.L1680:
	.loc 3 8086 0 is_stmt 1
	tst	r5, #8
	beq	.L1681
	.loc 3 8086 0 is_stmt 0 discriminator 1
	mov	r0, r6
	bl	_ZL19CPUReadMemoryrealpuj
.LVL438:
	add	r6, r6, #4
.LVL439:
	str	r0, [r4, #12]
.LVL440:
.L1681:
	.loc 3 8087 0 is_stmt 1
	tst	r5, #16
	beq	.L1682
	.loc 3 8087 0 is_stmt 0 discriminator 1
	mov	r0, r6
	bl	_ZL19CPUReadMemoryrealpuj
.LVL441:
	add	r6, r6, #4
.LVL442:
	str	r0, [r4, #16]
.LVL443:
.L1682:
	.loc 3 8088 0 is_stmt 1
	tst	r5, #32
	beq	.L1683
	.loc 3 8088 0 is_stmt 0 discriminator 1
	mov	r0, r6
	bl	_ZL19CPUReadMemoryrealpuj
.LVL444:
	add	r6, r6, #4
.LVL445:
	str	r0, [r4, #20]
.LVL446:
.L1683:
	.loc 3 8089 0 is_stmt 1
	tst	r5, #64
	beq	.L1684
	.loc 3 8089 0 is_stmt 0 discriminator 1
	mov	r0, r6
	bl	_ZL19CPUReadMemoryrealpuj
.LVL447:
	add	r6, r6, #4
.LVL448:
	str	r0, [r4, #24]
.LVL449:
.L1684:
	.loc 3 8090 0 is_stmt 1
	tst	r5, #128
	beq	.L1685
	.loc 3 8090 0 is_stmt 0 discriminator 1
	mov	r0, r6
	bl	_ZL19CPUReadMemoryrealpuj
.LVL450:
	add	r6, r6, #4
.LVL451:
	str	r0, [r4, #28]
.LVL452:
.L1685:
	.loc 3 8091 0 is_stmt 1
	tst	r5, #256
	beq	.L1686
	.loc 3 8091 0 is_stmt 0 discriminator 1
	mov	r0, r6
	bl	_ZL19CPUReadMemoryrealpuj
.LVL453:
	add	r6, r6, #4
.LVL454:
	str	r0, [r4, #32]
.LVL455:
.L1686:
	.loc 3 8092 0 is_stmt 1
	tst	r5, #512
	beq	.L1687
	.loc 3 8092 0 is_stmt 0 discriminator 1
	mov	r0, r6
	bl	_ZL19CPUReadMemoryrealpuj
.LVL456:
	add	r6, r6, #4
.LVL457:
	str	r0, [r4, #36]
.LVL458:
.L1687:
	.loc 3 8093 0 is_stmt 1
	tst	r5, #1024
	beq	.L1688
	.loc 3 8093 0 is_stmt 0 discriminator 1
	mov	r0, r6
	bl	_ZL19CPUReadMemoryrealpuj
.LVL459:
	add	r6, r6, #4
.LVL460:
	str	r0, [r4, #40]
.LVL461:
.L1688:
	.loc 3 8094 0 is_stmt 1
	tst	r5, #2048
	beq	.L1689
	.loc 3 8094 0 is_stmt 0 discriminator 1
	mov	r0, r6
	bl	_ZL19CPUReadMemoryrealpuj
.LVL462:
	add	r6, r6, #4
.LVL463:
	str	r0, [r4, #44]
.LVL464:
.L1689:
	.loc 3 8095 0 is_stmt 1
	tst	r5, #4096
	beq	.L1690
	.loc 3 8095 0 is_stmt 0 discriminator 1
	mov	r0, r6
	bl	_ZL19CPUReadMemoryrealpuj
.LVL465:
	add	r6, r6, #4
.LVL466:
	str	r0, [r4, #48]
.LVL467:
.L1690:
	.loc 3 8096 0 is_stmt 1
	tst	r5, #8192
	beq	.L1691
	.loc 3 8096 0 is_stmt 0 discriminator 1
	mov	r0, r6
	bl	_ZL19CPUReadMemoryrealpuj
.LVL468:
	add	r6, r6, #4
.LVL469:
	str	r0, [r4, #52]
.LVL470:
.L1691:
	.loc 3 8097 0 is_stmt 1
	tst	r5, #16384
	beq	.L1692
	.loc 3 8097 0 is_stmt 0 discriminator 1
	mov	r0, r6
	bl	_ZL19CPUReadMemoryrealpuj
.LVL471:
	add	r6, r6, #4
.LVL472:
	str	r0, [r4, #56]
.L1692:
	.loc 3 8099 0 is_stmt 1
	mov	r0, r6
	bl	_ZL19CPUReadMemoryrealpuj
.LVL473:
	.loc 3 8101 0
	mov	r3, #1
	ands	r3, r5, r3, asl r8
	.loc 3 8099 0
	str	r0, [r4, #60]
	.loc 3 8102 0
	streq	sl, [r4, r8, asl #2]
	.loc 3 8105 0
	ldr	r3, [r4, #60]
	add	r3, r3, #4
	str	r3, [r4, #60]
	b	.L152
.LVL474:
.L338:
.LBE876:
.LBB877:
	.loc 3 8003 0
	and	r3, r5, #983040
	.loc 3 8004 0
	ldr	r6, [r4, r3, lsr #14]
	.loc 3 8007 0
	tst	r5, #32768
	.loc 3 8004 0
	bic	r6, r6, #3
.LVL475:
	.loc 3 8007 0
	beq	.L1640
	.loc 3 8008 0
	tst	r5, #1
	beq	.L1641
	.loc 3 8008 0 is_stmt 0 discriminator 1
	mov	r0, r6
	bl	_ZL19CPUReadMemoryrealpuj
.LVL476:
	add	r6, r6, #4
.LVL477:
	str	r0, [r4, #0]
.LVL478:
.L1641:
	.loc 3 8009 0 is_stmt 1
	tst	r5, #2
	beq	.L1642
	.loc 3 8009 0 is_stmt 0 discriminator 1
	mov	r0, r6
	bl	_ZL19CPUReadMemoryrealpuj
.LVL479:
	add	r6, r6, #4
.LVL480:
	str	r0, [r4, #4]
.LVL481:
.L1642:
	.loc 3 8010 0 is_stmt 1
	tst	r5, #4
	beq	.L1643
	.loc 3 8010 0 is_stmt 0 discriminator 1
	mov	r0, r6
	bl	_ZL19CPUReadMemoryrealpuj
.LVL482:
	add	r6, r6, #4
.LVL483:
	str	r0, [r4, #8]
.LVL484:
.L1643:
	.loc 3 8011 0 is_stmt 1
	tst	r5, #8
	beq	.L1644
	.loc 3 8011 0 is_stmt 0 discriminator 1
	mov	r0, r6
	bl	_ZL19CPUReadMemoryrealpuj
.LVL485:
	add	r6, r6, #4
.LVL486:
	str	r0, [r4, #12]
.LVL487:
.L1644:
	.loc 3 8012 0 is_stmt 1
	tst	r5, #16
	beq	.L1645
	.loc 3 8012 0 is_stmt 0 discriminator 1
	mov	r0, r6
	bl	_ZL19CPUReadMemoryrealpuj
.LVL488:
	add	r6, r6, #4
.LVL489:
	str	r0, [r4, #16]
.LVL490:
.L1645:
	.loc 3 8013 0 is_stmt 1
	tst	r5, #32
	beq	.L1646
	.loc 3 8013 0 is_stmt 0 discriminator 1
	mov	r0, r6
	bl	_ZL19CPUReadMemoryrealpuj
.LVL491:
	add	r6, r6, #4
.LVL492:
	str	r0, [r4, #20]
.LVL493:
.L1646:
	.loc 3 8014 0 is_stmt 1
	tst	r5, #64
	beq	.L1647
	.loc 3 8014 0 is_stmt 0 discriminator 1
	mov	r0, r6
	bl	_ZL19CPUReadMemoryrealpuj
.LVL494:
	add	r6, r6, #4
.LVL495:
	str	r0, [r4, #24]
.LVL496:
.L1647:
	.loc 3 8015 0 is_stmt 1
	tst	r5, #128
	beq	.L1648
	.loc 3 8015 0 is_stmt 0 discriminator 1
	mov	r0, r6
	bl	_ZL19CPUReadMemoryrealpuj
.LVL497:
	add	r6, r6, #4
.LVL498:
	str	r0, [r4, #28]
.LVL499:
.L1648:
	.loc 3 8016 0 is_stmt 1
	tst	r5, #256
	beq	.L1649
	.loc 3 8016 0 is_stmt 0 discriminator 1
	mov	r0, r6
	bl	_ZL19CPUReadMemoryrealpuj
.LVL500:
	add	r6, r6, #4
.LVL501:
	str	r0, [r4, #32]
.LVL502:
.L1649:
	.loc 3 8017 0 is_stmt 1
	tst	r5, #512
	beq	.L1650
	.loc 3 8017 0 is_stmt 0 discriminator 1
	mov	r0, r6
	bl	_ZL19CPUReadMemoryrealpuj
.LVL503:
	add	r6, r6, #4
.LVL504:
	str	r0, [r4, #36]
.LVL505:
.L1650:
	.loc 3 8018 0 is_stmt 1
	tst	r5, #1024
	beq	.L1651
	.loc 3 8018 0 is_stmt 0 discriminator 1
	mov	r0, r6
	bl	_ZL19CPUReadMemoryrealpuj
.LVL506:
	add	r6, r6, #4
.LVL507:
	str	r0, [r4, #40]
.LVL508:
.L1651:
	.loc 3 8019 0 is_stmt 1
	tst	r5, #2048
	beq	.L1652
	.loc 3 8019 0 is_stmt 0 discriminator 1
	mov	r0, r6
	bl	_ZL19CPUReadMemoryrealpuj
.LVL509:
	add	r6, r6, #4
.LVL510:
	str	r0, [r4, #44]
.LVL511:
.L1652:
	.loc 3 8020 0 is_stmt 1
	tst	r5, #4096
	beq	.L1653
	.loc 3 8020 0 is_stmt 0 discriminator 1
	mov	r0, r6
	bl	_ZL19CPUReadMemoryrealpuj
.LVL512:
	add	r6, r6, #4
.LVL513:
	str	r0, [r4, #48]
.LVL514:
.L1653:
	.loc 3 8021 0 is_stmt 1
	tst	r5, #8192
	beq	.L1654
	.loc 3 8021 0 is_stmt 0 discriminator 1
	mov	r0, r6
	bl	_ZL19CPUReadMemoryrealpuj
.LVL515:
	add	r6, r6, #4
.LVL516:
	str	r0, [r4, #52]
.LVL517:
.L1654:
	.loc 3 8022 0 is_stmt 1
	tst	r5, #16384
	beq	.L1655
	.loc 3 8022 0 is_stmt 0 discriminator 1
	mov	r0, r6
	bl	_ZL19CPUReadMemoryrealpuj
.LVL518:
	add	r6, r6, #4
.LVL519:
	str	r0, [r4, #56]
.L1655:
	.loc 3 8024 0 is_stmt 1
	mov	r0, r6
	bl	_ZL19CPUReadMemoryrealpuj
.LVL520:
	.loc 3 8027 0
	add	r0, r0, #4
	str	r0, [r4, #60]
	b	.L152
.LVL521:
.L337:
.LBE877:
.LBB878:
	.loc 3 7283 0
	and	r3, r5, #983040
	.loc 3 7284 0
	ldr	r6, [r4, r3, lsr #14]
	.loc 3 7286 0
	tst	r5, #1
	.loc 3 7284 0
	bic	r6, r6, #3
.LVL522:
	.loc 3 7286 0
	bne	.L5143
.LVL523:
.L1144:
	.loc 3 7287 0
	tst	r5, #2
	bne	.L5144
.L1145:
	.loc 3 7288 0
	tst	r5, #4
	bne	.L5145
.L1146:
	.loc 3 7289 0
	tst	r5, #8
	bne	.L5146
.L1152:
	.loc 3 7290 0
	tst	r5, #16
	bne	.L5147
.L1153:
	.loc 3 7291 0
	tst	r5, #32
	bne	.L5148
.L1154:
	.loc 3 7292 0
	tst	r5, #64
	bne	.L5149
.L1160:
	.loc 3 7293 0
	tst	r5, #128
	bne	.L5150
.L1161:
	.loc 3 7294 0
	ldr	r7, .L5453+12
	ldr	r3, [r7, #0]
	cmp	r3, #17
	beq	.L5151
	.loc 3 7301 0
	tst	r5, #256
	bne	.L5152
.L1173:
	.loc 3 7302 0
	tst	r5, #512
	bne	.L5153
.L1179:
	.loc 3 7303 0
	tst	r5, #1024
	bne	.L5154
.L1180:
	.loc 3 7304 0
	tst	r5, #2048
	bne	.L5155
.L1181:
	.loc 3 7305 0
	tst	r5, #4096
	bne	.L5156
.L1172:
	.loc 3 7307 0
	ldr	r3, [r7, #0]
	cmp	r3, #31
	cmpne	r3, #16
	beq	.L1182
	.loc 3 7308 0
	tst	r5, #8192
	beq	.L1454
.LBB879:
.LBB880:
	.loc 1 533 0 discriminator 1
	mov	r3, r6, lsr #24
	cmp	r3, #13
.LBE880:
.LBE879:
	.loc 3 7308 0 discriminator 1
	ldr	r7, [r4, #104]
.LVL524:
.LBB887:
.LBB883:
	.loc 1 533 0 discriminator 1
	beq	.L1186
	cmp	r3, #14
	beq	.L1187
	cmp	r3, #4
	beq	.L5157
.LVL525:
.L4967:
.LBE883:
.LBE887:
.LBE878:
.LBB939:
	.loc 3 7626 0 discriminator 1
	add	r6, r6, #4
.LVL526:
	b	.L1454
.LVL527:
.L339:
.LBE939:
.LBB940:
	.loc 3 7328 0
	ldr	r3, .L5453+8
	.loc 3 7329 0
	mov	r2, r5, lsr #8
	.loc 3 7325 0
	and	sl, r5, #983040
	.loc 3 7328 0
	and	r1, r5, #255
	.loc 3 7329 0
	and	r2, r2, #255
	ldrb	r9, [r3, r1]	@ zero_extendqisi2
	ldrb	r2, [r3, r2]	@ zero_extendqisi2
	.loc 3 7325 0
	mov	sl, sl, lsr #16
.LVL528:
	.loc 3 7326 0
	ldr	r3, [r4, sl, asl #2]
	.loc 3 7329 0
	add	r9, r9, r2
	.loc 3 7330 0
	ands	r8, r5, #1
	.loc 3 7326 0
	bic	r6, r3, #3
.LVL529:
	.loc 3 7329 0
	add	r9, r3, r9, asl #2
.LVL530:
	.loc 3 7330 0
	bne	.L5158
.LVL531:
.L1196:
	.loc 3 7331 0
	tst	r5, #2
	bne	.L5159
.LVL532:
.L1197:
	.loc 3 7332 0
	tst	r5, #4
	bne	.L5160
.LVL533:
.L1199:
	.loc 3 7333 0
	tst	r5, #8
	bne	.L5161
.LVL534:
.L1201:
	.loc 3 7334 0
	tst	r5, #16
	bne	.L5162
.LVL535:
.L1208:
	.loc 3 7335 0
	tst	r5, #32
	bne	.L5163
.LVL536:
.L1210:
	.loc 3 7336 0
	tst	r5, #64
	bne	.L5164
.LVL537:
.L1212:
	.loc 3 7337 0
	tst	r5, #128
	bne	.L5165
.LVL538:
.L1219:
	.loc 3 7338 0
	ldr	r7, .L5453+12
	ldr	r3, [r7, #0]
	cmp	r3, #17
	beq	.L5166
	.loc 3 7345 0
	tst	r5, #256
	bne	.L5167
.LVL539:
.L1237:
	.loc 3 7346 0
	tst	r5, #512
	bne	.L5168
.LVL540:
.L1244:
	.loc 3 7347 0
	tst	r5, #1024
	bne	.L5169
.LVL541:
.L1246:
	.loc 3 7348 0
	tst	r5, #2048
	bne	.L5170
.LVL542:
.L1248:
	.loc 3 7349 0
	tst	r5, #4096
	bne	.L5171
.LVL543:
.L1235:
	.loc 3 7351 0
	ldr	r3, [r7, #0]
	cmp	r3, #31
	cmpne	r3, #16
	beq	.L1251
	.loc 3 7352 0
	tst	r5, #8192
	beq	.L1252
	.loc 3 7352 0 is_stmt 0 discriminator 1
	mov	r0, r6
	ldr	r1, [r4, #104]
	bl	_ZL16CPUWriteMemorypujj
.LVL544:
	cmp	r8, #0
	streq	r9, [r4, sl, asl #2]
.LVL545:
	add	r6, r6, #4
.LVL546:
	mov	r8, #1
.LVL547:
.L1252:
	.loc 3 7353 0 is_stmt 1
	tst	r5, #16384
	bne	.L5172
.LVL548:
.L1254:
	.loc 3 7358 0
	tst	r5, #32768
	beq	.L152
	.loc 3 7359 0
	ldr	r1, [r4, #60]
	mov	r0, r6
	add	r1, r1, #4
	bl	_ZL16CPUWriteMemorypujj
.LVL549:
	.loc 3 7360 0
	cmp	r8, #0
	.loc 3 7361 0
	streq	r9, [r4, sl, asl #2]
	b	.L152
.LVL550:
.L336:
.LBE940:
.LBB981:
	.loc 3 7966 0
	and	r7, r5, #983040
	mov	r7, r7, lsr #16
.LVL551:
	.loc 3 7968 0
	ldr	r3, .L5453+8
	ldr	r8, [r4, r7, asl #2]
	mov	r2, r5, lsr #8
	and	r1, r5, #255
	and	r2, r2, #255
	.loc 3 7972 0
	tst	r5, #1
	.loc 3 7968 0
	ldrb	r9, [r3, r1]	@ zero_extendqisi2
	ldrb	sl, [r3, r2]	@ zero_extendqisi2
.LVL552:
	.loc 3 7969 0
	bic	r6, r8, #3
.LVL553:
	.loc 3 7972 0
	bne	.L5173
.LVL554:
.L1624:
	.loc 3 7973 0
	tst	r5, #2
	bne	.L5174
.L1625:
	.loc 3 7974 0
	tst	r5, #4
	bne	.L5175
.L1626:
	.loc 3 7975 0
	tst	r5, #8
	bne	.L5176
.L1627:
	.loc 3 7976 0
	tst	r5, #16
	bne	.L5177
.L1628:
	.loc 3 7977 0
	tst	r5, #32
	bne	.L5178
.L1629:
	.loc 3 7978 0
	tst	r5, #64
	bne	.L5179
.L1630:
	.loc 3 7979 0
	tst	r5, #128
	bne	.L5180
.L1631:
	.loc 3 7980 0
	tst	r5, #256
	bne	.L5181
.L1632:
	.loc 3 7981 0
	tst	r5, #512
	bne	.L5182
.L1633:
	.loc 3 7982 0
	tst	r5, #1024
	bne	.L5183
.L1634:
	.loc 3 7983 0
	tst	r5, #2048
	bne	.L5184
.L1635:
	.loc 3 7984 0
	tst	r5, #4096
	bne	.L5185
.L1636:
	.loc 3 7985 0
	tst	r5, #8192
	bne	.L5186
.L1637:
	.loc 3 7986 0
	tst	r5, #16384
	bne	.L5187
.L1638:
	.loc 3 7987 0
	tst	r5, #32768
	bne	.L5188
.L1639:
	.loc 3 7995 0
	mov	r3, #1
	ands	r3, r5, r3, asl r7
	.loc 3 7968 0
	addeq	sl, r9, sl
.LVL555:
	addeq	r8, r8, sl, asl #2
	.loc 3 7996 0
	streq	r8, [r4, r7, asl #2]
	b	.L152
.LVL556:
.L332:
.LBE981:
.LBB982:
	.loc 3 7852 0
	ldr	r3, .L5453+8
	mov	r1, r5, lsr #8
	.loc 3 7850 0
	and	r8, r5, #983040
	.loc 3 7852 0
	and	r2, r5, #255
	and	r1, r1, #255
	ldrb	r2, [r3, r2]	@ zero_extendqisi2
	.loc 3 7850 0
	mov	r8, r8, lsr #16
.LVL557:
	.loc 3 7852 0
	ldrb	r3, [r3, r1]	@ zero_extendqisi2
	ldr	sl, [r4, r8, asl #2]
	add	r3, r2, r3
	sub	sl, sl, r3, asl #2
.LVL558:
	.loc 3 7853 0
	add	r6, sl, #4
	.loc 3 7856 0
	tst	r5, #32768
	.loc 3 7853 0
	bic	r6, r6, #3
.LVL559:
	.loc 3 7856 0
	beq	.L1568
	.loc 3 7857 0
	tst	r5, #1
	beq	.L1569
	.loc 3 7857 0 is_stmt 0 discriminator 1
	mov	r0, r6
	bl	_ZL19CPUReadMemoryrealpuj
.LVL560:
	add	r6, r6, #4
.LVL561:
	str	r0, [r4, #0]
.LVL562:
.L1569:
	.loc 3 7858 0 is_stmt 1
	tst	r5, #2
	beq	.L1570
	.loc 3 7858 0 is_stmt 0 discriminator 1
	mov	r0, r6
	bl	_ZL19CPUReadMemoryrealpuj
.LVL563:
	add	r6, r6, #4
.LVL564:
	str	r0, [r4, #4]
.LVL565:
.L1570:
	.loc 3 7859 0 is_stmt 1
	tst	r5, #4
	beq	.L1571
	.loc 3 7859 0 is_stmt 0 discriminator 1
	mov	r0, r6
	bl	_ZL19CPUReadMemoryrealpuj
.LVL566:
	add	r6, r6, #4
.LVL567:
	str	r0, [r4, #8]
.LVL568:
.L1571:
	.loc 3 7860 0 is_stmt 1
	tst	r5, #8
	beq	.L1572
	.loc 3 7860 0 is_stmt 0 discriminator 1
	mov	r0, r6
	bl	_ZL19CPUReadMemoryrealpuj
.LVL569:
	add	r6, r6, #4
.LVL570:
	str	r0, [r4, #12]
.LVL571:
.L1572:
	.loc 3 7861 0 is_stmt 1
	tst	r5, #16
	beq	.L1573
	.loc 3 7861 0 is_stmt 0 discriminator 1
	mov	r0, r6
	bl	_ZL19CPUReadMemoryrealpuj
.LVL572:
	add	r6, r6, #4
.LVL573:
	str	r0, [r4, #16]
.LVL574:
.L1573:
	.loc 3 7862 0 is_stmt 1
	tst	r5, #32
	beq	.L1574
	.loc 3 7862 0 is_stmt 0 discriminator 1
	mov	r0, r6
	bl	_ZL19CPUReadMemoryrealpuj
.LVL575:
	add	r6, r6, #4
.LVL576:
	str	r0, [r4, #20]
.LVL577:
.L1574:
	.loc 3 7863 0 is_stmt 1
	tst	r5, #64
	beq	.L1575
	.loc 3 7863 0 is_stmt 0 discriminator 1
	mov	r0, r6
	bl	_ZL19CPUReadMemoryrealpuj
.LVL578:
	add	r6, r6, #4
.LVL579:
	str	r0, [r4, #24]
.LVL580:
.L1575:
	.loc 3 7864 0 is_stmt 1
	tst	r5, #128
	beq	.L1576
	.loc 3 7864 0 is_stmt 0 discriminator 1
	mov	r0, r6
	bl	_ZL19CPUReadMemoryrealpuj
.LVL581:
	add	r6, r6, #4
.LVL582:
	str	r0, [r4, #28]
.LVL583:
.L1576:
	.loc 3 7865 0 is_stmt 1
	tst	r5, #256
	beq	.L1577
	.loc 3 7865 0 is_stmt 0 discriminator 1
	mov	r0, r6
	bl	_ZL19CPUReadMemoryrealpuj
.LVL584:
	add	r6, r6, #4
.LVL585:
	str	r0, [r4, #32]
.LVL586:
.L1577:
	.loc 3 7866 0 is_stmt 1
	tst	r5, #512
	beq	.L1578
	.loc 3 7866 0 is_stmt 0 discriminator 1
	mov	r0, r6
	bl	_ZL19CPUReadMemoryrealpuj
.LVL587:
	add	r6, r6, #4
.LVL588:
	str	r0, [r4, #36]
.LVL589:
.L1578:
	.loc 3 7867 0 is_stmt 1
	tst	r5, #1024
	beq	.L1579
	.loc 3 7867 0 is_stmt 0 discriminator 1
	mov	r0, r6
	bl	_ZL19CPUReadMemoryrealpuj
.LVL590:
	add	r6, r6, #4
.LVL591:
	str	r0, [r4, #40]
.LVL592:
.L1579:
	.loc 3 7868 0 is_stmt 1
	tst	r5, #2048
	beq	.L1580
	.loc 3 7868 0 is_stmt 0 discriminator 1
	mov	r0, r6
	bl	_ZL19CPUReadMemoryrealpuj
.LVL593:
	add	r6, r6, #4
.LVL594:
	str	r0, [r4, #44]
.LVL595:
.L1580:
	.loc 3 7869 0 is_stmt 1
	tst	r5, #4096
	beq	.L1581
	.loc 3 7869 0 is_stmt 0 discriminator 1
	mov	r0, r6
	bl	_ZL19CPUReadMemoryrealpuj
.LVL596:
	add	r6, r6, #4
.LVL597:
	str	r0, [r4, #48]
.LVL598:
.L1581:
	.loc 3 7870 0 is_stmt 1
	tst	r5, #8192
	beq	.L1582
	.loc 3 7870 0 is_stmt 0 discriminator 1
	mov	r0, r6
	bl	_ZL19CPUReadMemoryrealpuj
.LVL599:
	add	r6, r6, #4
.LVL600:
	str	r0, [r4, #52]
.LVL601:
.L1582:
	.loc 3 7871 0 is_stmt 1
	tst	r5, #16384
	beq	.L1583
	.loc 3 7871 0 is_stmt 0 discriminator 1
	mov	r0, r6
	bl	_ZL19CPUReadMemoryrealpuj
.LVL602:
	add	r6, r6, #4
.LVL603:
	str	r0, [r4, #56]
.L1583:
	.loc 3 7873 0 is_stmt 1
	mov	r0, r6
	bl	_ZL19CPUReadMemoryrealpuj
.LVL604:
	.loc 3 7875 0
	mov	r3, #1
	ands	r3, r5, r3, asl r8
	.loc 3 7873 0
	str	r0, [r4, #60]
	.loc 3 7876 0
	streq	sl, [r4, r8, asl #2]
	.loc 3 7879 0
	ldr	r3, [r4, #60]
	add	r3, r3, #4
	str	r3, [r4, #60]
	b	.L152
.LVL605:
.L331:
.LBE982:
.LBB983:
	.loc 3 7171 0
	ldr	r3, .L5453+8
	mov	r1, r5, lsr #8
	.loc 3 7169 0
	and	sl, r5, #983040
	.loc 3 7171 0
	and	r2, r5, #255
	and	r1, r1, #255
	ldrb	r2, [r3, r2]	@ zero_extendqisi2
	.loc 3 7169 0
	mov	sl, sl, lsr #16
.LVL606:
	.loc 3 7171 0
	ldrb	r3, [r3, r1]	@ zero_extendqisi2
	ldr	r9, [r4, sl, asl #2]
	add	r3, r2, r3
	sub	r9, r9, r3, asl #2
.LVL607:
	.loc 3 7172 0
	add	r2, r9, #4
	.loc 3 7175 0
	ands	r8, r5, #1
	.loc 3 7172 0
	bic	r6, r2, #3
.LVL608:
	.loc 3 7175 0
	bne	.L5189
.LVL609:
.L997:
	.loc 3 7176 0
	tst	r5, #2
	bne	.L5190
.LVL610:
.L1003:
	.loc 3 7177 0
	tst	r5, #4
	bne	.L5191
.LVL611:
.L1005:
	.loc 3 7178 0
	tst	r5, #8
	bne	.L5192
.LVL612:
.L1012:
	.loc 3 7179 0
	tst	r5, #16
	bne	.L5193
.LVL613:
.L1019:
	.loc 3 7180 0
	tst	r5, #32
	bne	.L5194
.LVL614:
.L1021:
	.loc 3 7181 0
	tst	r5, #64
	bne	.L5195
.LVL615:
.L1028:
	.loc 3 7182 0
	tst	r5, #128
	bne	.L5196
.L1030:
	.loc 3 7184 0
	ldr	r7, .L5453+12
	ldr	r3, [r7, #0]
	cmp	r3, #17
	beq	.L5197
	.loc 3 7191 0
	tst	r5, #256
	bne	.L5198
.L1048:
	.loc 3 7192 0
	tst	r5, #512
	bne	.L5199
.L1050:
	.loc 3 7193 0
	tst	r5, #1024
	bne	.L5200
.L1052:
	.loc 3 7194 0
	tst	r5, #2048
	bne	.L5201
.L1054:
	.loc 3 7195 0
	tst	r5, #4096
	bne	.L5202
.L1046:
	.loc 3 7198 0
	ldr	r3, [r7, #0]
	cmp	r3, #31
	cmpne	r3, #16
	beq	.L1057
	.loc 3 7199 0
	tst	r5, #8192
	beq	.L1058
	.loc 3 7199 0 is_stmt 0 discriminator 1
	mov	r0, r6
	ldr	r1, [r4, #104]
	bl	_ZL16CPUWriteMemorypujj
.LVL616:
	cmp	r8, #0
	streq	r9, [r4, sl, asl #2]
.LVL617:
	moveq	r8, #1
.LVL618:
	add	r6, r6, #4
.LVL619:
.L1058:
	.loc 3 7200 0 is_stmt 1
	tst	r5, #16384
	bne	.L5203
.LVL620:
.L1060:
	.loc 3 7206 0
	tst	r5, #32768
	beq	.L152
	.loc 3 7207 0
	ldr	r1, [r4, #60]
	mov	r0, r6
	add	r1, r1, #4
	bl	_ZL16CPUWriteMemorypujj
.LVL621:
	.loc 3 7209 0
	str	r9, [r4, sl, asl #2]
	b	.L152
.LVL622:
.L330:
.LBE983:
.LBB1033:
	.loc 3 7776 0
	ldr	r3, .L5453+8
	mov	r1, r5, lsr #8
	.loc 3 7774 0
	and	r0, r5, #983040
	.loc 3 7776 0
	and	r2, r5, #255
	and	r1, r1, #255
	ldrb	r2, [r3, r2]	@ zero_extendqisi2
	ldr	r6, [r4, r0, lsr #14]
	ldrb	r3, [r3, r1]	@ zero_extendqisi2
	add	r6, r6, #4
	add	r3, r2, r3
	.loc 3 7777 0
	sub	r6, r6, r3, asl #2
	.loc 3 7780 0
	tst	r5, #32768
	.loc 3 7777 0
	bic	r6, r6, #3
.LVL623:
	.loc 3 7780 0
	beq	.L1531
	.loc 3 7781 0
	tst	r5, #1
	beq	.L1532
	.loc 3 7781 0 is_stmt 0 discriminator 1
	mov	r0, r6
	bl	_ZL19CPUReadMemoryrealpuj
.LVL624:
	add	r6, r6, #4
.LVL625:
	str	r0, [r4, #0]
.LVL626:
.L1532:
	.loc 3 7782 0 is_stmt 1
	tst	r5, #2
	beq	.L1533
	.loc 3 7782 0 is_stmt 0 discriminator 1
	mov	r0, r6
	bl	_ZL19CPUReadMemoryrealpuj
.LVL627:
	add	r6, r6, #4
.LVL628:
	str	r0, [r4, #4]
.LVL629:
.L1533:
	.loc 3 7783 0 is_stmt 1
	tst	r5, #4
	beq	.L1534
	.loc 3 7783 0 is_stmt 0 discriminator 1
	mov	r0, r6
	bl	_ZL19CPUReadMemoryrealpuj
.LVL630:
	add	r6, r6, #4
.LVL631:
	str	r0, [r4, #8]
.LVL632:
.L1534:
	.loc 3 7784 0 is_stmt 1
	tst	r5, #8
	beq	.L1535
	.loc 3 7784 0 is_stmt 0 discriminator 1
	mov	r0, r6
	bl	_ZL19CPUReadMemoryrealpuj
.LVL633:
	add	r6, r6, #4
.LVL634:
	str	r0, [r4, #12]
.LVL635:
.L1535:
	.loc 3 7785 0 is_stmt 1
	tst	r5, #16
	beq	.L1536
	.loc 3 7785 0 is_stmt 0 discriminator 1
	mov	r0, r6
	bl	_ZL19CPUReadMemoryrealpuj
.LVL636:
	add	r6, r6, #4
.LVL637:
	str	r0, [r4, #16]
.LVL638:
.L1536:
	.loc 3 7786 0 is_stmt 1
	tst	r5, #32
	beq	.L1537
	.loc 3 7786 0 is_stmt 0 discriminator 1
	mov	r0, r6
	bl	_ZL19CPUReadMemoryrealpuj
.LVL639:
	add	r6, r6, #4
.LVL640:
	str	r0, [r4, #20]
.LVL641:
.L1537:
	.loc 3 7787 0 is_stmt 1
	tst	r5, #64
	beq	.L1538
	.loc 3 7787 0 is_stmt 0 discriminator 1
	mov	r0, r6
	bl	_ZL19CPUReadMemoryrealpuj
.LVL642:
	add	r6, r6, #4
.LVL643:
	str	r0, [r4, #24]
.LVL644:
.L1538:
	.loc 3 7788 0 is_stmt 1
	tst	r5, #128
	beq	.L1539
	.loc 3 7788 0 is_stmt 0 discriminator 1
	mov	r0, r6
	bl	_ZL19CPUReadMemoryrealpuj
.LVL645:
	add	r6, r6, #4
.LVL646:
	str	r0, [r4, #28]
.LVL647:
.L1539:
	.loc 3 7789 0 is_stmt 1
	tst	r5, #256
	beq	.L1540
	.loc 3 7789 0 is_stmt 0 discriminator 1
	mov	r0, r6
	bl	_ZL19CPUReadMemoryrealpuj
.LVL648:
	add	r6, r6, #4
.LVL649:
	str	r0, [r4, #32]
.LVL650:
.L1540:
	.loc 3 7790 0 is_stmt 1
	tst	r5, #512
	beq	.L1541
	.loc 3 7790 0 is_stmt 0 discriminator 1
	mov	r0, r6
	bl	_ZL19CPUReadMemoryrealpuj
.LVL651:
	add	r6, r6, #4
.LVL652:
	str	r0, [r4, #36]
.LVL653:
.L1541:
	.loc 3 7791 0 is_stmt 1
	tst	r5, #1024
	beq	.L1542
	.loc 3 7791 0 is_stmt 0 discriminator 1
	mov	r0, r6
	bl	_ZL19CPUReadMemoryrealpuj
.LVL654:
	add	r6, r6, #4
.LVL655:
	str	r0, [r4, #40]
.LVL656:
.L1542:
	.loc 3 7792 0 is_stmt 1
	tst	r5, #2048
	beq	.L1543
	.loc 3 7792 0 is_stmt 0 discriminator 1
	mov	r0, r6
	bl	_ZL19CPUReadMemoryrealpuj
.LVL657:
	add	r6, r6, #4
.LVL658:
	str	r0, [r4, #44]
.LVL659:
.L1543:
	.loc 3 7793 0 is_stmt 1
	tst	r5, #4096
	beq	.L1544
	.loc 3 7793 0 is_stmt 0 discriminator 1
	mov	r0, r6
	bl	_ZL19CPUReadMemoryrealpuj
.LVL660:
	add	r6, r6, #4
.LVL661:
	str	r0, [r4, #48]
.LVL662:
.L1544:
	.loc 3 7794 0 is_stmt 1
	tst	r5, #8192
	beq	.L1545
	.loc 3 7794 0 is_stmt 0 discriminator 1
	mov	r0, r6
	bl	_ZL19CPUReadMemoryrealpuj
.LVL663:
	add	r6, r6, #4
.LVL664:
	str	r0, [r4, #52]
.LVL665:
.L1545:
	.loc 3 7795 0 is_stmt 1
	tst	r5, #16384
	beq	.L1546
	.loc 3 7795 0 is_stmt 0 discriminator 1
	mov	r0, r6
	bl	_ZL19CPUReadMemoryrealpuj
.LVL666:
	add	r6, r6, #4
.LVL667:
	str	r0, [r4, #56]
.L1546:
	.loc 3 7797 0 is_stmt 1
	mov	r0, r6
	bl	_ZL19CPUReadMemoryrealpuj
.LVL668:
	.loc 3 7799 0
	add	r0, r0, #4
	str	r0, [r4, #60]
	b	.L152
.LVL669:
.L334:
.LBE1033:
.LBB1034:
	.loc 3 7932 0
	and	r3, r5, #983040
	.loc 3 7933 0
	ldr	r6, [r4, r3, lsr #14]
	.loc 3 7936 0
	tst	r5, #1
	.loc 3 7933 0
	bic	r6, r6, #3
.LVL670:
	.loc 3 7936 0
	bne	.L5204
.LVL671:
.L1609:
	.loc 3 7937 0
	tst	r5, #2
	bne	.L5205
.L1610:
	.loc 3 7938 0
	tst	r5, #4
	bne	.L5206
.L1611:
	.loc 3 7939 0
	tst	r5, #8
	bne	.L5207
.L1612:
	.loc 3 7940 0
	tst	r5, #16
	bne	.L5208
.L1613:
	.loc 3 7941 0
	tst	r5, #32
	bne	.L5209
.L1614:
	.loc 3 7942 0
	tst	r5, #64
	bne	.L5210
.L1615:
	.loc 3 7943 0
	tst	r5, #128
	bne	.L5211
.L1616:
	.loc 3 7944 0
	tst	r5, #256
	bne	.L5212
.L1617:
	.loc 3 7945 0
	tst	r5, #512
	bne	.L5213
.L1618:
	.loc 3 7946 0
	tst	r5, #1024
	bne	.L5214
.L1619:
	.loc 3 7947 0
	tst	r5, #2048
	bne	.L5215
.L1620:
	.loc 3 7948 0
	tst	r5, #4096
	bne	.L5216
.L1621:
	.loc 3 7949 0
	tst	r5, #8192
	bne	.L5217
.L1622:
	.loc 3 7950 0
	tst	r5, #16384
	bne	.L5218
.L1623:
	.loc 3 7951 0
	tst	r5, #32768
	beq	.L152
	.loc 3 7952 0
	mov	r0, r6
	bl	_ZL19CPUReadMemoryrealpuj
.LVL672:
	.loc 3 7955 0
	add	r0, r0, #4
	str	r0, [r4, #60]
	b	.L152
.LVL673:
.L333:
.LBE1034:
.LBB1035:
	.loc 3 7219 0
	and	r3, r5, #983040
	.loc 3 7220 0
	ldr	r6, [r4, r3, lsr #14]
	.loc 3 7222 0
	tst	r5, #1
	.loc 3 7220 0
	bic	r6, r6, #3
.LVL674:
	.loc 3 7222 0
	bne	.L5219
.LVL675:
.L1065:
	.loc 3 7223 0
	tst	r5, #2
	bne	.L5220
.L1066:
	.loc 3 7224 0
	tst	r5, #4
	bne	.L5221
.L1067:
	.loc 3 7225 0
	tst	r5, #8
	bne	.L5222
.L1068:
	.loc 3 7226 0
	tst	r5, #16
	bne	.L5223
.L1069:
	.loc 3 7227 0
	tst	r5, #32
	bne	.L5224
.L1070:
	.loc 3 7228 0
	tst	r5, #64
	bne	.L5225
.L1076:
	.loc 3 7229 0
	tst	r5, #128
	bne	.L5226
.L1077:
	.loc 3 7230 0
	tst	r5, #256
	bne	.L5227
.L1078:
	.loc 3 7231 0
	tst	r5, #512
	bne	.L5228
.L1079:
	.loc 3 7232 0
	tst	r5, #1024
	bne	.L5229
.L1080:
	.loc 3 7233 0
	tst	r5, #2048
	bne	.L5230
.L1086:
	.loc 3 7234 0
	tst	r5, #4096
	bne	.L5231
.L1087:
	.loc 3 7235 0
	tst	r5, #8192
	bne	.L5232
.LVL676:
.L1456:
.LBE1035:
.LBB1065:
	.loc 3 7630 0
	tst	r5, #16384
	beq	.L1455
	.loc 3 7630 0 is_stmt 0 discriminator 1
	mov	r0, r6
	ldr	r1, [r4, #56]
	bl	_ZL16CPUWriteMemorypujj
.LVL677:
.L4957:
	add	r6, r6, #4
.LVL678:
	b	.L1455
.LVL679:
.L335:
.LBE1065:
.LBB1066:
	.loc 3 7251 0 is_stmt 1
	ldr	r3, .L5453+8
	.loc 3 7252 0
	mov	r2, r5, lsr #8
	.loc 3 7248 0
	and	r8, r5, #983040
	.loc 3 7251 0
	and	r1, r5, #255
	.loc 3 7252 0
	and	r2, r2, #255
	ldrb	sl, [r3, r1]	@ zero_extendqisi2
	ldrb	r2, [r3, r2]	@ zero_extendqisi2
	.loc 3 7248 0
	mov	r8, r8, lsr #16
.LVL680:
	.loc 3 7249 0
	ldr	r3, [r4, r8, asl #2]
	.loc 3 7252 0
	add	sl, sl, r2
	.loc 3 7253 0
	ands	r7, r5, #1
	.loc 3 7249 0
	bic	r6, r3, #3
.LVL681:
	.loc 3 7252 0
	add	sl, r3, sl, asl #2
.LVL682:
	.loc 3 7253 0
	bne	.L5233
.LVL683:
.L1095:
	.loc 3 7254 0
	tst	r5, #2
	bne	.L5234
.LVL684:
.L1096:
	.loc 3 7255 0
	tst	r5, #4
	bne	.L5235
.LVL685:
.L1098:
	.loc 3 7256 0
	tst	r5, #8
	bne	.L5236
.LVL686:
.L1105:
	.loc 3 7257 0
	tst	r5, #16
	bne	.L5237
.LVL687:
.L1107:
	.loc 3 7258 0
	tst	r5, #32
	bne	.L5238
.LVL688:
.L1109:
	.loc 3 7259 0
	tst	r5, #64
	bne	.L5239
.LVL689:
.L1116:
	.loc 3 7260 0
	tst	r5, #128
	bne	.L5240
.LVL690:
.L1118:
	.loc 3 7261 0
	tst	r5, #256
	bne	.L5241
.LVL691:
.L1120:
	.loc 3 7262 0
	tst	r5, #512
	bne	.L5242
.LVL692:
.L1122:
	.loc 3 7263 0
	tst	r5, #1024
	bne	.L5243
.LVL693:
.L1124:
	.loc 3 7264 0
	tst	r5, #2048
	bne	.L5244
.LVL694:
.L1131:
	.loc 3 7265 0
	tst	r5, #4096
	bne	.L5245
.LVL695:
.L1133:
	.loc 3 7266 0
	tst	r5, #8192
	bne	.L5246
.LVL696:
.L1135:
	.loc 3 7267 0
	tst	r5, #16384
	bne	.L5247
.LVL697:
.L1142:
	.loc 3 7268 0
	tst	r5, #32768
	beq	.L152
	.loc 3 7269 0
	ldr	r1, [r4, #60]
	mov	r0, r6
	add	r1, r1, #4
	bl	_ZL16CPUWriteMemorypujj
.LVL698:
	.loc 3 7270 0
	cmp	r7, #0
	.loc 3 7271 0
	streq	sl, [r4, r8, asl #2]
	b	.L152
.LVL699:
.L329:
.LBE1066:
.LBB1107:
	.loc 3 7123 0
	ldr	r3, .L5453+8
	mov	r1, r5, lsr #8
	.loc 3 7121 0
	and	r0, r5, #983040
	.loc 3 7123 0
	and	r2, r5, #255
	and	r1, r1, #255
	ldrb	r2, [r3, r2]	@ zero_extendqisi2
	ldr	r8, [r4, r0, lsr #14]
	ldrb	r3, [r3, r1]	@ zero_extendqisi2
	add	r8, r8, #4
	add	r3, r2, r3
	.loc 3 7124 0
	sub	r8, r8, r3, asl #2
	.loc 3 7127 0
	tst	r5, #1
	.loc 3 7124 0
	bic	r6, r8, #3
.LVL700:
	.loc 3 7127 0
	bne	.L5248
.LVL701:
.L882:
	.loc 3 7128 0
	tst	r5, #2
	bne	.L5249
.L888:
	.loc 3 7129 0
	tst	r5, #4
	bne	.L5250
.L894:
	.loc 3 7130 0
	tst	r5, #8
	bne	.L5251
.L900:
	.loc 3 7131 0
	tst	r5, #16
	bne	.L5252
.L901:
	.loc 3 7132 0
	tst	r5, #32
	bne	.L5253
.L907:
	.loc 3 7133 0
	tst	r5, #64
	bne	.L5254
.L913:
	.loc 3 7134 0
	tst	r5, #128
	bne	.L5255
.L919:
	.loc 3 7136 0
	ldr	r7, .L5453+12
	ldr	r3, [r7, #0]
	cmp	r3, #17
	beq	.L5256
.L946:
.L950:
	.loc 3 7143 0
	tst	r5, #256
	bne	.L5257
.L951:
	.loc 3 7144 0
	tst	r5, #512
	bne	.L5258
.L957:
	.loc 3 7145 0
	tst	r5, #1024
	bne	.L5259
.L963:
	.loc 3 7146 0
	tst	r5, #2048
	bne	.L5260
.L969:
	.loc 3 7147 0
	tst	r5, #4096
	bne	.L5261
.L945:
	.loc 3 7150 0
	ldr	r3, [r7, #0]
	cmp	r3, #31
	cmpne	r3, #16
	beq	.L975
	.loc 3 7151 0
	tst	r5, #8192
	bne	.L5262
.L976:
	.loc 3 7152 0
	tst	r5, #16384
	beq	.L982
	.loc 3 7152 0 is_stmt 0 discriminator 1
	mov	r0, r6
	ldr	r1, [r4, #108]
	bl	_ZL16CPUWriteMemorypujj
.LVL702:
	add	r6, r6, #4
.LVL703:
.L982:
	.loc 3 7158 0 is_stmt 1
	tst	r5, #32768
	beq	.L152
	.loc 3 7159 0
	ldr	r4, [r4, #60]
.LVL704:
.LBB1108:
.LBB1109:
	.loc 1 533 0
	mov	r3, r6, lsr #24
	cmp	r3, #13
.LBE1109:
.LBE1108:
	.loc 3 7159 0
	add	r4, r4, #4
.LVL705:
.LBB1113:
.LBB1110:
	.loc 1 533 0
	beq	.L1389
	cmp	r3, #14
	bne	.L4953
.LBE1110:
	.loc 1 596 0
	ldr	r3, .L5453+16
	ldrb	r1, [r3, #0]	@ zero_extendqisi2
	ldr	r3, .L5453+20
	ldrb	r2, [r3, #0]	@ zero_extendqisi2
.LBB1111:
	ldr	r3, .L5453+24
.LBE1111:
	orr	r2, r1, r2
.LBB1112:
	ldrb	r3, [r3, #0]	@ zero_extendqisi2
	eor	r3, r3, #1
	orrs	r3, r2, r3
	beq	.L152
	.loc 1 597 0
	ldr	r3, .L5453+28
	and	r1, r4, #255
	ldr	r3, [r3, #0]
	mov	r0, r6
	blx	r3
.LVL706:
	b	.L152
.LVL707:
.L216:
.LBE1112:
.LBE1113:
.LBE1107:
.LBB1295:
	.loc 3 4592 0
	and	r6, r3, #15
	.loc 3 4593 0
	ldr	r7, [r4, r6, asl #2]
	.loc 3 4590 0
	mov	r3, r5, asl #20
	.loc 3 4593 0
	sub	r7, r7, r3, lsr #20
	.loc 3 4594 0
	mov	r0, r7
	bl	_ZL19CPUReadMemoryrealpuj
.LVL708:
	.loc 3 4591 0
	mov	r5, r5, lsr #12
.LVL709:
.LBE1295:
	and	r5, r5, #15
.LVL710:
.LBB1296:
	.loc 3 4595 0
	cmp	r5, r6
	.loc 3 4594 0
	str	r0, [r4, r5, asl #2]
	.loc 3 4596 0
	strne	r7, [r4, r6, asl #2]
	.loc 3 4598 0
	cmp	r5, #15
	.loc 3 4599 0
	ldreq	r3, [r4, #60]
	biceq	r3, r3, #3
	.loc 3 4601 0
	addeq	r3, r3, #4
	streq	r3, [r4, #60]
	b	.L152
.LVL711:
.L215:
.LBE1296:
.LBB1297:
	.loc 3 4456 0
	and	r3, r3, #15
.LVL712:
	.loc 3 4457 0
	ldr	r0, [r4, r3, asl #2]
	.loc 3 4454 0
	mov	r2, r5, asl #20
	.loc 3 4457 0
	sub	r0, r0, r2, lsr #20
.LVL713:
	.loc 3 4455 0
	mov	r5, r5, lsr #12
.LVL714:
.LBB1298:
.LBB1299:
	.loc 1 533 0
	mov	r2, r0, lsr #24
.LBE1299:
.LBE1298:
	.loc 3 4458 0
	str	r0, [r4, r3, asl #2]
.LBB1304:
.LBB1300:
	.loc 1 533 0
	cmp	r2, #13
.LBE1300:
.LBE1304:
	.loc 3 4455 0
	and	r3, r5, #15
.LVL715:
	.loc 3 4459 0
	ldr	r4, [r4, r3, asl #2]
.LVL716:
.LBB1305:
.LBB1301:
	.loc 1 533 0
	beq	.L668
	cmp	r2, #14
	bne	.L4931
.LBE1301:
	.loc 1 596 0
	ldr	r3, .L5453+16
.LVL717:
	ldrb	r1, [r3, #0]	@ zero_extendqisi2
	ldr	r3, .L5453+20
	ldrb	r2, [r3, #0]	@ zero_extendqisi2
.LBB1302:
	ldr	r3, .L5453+24
.LBE1302:
	orr	r2, r1, r2
.LBB1303:
	ldrb	r3, [r3, #0]	@ zero_extendqisi2
	eor	r3, r3, #1
	orrs	r3, r2, r3
	beq	.L152
	.loc 1 597 0
	ldr	r3, .L5453+28
	and	r1, r4, #255
	ldr	r3, [r3, #0]
	blx	r3
.LVL718:
	b	.L152
.LVL719:
.L214:
.LBE1303:
.LBE1305:
.LBE1297:
.LBB1306:
	.loc 3 4574 0
	and	r3, r3, #15
	.loc 3 4575 0
	ldr	r0, [r4, r3, asl #2]
	.loc 3 4572 0
	mov	r3, r5, asl #20
	.loc 3 4576 0
	sub	r0, r0, r3, lsr #20
	bl	_ZL19CPUReadMemoryrealpuj
.LVL720:
	.loc 3 4573 0
	mov	r5, r5, lsr #12
.LVL721:
.LBE1306:
	and	r5, r5, #15
.LVL722:
.LBB1307:
	.loc 3 4578 0
	cmp	r5, #15
	.loc 3 4576 0
	str	r0, [r4, r5, asl #2]
	.loc 3 4578 0
	.loc 3 4579 0
	ldreq	r3, [r4, #60]
	biceq	r3, r3, #3
	.loc 3 4581 0
	addeq	r3, r3, #4
	streq	r3, [r4, #60]
	b	.L152
.LVL723:
.L213:
.LBE1307:
.LBB1308:
	.loc 3 4444 0
	and	r3, r3, #15
.LVL724:
	.loc 3 4445 0
	ldr	r0, [r4, r3, asl #2]
	.loc 3 4442 0
	mov	r3, r5, asl #20
.LVL725:
	.loc 3 4445 0
	sub	r0, r0, r3, lsr #20
.LVL726:
	.loc 3 4443 0
	mov	r2, r5, lsr #12
.LBB1309:
.LBB1310:
	.loc 1 533 0
	mov	r3, r0, lsr #24
.LBE1310:
.LBE1309:
	.loc 3 4443 0
	and	r2, r2, #15
.LVL727:
.LBB1315:
.LBB1311:
	.loc 1 533 0
	cmp	r3, #13
.LBE1311:
.LBE1315:
	.loc 3 4446 0
	ldr	r4, [r4, r2, asl #2]
.LVL728:
.LBB1316:
.LBB1312:
	.loc 1 533 0
	beq	.L668
	cmp	r3, #14
	beq	.L420
.LVL729:
.L4929:
.LBE1312:
.LBE1316:
.LBE1308:
.LBB1318:
.LBB1319:
.LBB1320:
	cmp	r3, #4
	bne	.L152
	b	.L4870
.LVL730:
.L212:
.LBE1320:
.LBE1319:
.LBE1318:
.LBB1329:
	.loc 3 6302 0
	and	r6, r3, #15
	.loc 3 6304 0
	ldr	r0, [r4, r6, asl #2]
	bl	_ZL17CPUReadByterealpuj
.LVL731:
.LBE1329:
	.loc 3 6300 0
	mov	r7, r5, asl #20
.LBB1330:
	.loc 3 6301 0
	mov	r5, r5, lsr #12
.LVL732:
.LBE1330:
	and	r5, r5, #15
.LBB1331:
	.loc 3 6305 0
	cmp	r5, r6
	.loc 3 6304 0
	str	r0, [r4, r5, asl #2]
	.loc 3 6306 0
	ldrne	r3, [r4, r6, asl #2]
.LBE1331:
	.loc 3 6300 0
	mov	r7, r7, lsr #20
.LVL733:
.LBB1332:
	.loc 3 6306 0
	addne	r7, r3, r7
.LVL734:
	strne	r7, [r4, r6, asl #2]
	.loc 3 6308 0
	cmp	r5, #15
	.loc 3 6309 0
	ldreq	r3, [r4, #60]
	biceq	r3, r3, #3
	.loc 3 6311 0
	addeq	r3, r3, #4
	streq	r3, [r4, #60]
	b	.L152
.LVL735:
.L210:
.LBE1332:
.LBB1333:
	.loc 3 4554 0
	and	r6, r3, #15
	.loc 3 4556 0
	ldr	r0, [r4, r6, asl #2]
	bl	_ZL19CPUReadMemoryrealpuj
.LVL736:
.LBE1333:
	.loc 3 4552 0
	mov	r7, r5, asl #20
.LBB1334:
	.loc 3 4553 0
	mov	r5, r5, lsr #12
.LVL737:
.LBE1334:
	and	r5, r5, #15
.LBB1335:
	.loc 3 4557 0
	cmp	r5, r6
	.loc 3 4556 0
	str	r0, [r4, r5, asl #2]
	.loc 3 4558 0
	ldrne	r3, [r4, r6, asl #2]
.LBE1335:
	.loc 3 4552 0
	mov	r7, r7, lsr #20
.LVL738:
.LBB1336:
	.loc 3 4558 0
	addne	r7, r3, r7
.LVL739:
	strne	r7, [r4, r6, asl #2]
	.loc 3 4560 0
	cmp	r5, #15
	.loc 3 4561 0
	ldreq	r3, [r4, #60]
	biceq	r3, r3, #3
	.loc 3 4563 0
	addeq	r3, r3, #4
	streq	r3, [r4, #60]
	b	.L152
.LVL740:
.L209:
.LBE1336:
.LBB1337:
	.loc 3 4534 0
	and	r6, r3, #15
	.loc 3 4536 0
	ldr	r0, [r4, r6, asl #2]
	bl	_ZL19CPUReadMemoryrealpuj
.LVL741:
.LBE1337:
	.loc 3 4532 0
	mov	r7, r5, asl #20
.LBB1338:
	.loc 3 4533 0
	mov	r5, r5, lsr #12
.LVL742:
.LBE1338:
	and	r5, r5, #15
.LBB1339:
	.loc 3 4537 0
	cmp	r5, r6
	.loc 3 4536 0
	str	r0, [r4, r5, asl #2]
	.loc 3 4538 0
	ldrne	r3, [r4, r6, asl #2]
.LBE1339:
	.loc 3 4532 0
	mov	r7, r7, lsr #20
.LVL743:
.LBB1340:
	.loc 3 4538 0
	addne	r7, r3, r7
.LVL744:
	strne	r7, [r4, r6, asl #2]
	.loc 3 4540 0
	cmp	r5, #15
	.loc 3 4541 0
	ldreq	r3, [r4, #60]
	biceq	r3, r3, #3
	.loc 3 4543 0
	addeq	r3, r3, #4
	streq	r3, [r4, #60]
	b	.L152
.LVL745:
.L211:
.LBE1340:
.LBB1341:
	.loc 3 4667 0
	and	r6, r3, #15
.LVL746:
	.loc 3 4668 0
	ldr	r7, [r4, r6, asl #2]
.LVL747:
	.loc 3 4666 0
	mov	r3, r5, lsr #12
	and	r3, r3, #15
.LVL748:
	.loc 3 4665 0
	mov	r5, r5, asl #20
.LVL749:
	.loc 3 4669 0
	mov	r0, r7
	ldrb	r1, [r4, r3, asl #2]	@ zero_extendqisi2
	.loc 3 4670 0
	add	r7, r7, r5, lsr #20
.LVL750:
	.loc 3 4669 0
	bl	_ZL14CPUWriteBytepujh
.LVL751:
	.loc 3 4670 0
	str	r7, [r4, r6, asl #2]
.LBE1341:
	.loc 3 4673 0
	b	.L152
.LVL752:
.L208:
.LBB1342:
	.loc 3 4431 0
	and	r7, r3, #15
	.loc 3 4432 0
	ldr	r6, [r4, r7, asl #2]
	.loc 3 4430 0
	mov	r3, r5, lsr #12
.LBB1343:
.LBB1344:
	.loc 1 533 0
	mov	r2, r6, lsr #24
.LBE1344:
.LBE1343:
.LBE1342:
	.loc 3 4429 0
	mov	r5, r5, asl #20
.LVL753:
.LBB1356:
	.loc 3 4430 0
	and	r3, r3, #15
.LBB1352:
.LBB1347:
	.loc 1 533 0
	cmp	r2, #13
.LBE1347:
.LBE1352:
.LBE1356:
	.loc 3 4429 0
	mov	sl, r5, lsr #20
.LVL754:
.LBB1357:
	.loc 3 4433 0
	ldr	r5, [r4, r3, asl #2]
.LVL755:
.LBB1353:
.LBB1348:
	.loc 1 533 0
	beq	.L415
	cmp	r2, #14
	beq	.L416
	cmp	r2, #4
	beq	.L5263
.L417:
.LBE1348:
.LBE1353:
	.loc 3 4434 0
	add	r6, sl, r6
.LVL756:
	str	r6, [r4, r7, asl #2]
.LBE1357:
	.loc 3 4437 0
	b	.L152
.LVL757:
.L207:
.LBB1358:
	.loc 3 6279 0
	and	r6, r3, #15
	.loc 3 6281 0
	ldr	r0, [r4, r6, asl #2]
	bl	_ZL17CPUReadByterealpuj
.LVL758:
.LBE1358:
	.loc 3 6277 0
	mov	r7, r5, asl #20
.LBB1359:
	.loc 3 6278 0
	mov	r5, r5, lsr #12
.LVL759:
.LBE1359:
	and	r5, r5, #15
.LBB1360:
	.loc 3 6282 0
	cmp	r5, r6
	.loc 3 6281 0
	str	r0, [r4, r5, asl #2]
	.loc 3 6283 0
	ldrne	r3, [r4, r6, asl #2]
.LBE1360:
	.loc 3 6277 0
	mov	r7, r7, lsr #20
.LVL760:
.LBB1361:
	.loc 3 6283 0
	rsbne	r7, r7, r3
.LVL761:
	strne	r7, [r4, r6, asl #2]
	.loc 3 6285 0
	cmp	r5, #15
	.loc 3 6286 0
	ldreq	r3, [r4, #60]
	biceq	r3, r3, #3
	.loc 3 6288 0
	addeq	r3, r3, #4
	streq	r3, [r4, #60]
	b	.L152
.LVL762:
.L206:
.LBE1361:
.LBB1362:
	.loc 3 4652 0
	and	r6, r3, #15
.LVL763:
	.loc 3 4653 0
	ldr	r7, [r4, r6, asl #2]
.LVL764:
	.loc 3 4651 0
	mov	r3, r5, lsr #12
	and	r3, r3, #15
.LVL765:
	.loc 3 4650 0
	mov	r5, r5, asl #20
.LVL766:
	.loc 3 4654 0
	mov	r0, r7
	ldrb	r1, [r4, r3, asl #2]	@ zero_extendqisi2
	.loc 3 4655 0
	sub	r7, r7, r5, lsr #20
.LVL767:
	.loc 3 4654 0
	bl	_ZL14CPUWriteBytepujh
.LVL768:
	.loc 3 4655 0
	str	r7, [r4, r6, asl #2]
.LBE1362:
	.loc 3 4658 0
	b	.L152
.LVL769:
.L205:
.LBB1363:
	.loc 3 4514 0
	and	r6, r3, #15
	.loc 3 4516 0
	ldr	r0, [r4, r6, asl #2]
	bl	_ZL19CPUReadMemoryrealpuj
.LVL770:
.LBE1363:
	.loc 3 4512 0
	mov	r7, r5, asl #20
.LBB1364:
	.loc 3 4513 0
	mov	r5, r5, lsr #12
.LVL771:
.LBE1364:
	and	r5, r5, #15
.LBB1365:
	.loc 3 4517 0
	cmp	r5, r6
	.loc 3 4516 0
	str	r0, [r4, r5, asl #2]
	.loc 3 4518 0
	ldrne	r3, [r4, r6, asl #2]
.LBE1365:
	.loc 3 4512 0
	mov	r7, r7, lsr #20
.LVL772:
.LBB1366:
	.loc 3 4518 0
	rsbne	r7, r7, r3
.LVL773:
	strne	r7, [r4, r6, asl #2]
	.loc 3 4520 0
	cmp	r5, #15
	.loc 3 4521 0
	ldreq	r3, [r4, #60]
	biceq	r3, r3, #3
	.loc 3 4523 0
	addeq	r3, r3, #4
	streq	r3, [r4, #60]
	b	.L152
.LVL774:
.L204:
.LBE1366:
.LBB1367:
	.loc 3 4494 0
	and	r6, r3, #15
	.loc 3 4496 0
	ldr	r0, [r4, r6, asl #2]
	bl	_ZL19CPUReadMemoryrealpuj
.LVL775:
.LBE1367:
	.loc 3 4492 0
	mov	r7, r5, asl #20
.LBB1368:
	.loc 3 4493 0
	mov	r5, r5, lsr #12
.LVL776:
.LBE1368:
	and	r5, r5, #15
.LBB1369:
	.loc 3 4497 0
	cmp	r5, r6
	.loc 3 4496 0
	str	r0, [r4, r5, asl #2]
	.loc 3 4498 0
	ldrne	r3, [r4, r6, asl #2]
.LBE1369:
	.loc 3 4492 0
	mov	r7, r7, lsr #20
.LVL777:
.LBB1370:
	.loc 3 4498 0
	rsbne	r7, r7, r3
.LVL778:
	strne	r7, [r4, r6, asl #2]
	.loc 3 4500 0
	cmp	r5, #15
	.loc 3 4501 0
	ldreq	r3, [r4, #60]
	biceq	r3, r3, #3
	.loc 3 4503 0
	addeq	r3, r3, #4
	streq	r3, [r4, #60]
	b	.L152
.LVL779:
.L203:
.LBE1370:
.LBB1371:
	.loc 3 4416 0
	and	r7, r3, #15
	.loc 3 4417 0
	ldr	r6, [r4, r7, asl #2]
	.loc 3 4415 0
	mov	r3, r5, lsr #12
.LBB1372:
.LBB1373:
	.loc 1 533 0
	mov	r2, r6, lsr #24
.LBE1373:
.LBE1372:
.LBE1371:
	.loc 3 4414 0
	mov	r5, r5, asl #20
.LVL780:
.LBB1384:
	.loc 3 4415 0
	and	r3, r3, #15
.LBB1381:
.LBB1376:
	.loc 1 533 0
	cmp	r2, #13
.LBE1376:
.LBE1381:
.LBE1384:
	.loc 3 4414 0
	mov	sl, r5, lsr #20
.LVL781:
.LBB1385:
	.loc 3 4418 0
	ldr	r5, [r4, r3, asl #2]
.LVL782:
.LBB1382:
.LBB1377:
	.loc 1 533 0
	beq	.L410
	cmp	r2, #14
	beq	.L411
	cmp	r2, #4
	beq	.L5264
.L412:
.LBE1377:
.LBE1382:
	.loc 3 4419 0
	rsb	r6, sl, r6
.LVL783:
	str	r6, [r4, r7, asl #2]
.LBE1385:
	.loc 3 4422 0
	b	.L152
.LVL784:
.L202:
	.loc 3 4022 0
	and	r6, r3, #15
.LVL785:
.LBB1386:
	.loc 3 4024 0
	ldr	r3, [r4, r6, asl #2]
	and	r1, r5, #15
	and	r2, r2, #240
	orr	r7, r2, r1
	add	r7, r7, r3
.LBB1387:
.LBB1388:
	.loc 1 873 0
	mov	r0, r7
	bl	_ZL21CPUReadHalfWordrealpuj
.LVL786:
	.loc 1 874 0
	tst	r7, #1
	.loc 1 875 0
	movne	r3, r0, asl #24
	.loc 1 873 0
	moveq	r3, r0, asl #16
	.loc 1 875 0
	movne	r3, r3, asr #8
.LBE1388:
.LBE1387:
	.loc 3 4023 0
	mov	r5, r5, lsr #12
.LVL787:
.LBB1390:
.LBB1389:
	.loc 1 875 0
	mov	r3, r3, lsr #16
.LBE1389:
.LBE1390:
	.loc 3 4023 0
	and	r5, r5, #15
.LVL788:
	.loc 3 4025 0
	mov	r3, r3, asl #16
.LVL789:
	.loc 3 4026 0
	cmp	r5, r6
	.loc 3 4025 0
	mov	r3, r3, asr #16
	str	r3, [r4, r5, asl #2]
	.loc 3 4027 0
	strne	r7, [r4, r6, asl #2]
	.loc 3 4029 0
	cmp	r5, #15
	.loc 3 4030 0
	ldreq	r3, [r4, #60]
	biceq	r3, r3, #3
	.loc 3 4032 0
	addeq	r3, r3, #4
	streq	r3, [r4, #60]
	b	.L152
.LVL790:
.L201:
.LBE1386:
	.loc 3 3762 0
	and	r6, r3, #15
.LVL791:
.LBB1391:
	.loc 3 3764 0
	ldr	r3, [r4, r6, asl #2]
	and	r1, r5, #15
	and	r2, r2, #240
	orr	r7, r2, r1
	add	r7, r7, r3
	.loc 3 3765 0
	mov	r0, r7
	bl	_ZL17CPUReadByterealpuj
.LVL792:
	.loc 3 3763 0
	mov	r5, r5, lsr #12
.LVL793:
.LBE1391:
	and	r5, r5, #15
.LVL794:
.LBB1392:
	.loc 3 3765 0
	mov	r0, r0, asl #24
	.loc 3 3766 0
	cmp	r5, r6
	.loc 3 3765 0
	mov	r3, r0, asr #24
	str	r3, [r4, r5, asl #2]
	.loc 3 3767 0
	strne	r7, [r4, r6, asl #2]
	.loc 3 3769 0
	cmp	r5, #15
	.loc 3 3770 0
	ldreq	r3, [r4, #60]
	biceq	r3, r3, #3
	.loc 3 3772 0
	addeq	r3, r3, #4
	streq	r3, [r4, #60]
	b	.L152
.LVL795:
.L200:
.LBE1392:
	.loc 3 3502 0
	and	r6, r3, #15
.LVL796:
.LBB1393:
	.loc 3 3504 0
	and	r1, r5, #15
	and	r2, r2, #240
	ldr	r3, [r4, r6, asl #2]
	orr	r7, r2, r1
	add	r7, r7, r3
	.loc 3 3505 0
	mov	r0, r7
	bl	_ZL21CPUReadHalfWordrealpuj
.LVL797:
	.loc 3 3503 0
	mov	r5, r5, lsr #12
.LVL798:
.LBE1393:
	and	r5, r5, #15
.LVL799:
.LBB1394:
	.loc 3 3506 0
	cmp	r5, r6
	.loc 3 3505 0
	str	r0, [r4, r5, asl #2]
	.loc 3 3507 0
	strne	r7, [r4, r6, asl #2]
	.loc 3 3509 0
	cmp	r5, #15
	.loc 3 3510 0
	ldreq	r3, [r4, #60]
	biceq	r3, r3, #3
	.loc 3 3512 0
	addeq	r3, r3, #4
	streq	r3, [r4, #60]
	b	.L152
.LVL800:
.L199:
.LBE1394:
.LBB1395:
	.loc 3 3251 0
	and	r6, r3, #15
.LVL801:
	.loc 3 3253 0
	ldr	r1, [r4, r6, asl #2]
	and	r2, r2, #240
	and	r3, r5, #15
	orr	r7, r2, r3
	.loc 3 3252 0
	mov	r3, r5, lsr #10
	.loc 3 3253 0
	add	r7, r7, r1
.LVL802:
	.loc 3 3255 0
	and	r3, r3, #60
	mov	r0, r7
	ldrh	r1, [r4, r3]
	bl	_ZL18CPUWriteHalfWordpujt
.LVL803:
	.loc 3 3256 0
	str	r7, [r4, r6, asl #2]
.LBE1395:
	.loc 3 3258 0
	b	.L152
.LVL804:
.L198:
.LBB1396:
	.loc 3 4003 0
	and	r3, r3, #15
.LVL805:
	.loc 3 4005 0
	ldr	r3, [r4, r3, asl #2]
.LVL806:
	and	r1, r5, #15
	and	r2, r2, #240
	orr	r6, r2, r1
	add	r6, r6, r3
.LBB1397:
.LBB1398:
	.loc 1 873 0
	mov	r0, r6
	bl	_ZL21CPUReadHalfWordrealpuj
.LVL807:
	.loc 1 874 0
	tst	r6, #1
	.loc 1 875 0
	movne	r3, r0, asl #24
	.loc 1 873 0
	moveq	r3, r0, asl #16
	.loc 1 875 0
	movne	r3, r3, asr #8
.LBE1398:
.LBE1397:
	.loc 3 4004 0
	mov	r5, r5, lsr #12
.LVL808:
.LBB1400:
.LBB1399:
	.loc 1 875 0
	mov	r3, r3, lsr #16
.LBE1399:
.LBE1400:
.LBE1396:
	.loc 3 4004 0
	and	r5, r5, #15
.LVL809:
.LBB1401:
	.loc 3 4006 0
	mov	r3, r3, asl #16
.LVL810:
	mov	r3, r3, asr #16
	.loc 3 4008 0
	cmp	r5, #15
	.loc 3 4006 0
	str	r3, [r4, r5, asl #2]
	.loc 3 4008 0
	.loc 3 4009 0
	ldreq	r3, [r4, #60]
	biceq	r3, r3, #3
	.loc 3 4011 0
	addeq	r3, r3, #4
	streq	r3, [r4, #60]
	b	.L152
.LVL811:
.L197:
.LBE1401:
.LBB1402:
	.loc 3 3743 0
	and	r3, r3, #15
.LVL812:
	.loc 3 3745 0
	ldr	r3, [r4, r3, asl #2]
.LVL813:
	and	r1, r5, #15
	and	r2, r2, #240
	orr	r0, r2, r1
	.loc 3 3746 0
	add	r0, r0, r3
	bl	_ZL17CPUReadByterealpuj
.LVL814:
	.loc 3 3744 0
	mov	r5, r5, lsr #12
.LVL815:
.LBE1402:
	and	r5, r5, #15
.LVL816:
.LBB1403:
	.loc 3 3746 0
	mov	r0, r0, asl #24
	mov	r3, r0, asr #24
	.loc 3 3748 0
	cmp	r5, #15
	.loc 3 3746 0
	str	r3, [r4, r5, asl #2]
	.loc 3 3748 0
	.loc 3 3749 0
	ldreq	r3, [r4, #60]
	biceq	r3, r3, #3
	.loc 3 3751 0
	addeq	r3, r3, #4
	streq	r3, [r4, #60]
	b	.L152
.LVL817:
.L196:
.LBE1403:
.LBB1404:
	.loc 3 3483 0
	and	r3, r3, #15
.LVL818:
	.loc 3 3485 0
	and	r1, r5, #15
	and	r2, r2, #240
	ldr	r3, [r4, r3, asl #2]
.LVL819:
	orr	r0, r2, r1
	.loc 3 3486 0
	add	r0, r0, r3
	bl	_ZL21CPUReadHalfWordrealpuj
.LVL820:
	.loc 3 3484 0
	mov	r5, r5, lsr #12
.LVL821:
.LBE1404:
	and	r5, r5, #15
.LVL822:
.LBB1405:
	.loc 3 3488 0
	cmp	r5, #15
	.loc 3 3486 0
	str	r0, [r4, r5, asl #2]
	.loc 3 3488 0
	.loc 3 3489 0
	ldreq	r3, [r4, #60]
	biceq	r3, r3, #3
	.loc 3 3491 0
	addeq	r3, r3, #4
	streq	r3, [r4, #60]
	b	.L152
.LVL823:
.L195:
.LBE1405:
.LBB1406:
	.loc 3 3240 0
	and	r3, r3, #15
.LVL824:
	.loc 3 3242 0
	ldr	r1, [r4, r3, asl #2]
	and	r2, r2, #240
.LVL825:
	and	r0, r5, #15
	.loc 3 3241 0
	mov	r3, r5, lsr #10
.LVL826:
	.loc 3 3242 0
	orr	r0, r2, r0
	.loc 3 3244 0
	and	r3, r3, #60
	add	r0, r0, r1
	ldrh	r1, [r4, r3]
.LBE1406:
.LBE2291:
.LBE2310:
.LBE2329:
	.loc 3 8619 0
	add	sp, sp, #12
	ldmfd	sp!, {r4, r5, r6, r7, r8, r9, sl, fp, lr}
.LBB2330:
.LBB2311:
.LBB2292:
.LBB1407:
	.loc 3 3244 0
	b	_ZL18CPUWriteHalfWordpujt
.LVL827:
.L194:
.LBE1407:
	.loc 3 3982 0
	and	r6, r3, #15
.LVL828:
.LBB1408:
	.loc 3 3984 0
	and	r3, r5, #15
	ldr	r7, [r4, r3, asl #2]
	ldr	r3, [r4, r6, asl #2]
	.loc 3 3983 0
	mov	r5, r5, lsr #12
.LVL829:
	.loc 3 3984 0
	add	r7, r7, r3
.LBB1409:
.LBB1410:
	.loc 1 873 0
	mov	r0, r7
	bl	_ZL21CPUReadHalfWordrealpuj
.LVL830:
	.loc 1 874 0
	tst	r7, #1
	.loc 1 875 0
	movne	r3, r0, asl #24
	.loc 1 873 0
	moveq	r3, r0, asl #16
	.loc 1 875 0
	movne	r3, r3, asr #8
	mov	r3, r3, lsr #16
.LBE1410:
.LBE1409:
	.loc 3 3983 0
	and	r5, r5, #15
.LVL831:
	.loc 3 3985 0
	mov	r3, r3, asl #16
.LVL832:
	.loc 3 3986 0
	cmp	r5, r6
	.loc 3 3985 0
	mov	r3, r3, asr #16
	str	r3, [r4, r5, asl #2]
	.loc 3 3987 0
	strne	r7, [r4, r6, asl #2]
	.loc 3 3989 0
	cmp	r5, #15
	.loc 3 3990 0
	ldreq	r3, [r4, #60]
	biceq	r3, r3, #3
	.loc 3 3992 0
	addeq	r3, r3, #4
	streq	r3, [r4, #60]
	b	.L152
.LVL833:
.L193:
.LBE1408:
	.loc 3 3722 0
	and	r6, r3, #15
.LVL834:
.LBB1411:
	.loc 3 3724 0
	and	r3, r5, #15
	ldr	r7, [r4, r3, asl #2]
	ldr	r3, [r4, r6, asl #2]
	.loc 3 3723 0
	mov	r5, r5, lsr #12
.LVL835:
	.loc 3 3724 0
	add	r7, r7, r3
	.loc 3 3725 0
	mov	r0, r7
	bl	_ZL17CPUReadByterealpuj
.LVL836:
.LBE1411:
	.loc 3 3723 0
	and	r5, r5, #15
.LVL837:
.LBB1412:
	.loc 3 3725 0
	mov	r0, r0, asl #24
	.loc 3 3726 0
	cmp	r5, r6
	.loc 3 3725 0
	mov	r3, r0, asr #24
	str	r3, [r4, r5, asl #2]
	.loc 3 3727 0
	strne	r7, [r4, r6, asl #2]
	.loc 3 3729 0
	cmp	r5, #15
	.loc 3 3730 0
	ldreq	r3, [r4, #60]
	biceq	r3, r3, #3
	.loc 3 3732 0
	addeq	r3, r3, #4
	streq	r3, [r4, #60]
	b	.L152
.LVL838:
.L192:
.LBE1412:
	.loc 3 3462 0
	and	r6, r3, #15
.LVL839:
.LBB1413:
	.loc 3 3464 0
	and	r3, r5, #15
	ldr	r7, [r4, r3, asl #2]
	ldr	r3, [r4, r6, asl #2]
	.loc 3 3463 0
	mov	r5, r5, lsr #12
.LVL840:
	.loc 3 3464 0
	add	r7, r7, r3
	.loc 3 3465 0
	mov	r0, r7
	bl	_ZL21CPUReadHalfWordrealpuj
.LVL841:
.LBE1413:
	.loc 3 3463 0
	and	r5, r5, #15
.LVL842:
.LBB1414:
	.loc 3 3466 0
	cmp	r5, r6
	.loc 3 3465 0
	str	r0, [r4, r5, asl #2]
	.loc 3 3467 0
	strne	r7, [r4, r6, asl #2]
	.loc 3 3469 0
	cmp	r5, #15
	.loc 3 3470 0
	ldreq	r3, [r4, #60]
	biceq	r3, r3, #3
	.loc 3 3472 0
	addeq	r3, r3, #4
	streq	r3, [r4, #60]
	b	.L152
.LVL843:
.L191:
.LBE1414:
.LBB1415:
	.loc 3 3228 0
	and	r6, r3, #15
.LVL844:
	.loc 3 3230 0
	and	r3, r5, #15
	ldr	r7, [r4, r3, asl #2]
	ldr	r2, [r4, r6, asl #2]
	.loc 3 3229 0
	mov	r3, r5, lsr #10
	.loc 3 3230 0
	add	r7, r7, r2
.LVL845:
	.loc 3 3232 0
	and	r3, r3, #60
	mov	r0, r7
	ldrh	r1, [r4, r3]
	bl	_ZL18CPUWriteHalfWordpujt
.LVL846:
	.loc 3 3233 0
	str	r7, [r4, r6, asl #2]
.LBE1415:
	.loc 3 3235 0
	b	.L152
.LVL847:
.L190:
.LBB1416:
	.loc 3 3965 0
	and	r2, r5, #15
	.loc 3 3963 0
	and	r3, r3, #15
.LVL848:
	.loc 3 3965 0
	ldr	r3, [r4, r3, asl #2]
.LVL849:
	ldr	r6, [r4, r2, asl #2]
	.loc 3 3964 0
	mov	r5, r5, lsr #12
.LVL850:
	.loc 3 3965 0
	add	r6, r6, r3
.LBB1417:
.LBB1418:
	.loc 1 873 0
	mov	r0, r6
	bl	_ZL21CPUReadHalfWordrealpuj
.LVL851:
	.loc 1 874 0
	tst	r6, #1
	.loc 1 875 0
	movne	r3, r0, asl #24
	.loc 1 873 0
	moveq	r3, r0, asl #16
	.loc 1 875 0
	movne	r3, r3, asr #8
	mov	r3, r3, lsr #16
.LBE1418:
.LBE1417:
.LBE1416:
	.loc 3 3964 0
	and	r5, r5, #15
.LVL852:
.LBB1419:
	.loc 3 3966 0
	mov	r3, r3, asl #16
.LVL853:
	mov	r3, r3, asr #16
	.loc 3 3968 0
	cmp	r5, #15
	.loc 3 3966 0
	str	r3, [r4, r5, asl #2]
	.loc 3 3968 0
	.loc 3 3969 0
	ldreq	r3, [r4, #60]
	biceq	r3, r3, #3
	.loc 3 3971 0
	addeq	r3, r3, #4
	streq	r3, [r4, #60]
	b	.L152
.LVL854:
.L189:
.LBE1419:
.LBB1420:
	.loc 3 3705 0
	and	r2, r5, #15
	.loc 3 3703 0
	and	r3, r3, #15
.LVL855:
	.loc 3 3705 0
	ldr	r3, [r4, r3, asl #2]
.LVL856:
	ldr	r0, [r4, r2, asl #2]
	.loc 3 3704 0
	mov	r5, r5, lsr #12
.LVL857:
	.loc 3 3706 0
	add	r0, r0, r3
	bl	_ZL17CPUReadByterealpuj
.LVL858:
.LBE1420:
	.loc 3 3704 0
	and	r5, r5, #15
.LVL859:
.LBB1421:
	.loc 3 3706 0
	mov	r0, r0, asl #24
	mov	r3, r0, asr #24
	.loc 3 3708 0
	cmp	r5, #15
	.loc 3 3706 0
	str	r3, [r4, r5, asl #2]
	.loc 3 3708 0
	.loc 3 3709 0
	ldreq	r3, [r4, #60]
	biceq	r3, r3, #3
	.loc 3 3711 0
	addeq	r3, r3, #4
	streq	r3, [r4, #60]
	b	.L152
.LVL860:
.L188:
.LBE1421:
.LBB1422:
	.loc 3 3445 0
	and	r2, r5, #15
	.loc 3 3443 0
	and	r3, r3, #15
.LVL861:
	.loc 3 3445 0
	ldr	r0, [r4, r2, asl #2]
	ldr	r3, [r4, r3, asl #2]
.LVL862:
	.loc 3 3444 0
	mov	r5, r5, lsr #12
.LVL863:
	.loc 3 3446 0
	add	r0, r0, r3
	bl	_ZL21CPUReadHalfWordrealpuj
.LVL864:
.LBE1422:
	.loc 3 3444 0
	and	r5, r5, #15
.LVL865:
.LBB1423:
	.loc 3 3448 0
	cmp	r5, #15
	.loc 3 3446 0
	str	r0, [r4, r5, asl #2]
	.loc 3 3448 0
	.loc 3 3449 0
	ldreq	r3, [r4, #60]
	biceq	r3, r3, #3
	.loc 3 3451 0
	addeq	r3, r3, #4
	streq	r3, [r4, #60]
	b	.L152
.LVL866:
.L187:
.LBE1423:
.LBB1424:
	.loc 3 3219 0
	and	r2, r5, #15
	.loc 3 3217 0
	and	r3, r3, #15
.LVL867:
	.loc 3 3219 0
	ldr	r0, [r4, r2, asl #2]
	ldr	r2, [r4, r3, asl #2]
	.loc 3 3218 0
	mov	r3, r5, lsr #10
.LVL868:
	.loc 3 3221 0
	and	r3, r3, #60
	ldrh	r1, [r4, r3]
	add	r0, r0, r2
.LBE1424:
.LBE2292:
.LBE2311:
.LBE2330:
	.loc 3 8619 0
	add	sp, sp, #12
	ldmfd	sp!, {r4, r5, r6, r7, r8, r9, sl, fp, lr}
.LBB2331:
.LBB2312:
.LBB2293:
.LBB1425:
	.loc 3 3221 0
	b	_ZL18CPUWriteHalfWordpujt
.LVL869:
.L186:
.LBE1425:
	.loc 3 3942 0
	and	r6, r3, #15
.LVL870:
.LBB1426:
	.loc 3 3944 0
	and	r2, r2, #240
	ldr	r7, [r4, r6, asl #2]
	and	r3, r5, #15
	orr	r3, r2, r3
	rsb	r7, r3, r7
.LBB1427:
.LBB1428:
	.loc 1 873 0
	mov	r0, r7
	bl	_ZL21CPUReadHalfWordrealpuj
.LVL871:
	.loc 1 874 0
	tst	r7, #1
	.loc 1 875 0
	movne	r3, r0, asl #24
	.loc 1 873 0
	moveq	r3, r0, asl #16
	.loc 1 875 0
	movne	r3, r3, asr #8
.LBE1428:
.LBE1427:
	.loc 3 3943 0
	mov	r5, r5, lsr #12
.LVL872:
.LBB1430:
.LBB1429:
	.loc 1 875 0
	mov	r3, r3, lsr #16
.LBE1429:
.LBE1430:
	.loc 3 3943 0
	and	r5, r5, #15
.LVL873:
	.loc 3 3945 0
	mov	r3, r3, asl #16
.LVL874:
	.loc 3 3946 0
	cmp	r5, r6
	.loc 3 3945 0
	mov	r3, r3, asr #16
	str	r3, [r4, r5, asl #2]
	.loc 3 3947 0
	strne	r7, [r4, r6, asl #2]
	.loc 3 3949 0
	cmp	r5, #15
	.loc 3 3950 0
	ldreq	r3, [r4, #60]
	biceq	r3, r3, #3
	.loc 3 3952 0
	addeq	r3, r3, #4
	streq	r3, [r4, #60]
	b	.L152
.LVL875:
.L185:
.LBE1426:
	.loc 3 3682 0
	and	r6, r3, #15
.LVL876:
.LBB1431:
	.loc 3 3684 0
	and	r2, r2, #240
	ldr	r7, [r4, r6, asl #2]
	and	r3, r5, #15
	orr	r3, r2, r3
	rsb	r7, r3, r7
	.loc 3 3685 0
	mov	r0, r7
	bl	_ZL17CPUReadByterealpuj
.LVL877:
	.loc 3 3683 0
	mov	r5, r5, lsr #12
.LVL878:
.LBE1431:
	and	r5, r5, #15
.LVL879:
.LBB1432:
	.loc 3 3685 0
	mov	r0, r0, asl #24
	.loc 3 3686 0
	cmp	r5, r6
	.loc 3 3685 0
	mov	r3, r0, asr #24
	str	r3, [r4, r5, asl #2]
	.loc 3 3687 0
	strne	r7, [r4, r6, asl #2]
	.loc 3 3689 0
	cmp	r5, #15
	.loc 3 3690 0
	ldreq	r3, [r4, #60]
	biceq	r3, r3, #3
	.loc 3 3692 0
	addeq	r3, r3, #4
	streq	r3, [r4, #60]
	b	.L152
.LVL880:
.L184:
.LBE1432:
	.loc 3 3422 0
	and	r6, r3, #15
.LVL881:
.LBB1433:
	.loc 3 3424 0
	and	r2, r2, #240
	ldr	r7, [r4, r6, asl #2]
	and	r3, r5, #15
	orr	r3, r2, r3
	rsb	r7, r3, r7
	.loc 3 3425 0
	mov	r0, r7
	bl	_ZL21CPUReadHalfWordrealpuj
.LVL882:
	.loc 3 3423 0
	mov	r5, r5, lsr #12
.LVL883:
.LBE1433:
	and	r5, r5, #15
.LVL884:
.LBB1434:
	.loc 3 3426 0
	cmp	r5, r6
	.loc 3 3425 0
	str	r0, [r4, r5, asl #2]
	.loc 3 3427 0
	strne	r7, [r4, r6, asl #2]
	.loc 3 3429 0
	cmp	r5, #15
	.loc 3 3430 0
	ldreq	r3, [r4, #60]
	biceq	r3, r3, #3
	.loc 3 3432 0
	addeq	r3, r3, #4
	streq	r3, [r4, #60]
	b	.L152
.LVL885:
.L183:
.LBE1434:
.LBB1435:
	.loc 3 3205 0
	and	r6, r3, #15
.LVL886:
	.loc 3 3207 0
	ldr	r7, [r4, r6, asl #2]
	and	r3, r5, #15
	and	r2, r2, #240
	orr	r2, r2, r3
	.loc 3 3206 0
	mov	r3, r5, lsr #10
	.loc 3 3207 0
	rsb	r7, r2, r7
.LVL887:
	.loc 3 3209 0
	and	r3, r3, #60
	mov	r0, r7
	ldrh	r1, [r4, r3]
	bl	_ZL18CPUWriteHalfWordpujt
.LVL888:
	.loc 3 3210 0
	str	r7, [r4, r6, asl #2]
.LBE1435:
	.loc 3 3212 0
	b	.L152
.LVL889:
.L182:
.LBB1436:
	.loc 3 3923 0
	and	r3, r3, #15
.LVL890:
	.loc 3 3925 0
	ldr	r6, [r4, r3, asl #2]
	and	r2, r2, #240
	and	r3, r5, #15
.LVL891:
	orr	r3, r2, r3
	rsb	r6, r3, r6
.LBB1437:
.LBB1438:
	.loc 1 873 0
	mov	r0, r6
	bl	_ZL21CPUReadHalfWordrealpuj
.LVL892:
	.loc 1 874 0
	tst	r6, #1
	.loc 1 875 0
	movne	r3, r0, asl #24
	.loc 1 873 0
	moveq	r3, r0, asl #16
	.loc 1 875 0
	movne	r3, r3, asr #8
.LBE1438:
.LBE1437:
	.loc 3 3924 0
	mov	r5, r5, lsr #12
.LVL893:
.LBB1440:
.LBB1439:
	.loc 1 875 0
	mov	r3, r3, lsr #16
.LBE1439:
.LBE1440:
.LBE1436:
	.loc 3 3924 0
	and	r5, r5, #15
.LVL894:
.LBB1441:
	.loc 3 3926 0
	mov	r3, r3, asl #16
.LVL895:
	mov	r3, r3, asr #16
	.loc 3 3928 0
	cmp	r5, #15
	.loc 3 3926 0
	str	r3, [r4, r5, asl #2]
	.loc 3 3928 0
	.loc 3 3929 0
	ldreq	r3, [r4, #60]
	biceq	r3, r3, #3
	.loc 3 3931 0
	addeq	r3, r3, #4
	streq	r3, [r4, #60]
	b	.L152
.LVL896:
.L181:
.LBE1441:
.LBB1442:
	.loc 3 3663 0
	and	r3, r3, #15
.LVL897:
	.loc 3 3665 0
	ldr	r0, [r4, r3, asl #2]
	and	r2, r2, #240
	and	r3, r5, #15
.LVL898:
	orr	r3, r2, r3
	.loc 3 3666 0
	rsb	r0, r3, r0
	bl	_ZL17CPUReadByterealpuj
.LVL899:
	.loc 3 3664 0
	mov	r5, r5, lsr #12
.LVL900:
.LBE1442:
	and	r5, r5, #15
.LVL901:
.LBB1443:
	.loc 3 3666 0
	mov	r0, r0, asl #24
	mov	r3, r0, asr #24
	.loc 3 3668 0
	cmp	r5, #15
	.loc 3 3666 0
	str	r3, [r4, r5, asl #2]
	.loc 3 3668 0
	.loc 3 3669 0
	ldreq	r3, [r4, #60]
	biceq	r3, r3, #3
	.loc 3 3671 0
	addeq	r3, r3, #4
	streq	r3, [r4, #60]
	b	.L152
.LVL902:
.L180:
.LBE1443:
.LBB1444:
	.loc 3 3403 0
	and	r3, r3, #15
.LVL903:
	.loc 3 3405 0
	ldr	r0, [r4, r3, asl #2]
	and	r2, r2, #240
	and	r3, r5, #15
.LVL904:
	orr	r3, r2, r3
	.loc 3 3406 0
	rsb	r0, r3, r0
	bl	_ZL21CPUReadHalfWordrealpuj
.LVL905:
	.loc 3 3404 0
	mov	r5, r5, lsr #12
.LVL906:
.LBE1444:
	and	r5, r5, #15
.LVL907:
.LBB1445:
	.loc 3 3408 0
	cmp	r5, #15
	.loc 3 3406 0
	str	r0, [r4, r5, asl #2]
	.loc 3 3408 0
	.loc 3 3409 0
	ldreq	r3, [r4, #60]
	biceq	r3, r3, #3
	.loc 3 3411 0
	addeq	r3, r3, #4
	streq	r3, [r4, #60]
	b	.L152
.LVL908:
.L179:
.LBE1445:
.LBB1446:
	.loc 3 3194 0
	and	r3, r3, #15
.LVL909:
	.loc 3 3196 0
	and	r2, r2, #240
.LVL910:
	and	r1, r5, #15
	ldr	r0, [r4, r3, asl #2]
	orr	r2, r2, r1
	.loc 3 3195 0
	mov	r3, r5, lsr #10
.LVL911:
.L4858:
	.loc 3 3198 0
	and	r3, r3, #60
	ldrh	r1, [r4, r3]
	rsb	r0, r2, r0
.LBE1446:
.LBE2293:
.LBE2312:
.LBE2331:
	.loc 3 8619 0
	add	sp, sp, #12
	ldmfd	sp!, {r4, r5, r6, r7, r8, r9, sl, fp, lr}
.LBB2332:
.LBB2313:
.LBB2294:
.LBB1447:
	.loc 3 3198 0
	b	_ZL18CPUWriteHalfWordpujt
.LVL912:
.L178:
.LBE1447:
.LBB1448:
	.loc 3 4285 0
	and	r3, r3, #15
	ldr	r6, [r4, r3, asl #2]
.LVL913:
	.loc 3 4286 0
	mov	r0, r6
	bl	_ZL17CPUReadByterealpuj
.LVL914:
	.loc 3 4287 0
	and	r3, r5, #15
	.loc 3 4286 0
	mov	r7, r0
.LVL915:
	.loc 3 4287 0
	ldrb	r1, [r4, r3, asl #2]	@ zero_extendqisi2
	mov	r0, r6
.LVL916:
	bl	_ZL14CPUWriteBytepujh
.LVL917:
	.loc 3 4288 0
	mov	r3, r5, lsr #12
	and	r3, r3, #15
	.loc 3 4286 0
	str	r7, [r4, r3, asl #2]
.LBE1448:
	.loc 3 4291 0
	b	.L152
.LVL918:
.L177:
	.loc 3 3902 0
	and	r6, r3, #15
.LVL919:
.LBB1449:
	.loc 3 3904 0
	and	r3, r5, #15
	ldr	r3, [r4, r3, asl #2]
	ldr	r7, [r4, r6, asl #2]
	.loc 3 3903 0
	mov	r5, r5, lsr #12
.LVL920:
	.loc 3 3904 0
	rsb	r7, r3, r7
.LBB1450:
.LBB1451:
	.loc 1 873 0
	mov	r0, r7
	bl	_ZL21CPUReadHalfWordrealpuj
.LVL921:
	.loc 1 874 0
	tst	r7, #1
	.loc 1 875 0
	movne	r3, r0, asl #24
	.loc 1 873 0
	moveq	r3, r0, asl #16
	.loc 1 875 0
	movne	r3, r3, asr #8
	mov	r3, r3, lsr #16
.LBE1451:
.LBE1450:
	.loc 3 3903 0
	and	r5, r5, #15
.LVL922:
	.loc 3 3905 0
	mov	r3, r3, asl #16
.LVL923:
	.loc 3 3906 0
	cmp	r5, r6
	.loc 3 3905 0
	mov	r3, r3, asr #16
	str	r3, [r4, r5, asl #2]
	.loc 3 3907 0
	strne	r7, [r4, r6, asl #2]
	.loc 3 3909 0
	cmp	r5, #15
	.loc 3 3910 0
	ldreq	r3, [r4, #60]
	biceq	r3, r3, #3
	.loc 3 3912 0
	addeq	r3, r3, #4
	streq	r3, [r4, #60]
	b	.L152
.LVL924:
.L176:
.LBE1449:
	.loc 3 3642 0
	and	r6, r3, #15
.LVL925:
.LBB1452:
	.loc 3 3644 0
	and	r3, r5, #15
	ldr	r3, [r4, r3, asl #2]
	ldr	r7, [r4, r6, asl #2]
	.loc 3 3643 0
	mov	r5, r5, lsr #12
.LVL926:
	.loc 3 3644 0
	rsb	r7, r3, r7
	.loc 3 3645 0
	mov	r0, r7
	bl	_ZL17CPUReadByterealpuj
.LVL927:
.LBE1452:
	.loc 3 3643 0
	and	r5, r5, #15
.LVL928:
.LBB1453:
	.loc 3 3645 0
	mov	r0, r0, asl #24
	.loc 3 3646 0
	cmp	r5, r6
	.loc 3 3645 0
	mov	r3, r0, asr #24
	str	r3, [r4, r5, asl #2]
	.loc 3 3647 0
	strne	r7, [r4, r6, asl #2]
	.loc 3 3649 0
	cmp	r5, #15
	.loc 3 3650 0
	ldreq	r3, [r4, #60]
	biceq	r3, r3, #3
	.loc 3 3652 0
	addeq	r3, r3, #4
	streq	r3, [r4, #60]
	b	.L152
.LVL929:
.L175:
.LBE1453:
	.loc 3 3382 0
	and	r6, r3, #15
.LVL930:
.LBB1454:
	.loc 3 3384 0
	and	r3, r5, #15
	ldr	r7, [r4, r6, asl #2]
	ldr	r3, [r4, r3, asl #2]
	.loc 3 3383 0
	mov	r5, r5, lsr #12
.LVL931:
	.loc 3 3384 0
	rsb	r7, r3, r7
	.loc 3 3385 0
	mov	r0, r7
	bl	_ZL21CPUReadHalfWordrealpuj
.LVL932:
.LBE1454:
	.loc 3 3383 0
	and	r5, r5, #15
.LVL933:
.LBB1455:
	.loc 3 3386 0
	cmp	r5, r6
	.loc 3 3385 0
	str	r0, [r4, r5, asl #2]
	.loc 3 3387 0
	strne	r7, [r4, r6, asl #2]
	.loc 3 3389 0
	cmp	r5, #15
	.loc 3 3390 0
	ldreq	r3, [r4, #60]
	biceq	r3, r3, #3
	.loc 3 3392 0
	addeq	r3, r3, #4
	streq	r3, [r4, #60]
	b	.L152
.LVL934:
.L174:
.LBE1455:
.LBB1456:
	.loc 3 3182 0
	and	r6, r3, #15
.LVL935:
	.loc 3 3184 0
	and	r3, r5, #15
	ldr	r2, [r4, r3, asl #2]
	ldr	r7, [r4, r6, asl #2]
	.loc 3 3183 0
	mov	r3, r5, lsr #10
	.loc 3 3184 0
	rsb	r7, r2, r7
.LVL936:
	.loc 3 3186 0
	and	r3, r3, #60
	mov	r0, r7
	ldrh	r1, [r4, r3]
	bl	_ZL18CPUWriteHalfWordpujt
.LVL937:
	.loc 3 3187 0
	str	r7, [r4, r6, asl #2]
.LBE1456:
	.loc 3 3189 0
	b	.L152
.LVL938:
.L173:
.LBB1457:
	.loc 3 3885 0
	and	r2, r5, #15
	.loc 3 3883 0
	and	r3, r3, #15
.LVL939:
	.loc 3 3885 0
	ldr	r6, [r4, r3, asl #2]
	ldr	r3, [r4, r2, asl #2]
.LVL940:
	.loc 3 3884 0
	mov	r5, r5, lsr #12
.LVL941:
	.loc 3 3885 0
	rsb	r6, r3, r6
.LBB1458:
.LBB1459:
	.loc 1 873 0
	mov	r0, r6
	bl	_ZL21CPUReadHalfWordrealpuj
.LVL942:
	.loc 1 874 0
	tst	r6, #1
	.loc 1 875 0
	movne	r3, r0, asl #24
	.loc 1 873 0
	moveq	r3, r0, asl #16
	.loc 1 875 0
	movne	r3, r3, asr #8
	mov	r3, r3, lsr #16
.LBE1459:
.LBE1458:
.LBE1457:
	.loc 3 3884 0
	and	r5, r5, #15
.LVL943:
.LBB1460:
	.loc 3 3886 0
	mov	r3, r3, asl #16
.LVL944:
	mov	r3, r3, asr #16
	.loc 3 3888 0
	cmp	r5, #15
	.loc 3 3886 0
	str	r3, [r4, r5, asl #2]
	.loc 3 3888 0
	.loc 3 3889 0
	ldreq	r3, [r4, #60]
	biceq	r3, r3, #3
	.loc 3 3891 0
	addeq	r3, r3, #4
	streq	r3, [r4, #60]
	b	.L152
.LVL945:
.L172:
.LBE1460:
.LBB1461:
	.loc 3 3625 0
	and	r2, r5, #15
	.loc 3 3623 0
	and	r3, r3, #15
.LVL946:
	.loc 3 3625 0
	ldr	r0, [r4, r3, asl #2]
	ldr	r3, [r4, r2, asl #2]
.LVL947:
	.loc 3 3624 0
	mov	r5, r5, lsr #12
.LVL948:
	.loc 3 3626 0
	rsb	r0, r3, r0
	bl	_ZL17CPUReadByterealpuj
.LVL949:
.LBE1461:
	.loc 3 3624 0
	and	r5, r5, #15
.LVL950:
.LBB1462:
	.loc 3 3626 0
	mov	r0, r0, asl #24
	mov	r3, r0, asr #24
	.loc 3 3628 0
	cmp	r5, #15
	.loc 3 3626 0
	str	r3, [r4, r5, asl #2]
	.loc 3 3628 0
	.loc 3 3629 0
	ldreq	r3, [r4, #60]
	biceq	r3, r3, #3
	.loc 3 3631 0
	addeq	r3, r3, #4
	streq	r3, [r4, #60]
	b	.L152
.LVL951:
.L171:
.LBE1462:
.LBB1463:
	.loc 3 3365 0
	and	r2, r5, #15
	.loc 3 3363 0
	and	r3, r3, #15
.LVL952:
	.loc 3 3365 0
	ldr	r0, [r4, r3, asl #2]
	ldr	r3, [r4, r2, asl #2]
.LVL953:
	.loc 3 3364 0
	mov	r5, r5, lsr #12
.LVL954:
	.loc 3 3366 0
	rsb	r0, r3, r0
	bl	_ZL21CPUReadHalfWordrealpuj
.LVL955:
.LBE1463:
	.loc 3 3364 0
	and	r5, r5, #15
.LVL956:
.LBB1464:
	.loc 3 3368 0
	cmp	r5, #15
	.loc 3 3366 0
	str	r0, [r4, r5, asl #2]
	.loc 3 3368 0
	.loc 3 3369 0
	ldreq	r3, [r4, #60]
	biceq	r3, r3, #3
	.loc 3 3371 0
	addeq	r3, r3, #4
	streq	r3, [r4, #60]
	b	.L152
.LVL957:
.L170:
.LBE1464:
.LBB1465:
	.loc 3 3171 0
	and	r3, r3, #15
.LVL958:
	.loc 3 3173 0
	and	r2, r5, #15
	ldr	r0, [r4, r3, asl #2]
	ldr	r2, [r4, r2, asl #2]
	.loc 3 3172 0
	mov	r3, r5, lsr #10
.LVL959:
	b	.L4858
.LVL960:
.L169:
.LBE1465:
	.loc 3 3859 0
	and	r7, r3, #15
.LVL961:
.LBB1466:
	.loc 3 3861 0
	ldr	r8, [r4, r7, asl #2]
	.loc 3 3862 0
	and	r2, r2, #240
	.loc 3 3860 0
	mov	r6, r5, lsr #12
.LBB1467:
.LBB1468:
	.loc 1 873 0
	mov	r0, r8
.LBE1468:
.LBE1467:
	.loc 3 3862 0
	and	r5, r5, #15
.LVL962:
	orr	r5, r2, r5
.LBB1471:
.LBB1469:
	.loc 1 873 0
	bl	_ZL21CPUReadHalfWordrealpuj
.LVL963:
	.loc 1 874 0
	tst	r8, #1
	.loc 1 875 0
	movne	r3, r0, asl #24
	.loc 1 873 0
	moveq	r3, r0, asl #16
	.loc 1 875 0
	movne	r3, r3, asr #8
.LBE1469:
.LBE1471:
	.loc 3 3860 0
	and	r6, r6, #15
.LVL964:
.LBB1472:
.LBB1470:
	.loc 1 875 0
	mov	r3, r3, lsr #16
.LVL965:
.LBE1470:
.LBE1472:
	.loc 3 3864 0
	cmp	r6, r7
	.loc 3 3863 0
	mov	r3, r3, asl #16
.LVL966:
	.loc 3 3865 0
	addne	r5, r5, r8
.LVL967:
	.loc 3 3863 0
	mov	r3, r3, asr #16
	str	r3, [r4, r6, asl #2]
.LVL968:
	.loc 3 3866 0
	strne	r5, [r4, r7, asl #2]
	.loc 3 3869 0
	cmp	r6, #15
	.loc 3 3870 0
	ldreq	r3, [r4, #60]
	biceq	r3, r3, #3
	.loc 3 3872 0
	addeq	r3, r3, #4
	streq	r3, [r4, #60]
	b	.L152
.LVL969:
.L168:
.LBE1466:
	.loc 3 3599 0
	and	r7, r3, #15
.LVL970:
.LBB1473:
	.loc 3 3601 0
	ldr	r8, [r4, r7, asl #2]
	.loc 3 3602 0
	and	r2, r2, #240
	.loc 3 3600 0
	mov	r6, r5, lsr #12
	.loc 3 3603 0
	mov	r0, r8
	.loc 3 3602 0
	and	r5, r5, #15
.LVL971:
	orr	r5, r2, r5
	.loc 3 3603 0
	bl	_ZL17CPUReadByterealpuj
.LVL972:
.LBE1473:
	.loc 3 3600 0
	and	r6, r6, #15
.LVL973:
.LBB1474:
	.loc 3 3604 0
	cmp	r6, r7
	.loc 3 3603 0
	mov	r0, r0, asl #24
	.loc 3 3605 0
	addne	r5, r5, r8
.LVL974:
	.loc 3 3603 0
	mov	r3, r0, asr #24
	str	r3, [r4, r6, asl #2]
.LVL975:
	.loc 3 3606 0
	strne	r5, [r4, r7, asl #2]
	.loc 3 3609 0
	cmp	r6, #15
	.loc 3 3610 0
	ldreq	r3, [r4, #60]
	biceq	r3, r3, #3
	.loc 3 3612 0
	addeq	r3, r3, #4
	streq	r3, [r4, #60]
	b	.L152
.LVL976:
.L167:
.LBE1474:
	.loc 3 3339 0
	and	r7, r3, #15
.LVL977:
.LBB1475:
	.loc 3 3341 0
	ldr	r8, [r4, r7, asl #2]
	.loc 3 3342 0
	and	r2, r2, #240
	.loc 3 3340 0
	mov	r6, r5, lsr #12
	.loc 3 3343 0
	mov	r0, r8
	.loc 3 3342 0
	and	r5, r5, #15
.LVL978:
	orr	r5, r2, r5
	.loc 3 3343 0
	bl	_ZL21CPUReadHalfWordrealpuj
.LVL979:
.LBE1475:
	.loc 3 3340 0
	and	r6, r6, #15
.LVL980:
.LBB1476:
	.loc 3 3344 0
	cmp	r6, r7
	.loc 3 3345 0
	addne	r5, r5, r8
.LVL981:
	.loc 3 3343 0
	str	r0, [r4, r6, asl #2]
.LVL982:
	.loc 3 3346 0
	strne	r5, [r4, r7, asl #2]
	.loc 3 3349 0
	cmp	r6, #15
	.loc 3 3350 0
	ldreq	r3, [r4, #60]
	biceq	r3, r3, #3
	.loc 3 3352 0
	addeq	r3, r3, #4
	streq	r3, [r4, #60]
	b	.L152
.LVL983:
.L166:
.LBE1476:
.LBB1477:
	.loc 3 3157 0
	and	r6, r3, #15
.LVL984:
	.loc 3 3159 0
	ldr	r7, [r4, r6, asl #2]
.LVL985:
	.loc 3 3158 0
	mov	r3, r5, lsr #10
	.loc 3 3160 0
	and	r2, r2, #240
	and	r5, r5, #15
.LVL986:
	.loc 3 3162 0
	and	r3, r3, #60
	.loc 3 3160 0
	orr	r5, r2, r5
.LVL987:
	.loc 3 3162 0
	mov	r0, r7
	ldrh	r1, [r4, r3]
	.loc 3 3163 0
	add	r5, r5, r7
.LVL988:
	.loc 3 3162 0
	bl	_ZL18CPUWriteHalfWordpujt
.LVL989:
	.loc 3 3164 0
	str	r5, [r4, r6, asl #2]
.LBE1477:
	.loc 3 3166 0
	b	.L152
.LVL990:
.L165:
	.loc 3 3834 0
	and	r7, r3, #15
.LVL991:
.LBB1478:
	.loc 3 3836 0
	ldr	r8, [r4, r7, asl #2]
	.loc 3 3835 0
	mov	r6, r5, lsr #12
.LBB1479:
.LBB1480:
	.loc 1 873 0
	mov	r0, r8
.LBE1480:
.LBE1479:
	.loc 3 3837 0
	and	r5, r5, #15
.LVL992:
	ldr	r5, [r4, r5, asl #2]
.LBB1483:
.LBB1481:
	.loc 1 873 0
	bl	_ZL21CPUReadHalfWordrealpuj
.LVL993:
	.loc 1 874 0
	tst	r8, #1
	.loc 1 875 0
	movne	r3, r0, asl #24
	.loc 1 873 0
	moveq	r3, r0, asl #16
	.loc 1 875 0
	movne	r3, r3, asr #8
.LBE1481:
.LBE1483:
	.loc 3 3835 0
	and	r6, r6, #15
.LVL994:
.LBB1484:
.LBB1482:
	.loc 1 875 0
	mov	r3, r3, lsr #16
.LVL995:
.LBE1482:
.LBE1484:
	.loc 3 3839 0
	cmp	r6, r7
	.loc 3 3838 0
	mov	r3, r3, asl #16
.LVL996:
	.loc 3 3840 0
	addne	r5, r5, r8
.LVL997:
	.loc 3 3838 0
	mov	r3, r3, asr #16
	str	r3, [r4, r6, asl #2]
.LVL998:
	.loc 3 3841 0
	strne	r5, [r4, r7, asl #2]
	.loc 3 3844 0
	cmp	r6, #15
	.loc 3 3845 0
	ldreq	r3, [r4, #60]
	biceq	r3, r3, #3
	.loc 3 3847 0
	addeq	r3, r3, #4
	streq	r3, [r4, #60]
	b	.L152
.LVL999:
.L164:
.LBE1478:
	.loc 3 3574 0
	and	r7, r3, #15
.LVL1000:
.LBB1485:
	.loc 3 3576 0
	ldr	r8, [r4, r7, asl #2]
	.loc 3 3575 0
	mov	r6, r5, lsr #12
	.loc 3 3578 0
	mov	r0, r8
	.loc 3 3577 0
	and	r5, r5, #15
.LVL1001:
	ldr	r5, [r4, r5, asl #2]
	.loc 3 3578 0
	bl	_ZL17CPUReadByterealpuj
.LVL1002:
.LBE1485:
	.loc 3 3575 0
	and	r6, r6, #15
.LVL1003:
.LBB1486:
	.loc 3 3579 0
	cmp	r6, r7
	.loc 3 3578 0
	mov	r0, r0, asl #24
	.loc 3 3580 0
	addne	r5, r5, r8
.LVL1004:
	.loc 3 3578 0
	mov	r3, r0, asr #24
	str	r3, [r4, r6, asl #2]
.LVL1005:
	.loc 3 3581 0
	strne	r5, [r4, r7, asl #2]
	.loc 3 3584 0
	cmp	r6, #15
	.loc 3 3585 0
	ldreq	r3, [r4, #60]
	biceq	r3, r3, #3
	.loc 3 3587 0
	addeq	r3, r3, #4
	streq	r3, [r4, #60]
	b	.L152
.LVL1006:
.L163:
.LBE1486:
	.loc 3 3314 0
	and	r7, r3, #15
.LVL1007:
.LBB1487:
	.loc 3 3316 0
	ldr	r8, [r4, r7, asl #2]
	.loc 3 3315 0
	mov	r6, r5, lsr #12
	.loc 3 3318 0
	mov	r0, r8
	.loc 3 3317 0
	and	r5, r5, #15
.LVL1008:
	ldr	r5, [r4, r5, asl #2]
	.loc 3 3318 0
	bl	_ZL21CPUReadHalfWordrealpuj
.LVL1009:
.LBE1487:
	.loc 3 3315 0
	and	r6, r6, #15
.LVL1010:
.LBB1488:
	.loc 3 3319 0
	cmp	r6, r7
	.loc 3 3320 0
	addne	r5, r5, r8
.LVL1011:
	.loc 3 3318 0
	str	r0, [r4, r6, asl #2]
.LVL1012:
	.loc 3 3321 0
	strne	r5, [r4, r7, asl #2]
	.loc 3 3324 0
	cmp	r6, #15
	.loc 3 3325 0
	ldreq	r3, [r4, #60]
	biceq	r3, r3, #3
	.loc 3 3327 0
	addeq	r3, r3, #4
	streq	r3, [r4, #60]
	b	.L152
.LVL1013:
.L162:
.LBE1488:
.LBB1489:
	.loc 3 3142 0
	and	r6, r3, #15
.LVL1014:
	.loc 3 3145 0
	and	r2, r5, #15
	.loc 3 3144 0
	ldr	r7, [r4, r6, asl #2]
.LVL1015:
	.loc 3 3145 0
	ldr	r8, [r4, r2, asl #2]
.LVL1016:
	.loc 3 3143 0
	mov	r3, r5, lsr #10
	.loc 3 3147 0
	and	r3, r3, #60
	mov	r0, r7
	ldrh	r1, [r4, r3]
	.loc 3 3148 0
	add	r7, r8, r7
.LVL1017:
	.loc 3 3147 0
	bl	_ZL18CPUWriteHalfWordpujt
.LVL1018:
	.loc 3 3149 0
	str	r7, [r4, r6, asl #2]
.LBE1489:
	.loc 3 3151 0
	b	.L152
.LVL1019:
.L161:
	.loc 3 3809 0
	and	r7, r3, #15
.LVL1020:
.LBB1490:
	.loc 3 3811 0
	ldr	r8, [r4, r7, asl #2]
	.loc 3 3812 0
	and	r2, r2, #240
	.loc 3 3810 0
	mov	r6, r5, lsr #12
.LBB1491:
.LBB1492:
	.loc 1 873 0
	mov	r0, r8
.LBE1492:
.LBE1491:
	.loc 3 3812 0
	and	r5, r5, #15
.LVL1021:
	orr	r5, r2, r5
.LBB1495:
.LBB1493:
	.loc 1 873 0
	bl	_ZL21CPUReadHalfWordrealpuj
.LVL1022:
	.loc 1 874 0
	tst	r8, #1
	.loc 1 875 0
	movne	r3, r0, asl #24
	.loc 1 873 0
	moveq	r3, r0, asl #16
	.loc 1 875 0
	movne	r3, r3, asr #8
.LBE1493:
.LBE1495:
	.loc 3 3810 0
	and	r6, r6, #15
.LVL1023:
.LBB1496:
.LBB1494:
	.loc 1 875 0
	mov	r3, r3, lsr #16
.LVL1024:
.LBE1494:
.LBE1496:
	.loc 3 3814 0
	cmp	r6, r7
	.loc 3 3813 0
	mov	r3, r3, asl #16
.LVL1025:
	.loc 3 3815 0
	rsbne	r5, r5, r8
.LVL1026:
	.loc 3 3813 0
	mov	r3, r3, asr #16
	str	r3, [r4, r6, asl #2]
.LVL1027:
	.loc 3 3816 0
	strne	r5, [r4, r7, asl #2]
	.loc 3 3819 0
	cmp	r6, #15
	.loc 3 3820 0
	ldreq	r3, [r4, #60]
	biceq	r3, r3, #3
	.loc 3 3822 0
	addeq	r3, r3, #4
	streq	r3, [r4, #60]
	b	.L152
.LVL1028:
.L160:
.LBE1490:
	.loc 3 3549 0
	and	r7, r3, #15
.LVL1029:
.LBB1497:
	.loc 3 3551 0
	ldr	r8, [r4, r7, asl #2]
	.loc 3 3552 0
	and	r2, r2, #240
	.loc 3 3550 0
	mov	r6, r5, lsr #12
	.loc 3 3553 0
	mov	r0, r8
	.loc 3 3552 0
	and	r5, r5, #15
.LVL1030:
	orr	r5, r2, r5
	.loc 3 3553 0
	bl	_ZL17CPUReadByterealpuj
.LVL1031:
.LBE1497:
	.loc 3 3550 0
	and	r6, r6, #15
.LVL1032:
.LBB1498:
	.loc 3 3554 0
	cmp	r6, r7
	.loc 3 3553 0
	mov	r0, r0, asl #24
	.loc 3 3555 0
	rsbne	r5, r5, r8
.LVL1033:
	.loc 3 3553 0
	mov	r3, r0, asr #24
	str	r3, [r4, r6, asl #2]
.LVL1034:
	.loc 3 3556 0
	strne	r5, [r4, r7, asl #2]
	.loc 3 3559 0
	cmp	r6, #15
	.loc 3 3560 0
	ldreq	r3, [r4, #60]
	biceq	r3, r3, #3
	.loc 3 3562 0
	addeq	r3, r3, #4
	streq	r3, [r4, #60]
	b	.L152
.LVL1035:
.L159:
.LBE1498:
	.loc 3 3289 0
	and	r7, r3, #15
.LVL1036:
.LBB1499:
	.loc 3 3291 0
	ldr	r8, [r4, r7, asl #2]
	.loc 3 3292 0
	and	r2, r2, #240
	.loc 3 3290 0
	mov	r6, r5, lsr #12
	.loc 3 3293 0
	mov	r0, r8
	.loc 3 3292 0
	and	r5, r5, #15
.LVL1037:
	orr	r5, r2, r5
	.loc 3 3293 0
	bl	_ZL21CPUReadHalfWordrealpuj
.LVL1038:
.LBE1499:
	.loc 3 3290 0
	and	r6, r6, #15
.LVL1039:
.LBB1500:
	.loc 3 3294 0
	cmp	r6, r7
	.loc 3 3295 0
	rsbne	r5, r5, r8
.LVL1040:
	.loc 3 3293 0
	str	r0, [r4, r6, asl #2]
.LVL1041:
	.loc 3 3296 0
	strne	r5, [r4, r7, asl #2]
	.loc 3 3299 0
	cmp	r6, #15
	.loc 3 3300 0
	ldreq	r3, [r4, #60]
	biceq	r3, r3, #3
	.loc 3 3302 0
	addeq	r3, r3, #4
	streq	r3, [r4, #60]
	b	.L152
.LVL1042:
.L158:
.LBE1500:
.LBB1501:
	.loc 3 3127 0
	and	r6, r3, #15
.LVL1043:
	.loc 3 3129 0
	ldr	r7, [r4, r6, asl #2]
.LVL1044:
	.loc 3 3128 0
	mov	r3, r5, lsr #10
	.loc 3 3130 0
	and	r2, r2, #240
	and	r5, r5, #15
.LVL1045:
	.loc 3 3132 0
	and	r3, r3, #60
	.loc 3 3130 0
	orr	r5, r2, r5
.LVL1046:
	.loc 3 3132 0
	mov	r0, r7
	ldrh	r1, [r4, r3]
	.loc 3 3133 0
	rsb	r5, r5, r7
.LVL1047:
	.loc 3 3132 0
	bl	_ZL18CPUWriteHalfWordpujt
.LVL1048:
	.loc 3 3134 0
	str	r5, [r4, r6, asl #2]
.LBE1501:
	.loc 3 3136 0
	b	.L152
.LVL1049:
.L157:
	.loc 3 3784 0
	and	r7, r3, #15
.LVL1050:
.LBB1502:
	.loc 3 3786 0
	ldr	r8, [r4, r7, asl #2]
	.loc 3 3785 0
	mov	r6, r5, lsr #12
.LBB1503:
.LBB1504:
	.loc 1 873 0
	mov	r0, r8
.LBE1504:
.LBE1503:
	.loc 3 3787 0
	and	r5, r5, #15
.LVL1051:
	ldr	r5, [r4, r5, asl #2]
.LBB1507:
.LBB1505:
	.loc 1 873 0
	bl	_ZL21CPUReadHalfWordrealpuj
.LVL1052:
	.loc 1 874 0
	tst	r8, #1
	.loc 1 875 0
	movne	r3, r0, asl #24
	.loc 1 873 0
	moveq	r3, r0, asl #16
	.loc 1 875 0
	movne	r3, r3, asr #8
.LBE1505:
.LBE1507:
	.loc 3 3785 0
	and	r6, r6, #15
.LVL1053:
.LBB1508:
.LBB1506:
	.loc 1 875 0
	mov	r3, r3, lsr #16
.LVL1054:
.LBE1506:
.LBE1508:
	.loc 3 3789 0
	cmp	r6, r7
	.loc 3 3788 0
	mov	r3, r3, asl #16
.LVL1055:
	.loc 3 3790 0
	rsbne	r5, r5, r8
.LVL1056:
	.loc 3 3788 0
	mov	r3, r3, asr #16
	str	r3, [r4, r6, asl #2]
.LVL1057:
	.loc 3 3791 0
	strne	r5, [r4, r7, asl #2]
	.loc 3 3794 0
	cmp	r6, #15
	.loc 3 3795 0
	ldreq	r3, [r4, #60]
	biceq	r3, r3, #3
	.loc 3 3797 0
	addeq	r3, r3, #4
	streq	r3, [r4, #60]
	b	.L152
.LVL1058:
.L156:
.LBE1502:
	.loc 3 3524 0
	and	r7, r3, #15
.LVL1059:
.LBB1509:
	.loc 3 3526 0
	ldr	r8, [r4, r7, asl #2]
	.loc 3 3525 0
	mov	r6, r5, lsr #12
	.loc 3 3528 0
	mov	r0, r8
	.loc 3 3527 0
	and	r5, r5, #15
.LVL1060:
	ldr	r5, [r4, r5, asl #2]
	.loc 3 3528 0
	bl	_ZL17CPUReadByterealpuj
.LVL1061:
.LBE1509:
	.loc 3 3525 0
	and	r6, r6, #15
.LVL1062:
.LBB1510:
	.loc 3 3529 0
	cmp	r6, r7
	.loc 3 3528 0
	mov	r0, r0, asl #24
	.loc 3 3530 0
	rsbne	r5, r5, r8
.LVL1063:
	.loc 3 3528 0
	mov	r3, r0, asr #24
	str	r3, [r4, r6, asl #2]
.LVL1064:
	.loc 3 3531 0
	strne	r5, [r4, r7, asl #2]
	.loc 3 3534 0
	cmp	r6, #15
	.loc 3 3535 0
	ldreq	r3, [r4, #60]
	biceq	r3, r3, #3
	.loc 3 3537 0
	addeq	r3, r3, #4
	streq	r3, [r4, #60]
	b	.L152
.LVL1065:
.L155:
.LBE1510:
	.loc 3 3264 0
	and	r7, r3, #15
.LVL1066:
.LBB1511:
	.loc 3 3266 0
	ldr	r8, [r4, r7, asl #2]
	.loc 3 3265 0
	mov	r6, r5, lsr #12
	.loc 3 3268 0
	mov	r0, r8
	.loc 3 3267 0
	and	r5, r5, #15
.LVL1067:
	ldr	r5, [r4, r5, asl #2]
	.loc 3 3268 0
	bl	_ZL21CPUReadHalfWordrealpuj
.LVL1068:
.LBE1511:
	.loc 3 3265 0
	and	r6, r6, #15
.LVL1069:
.LBB1512:
	.loc 3 3269 0
	cmp	r6, r7
	.loc 3 3270 0
	rsbne	r5, r5, r8
.LVL1070:
	.loc 3 3268 0
	str	r0, [r4, r6, asl #2]
.LVL1071:
	.loc 3 3271 0
	strne	r5, [r4, r7, asl #2]
	.loc 3 3274 0
	cmp	r6, #15
	.loc 3 3275 0
	ldreq	r3, [r4, #60]
	biceq	r3, r3, #3
	.loc 3 3277 0
	addeq	r3, r3, #4
	streq	r3, [r4, #60]
	b	.L152
.LVL1072:
.L154:
.LBE1512:
.LBB1513:
	.loc 3 3112 0
	and	r6, r3, #15
.LVL1073:
	.loc 3 3115 0
	and	r2, r5, #15
	.loc 3 3114 0
	ldr	r7, [r4, r6, asl #2]
.LVL1074:
	.loc 3 3115 0
	ldr	r8, [r4, r2, asl #2]
.LVL1075:
	.loc 3 3113 0
	mov	r3, r5, lsr #10
	.loc 3 3117 0
	and	r3, r3, #60
	mov	r0, r7
	ldrh	r1, [r4, r3]
	.loc 3 3118 0
	rsb	r7, r8, r7
.LVL1076:
	.loc 3 3117 0
	bl	_ZL18CPUWriteHalfWordpujt
.LVL1077:
	.loc 3 3119 0
	str	r7, [r4, r6, asl #2]
.LBE1513:
	.loc 3 3121 0
	b	.L152
.LVL1078:
.L153:
	.loc 3 8600 0
	ldr	r0, .L5455
	mov	r1, r5
	bl	iprintf
.LVL1079:
	.loc 3 8613 0
	mov	r2, #0
	mov	r3, #67108864
	str	r2, [r3, #520]
	.loc 3 8614 0
	bl	_Z9debugDumpv
.LVL1080:
.L1936:
	b	.L1936
.L248:
.LBB1514:
	.loc 3 6551 0
	mov	r2, r5, lsr #7
.LVL1081:
	.loc 3 6553 0
	ands	r8, r2, #31
.LVL1082:
	.loc 3 6552 0
	and	r1, r5, #15
	ldr	r2, [r4, r1, asl #2]
.LVL1083:
	.loc 3 6556 0
	ldreq	r1, .L5455+24
	.loc 3 6559 0
	and	r7, r3, #15
	.loc 3 6556 0
	ldreqb	r8, [r1, #0]	@ zero_extendqisi2
.LVL1084:
	.loc 3 6560 0
	ldr	r6, [r4, r7, asl #2]
	.loc 3 6556 0
	moveq	r8, r8, asl #31
	.loc 3 6554 0
	movne	r8, r2, ror r8
.LVL1085:
	.loc 3 6556 0
	orreq	r8, r8, r2, lsr #1
.LVL1086:
	.loc 3 6558 0
	mov	r3, r5, lsr #12
.LBB1515:
.LBB1516:
	.loc 1 533 0
	mov	r2, r6, lsr #24
.LBE1516:
.LBE1515:
	.loc 3 6558 0
	and	r3, r3, #15
.LVL1087:
.LBB1524:
.LBB1519:
	.loc 1 533 0
	cmp	r2, #13
.LBE1519:
.LBE1524:
	.loc 3 6561 0
	ldr	r5, [r4, r3, asl #2]
.LVL1088:
.LBB1525:
.LBB1520:
	.loc 1 533 0
	beq	.L599
	cmp	r2, #14
	beq	.L600
	cmp	r2, #4
	beq	.L5265
.LVL1089:
.L601:
.LBE1520:
.LBE1525:
	.loc 3 6562 0
	add	r6, r8, r6
.LVL1090:
	str	r6, [r4, r7, asl #2]
.LBE1514:
	.loc 3 6565 0
	b	.L152
.LVL1091:
.L247:
.LBB1528:
	.loc 3 6527 0
	mov	r2, r5, lsr #7
.LVL1092:
	.loc 3 6529 0
	ands	r2, r2, #31
.LVL1093:
	beq	.L588
	.loc 3 6530 0
	and	r1, r5, #15
	ldr	r8, [r4, r1, asl #2]
	mov	r8, r8, asr r2
.LVL1094:
.L589:
	.loc 3 6536 0
	and	r7, r3, #15
.LVL1095:
	.loc 3 6537 0
	ldr	r6, [r4, r7, asl #2]
.LVL1096:
	.loc 3 6535 0
	mov	r3, r5, lsr #12
.LBB1529:
.LBB1530:
	.loc 1 533 0
	mov	r2, r6, lsr #24
.LBE1530:
.LBE1529:
	.loc 3 6535 0
	and	r3, r3, #15
.LVL1097:
.LBB1538:
.LBB1533:
	.loc 1 533 0
	cmp	r2, #13
.LBE1533:
.LBE1538:
	.loc 3 6538 0
	ldr	r5, [r4, r3, asl #2]
.LVL1098:
.LBB1539:
.LBB1534:
	.loc 1 533 0
	beq	.L592
	cmp	r2, #14
	beq	.L593
	cmp	r2, #4
	beq	.L5266
.LVL1099:
.L594:
.LBE1534:
.LBE1539:
	.loc 3 6539 0
	add	r6, r8, r6
.LVL1100:
	str	r6, [r4, r7, asl #2]
.LBE1528:
	.loc 3 6542 0
	b	.L152
.LVL1101:
.L246:
.LBB1541:
	.loc 3 6509 0
	mov	r8, r5, lsr #7
.LVL1102:
	.loc 3 6510 0
	ands	r8, r8, #31
.LVL1103:
	andne	r2, r5, #15
	.loc 3 6512 0
	and	r7, r3, #15
	.loc 3 6510 0
	ldrne	r2, [r4, r2, asl #2]
	.loc 3 6513 0
	ldr	r6, [r4, r7, asl #2]
	.loc 3 6510 0
	movne	r8, r2, lsr r8
.LVL1104:
	.loc 3 6511 0
	mov	r3, r5, lsr #12
.LBB1542:
.LBB1543:
	.loc 1 533 0
	mov	r2, r6, lsr #24
.LBE1543:
.LBE1542:
	.loc 3 6511 0
	and	r3, r3, #15
.LVL1105:
.LBB1551:
.LBB1546:
	.loc 1 533 0
	cmp	r2, #13
.LBE1546:
.LBE1551:
	.loc 3 6514 0
	ldr	r5, [r4, r3, asl #2]
.LVL1106:
.LBB1552:
.LBB1547:
	.loc 1 533 0
	beq	.L585
	.loc 1 533 0 is_stmt 0 discriminator 3
	cmp	r2, #14
	beq	.L586
	cmp	r2, #4
	beq	.L5267
.LVL1107:
.L587:
.LBE1547:
.LBE1552:
	.loc 3 6515 0 is_stmt 1 discriminator 3
	add	r6, r8, r6
.LVL1108:
	str	r6, [r4, r7, asl #2]
.LBE1541:
	.loc 3 6518 0 discriminator 3
	b	.L152
.LVL1109:
.L245:
.LBB1554:
	.loc 3 6494 0
	and	r7, r3, #15
	.loc 3 6495 0
	ldr	r6, [r4, r7, asl #2]
	.loc 3 6492 0
	and	r3, r5, #15
	mov	r1, r5, lsr #7
	ldr	sl, [r4, r3, asl #2]
.LBB1555:
.LBB1556:
	.loc 1 533 0
	mov	r2, r6, lsr #24
.LBE1556:
.LBE1555:
	.loc 3 6493 0
	mov	r3, r5, lsr #12
	.loc 3 6492 0
	and	r1, r1, #31
	.loc 3 6493 0
	and	r3, r3, #15
.LBB1564:
.LBB1559:
	.loc 1 533 0
	cmp	r2, #13
.LBE1559:
.LBE1564:
	.loc 3 6492 0
	mov	sl, sl, asl r1
.LVL1110:
	.loc 3 6496 0
	ldr	r5, [r4, r3, asl #2]
.LVL1111:
.LBB1565:
.LBB1560:
	.loc 1 533 0
	beq	.L579
	cmp	r2, #14
	beq	.L580
	cmp	r2, #4
	beq	.L5268
.L581:
.LBE1560:
.LBE1565:
	.loc 3 6497 0
	add	r6, sl, r6
.LVL1112:
	str	r6, [r4, r7, asl #2]
.LBE1554:
	.loc 3 6500 0
	b	.L152
.LVL1113:
.L348:
.LBB1567:
	.loc 3 8309 0
	ldr	r3, .L5455+28
	mov	r1, r5, lsr #8
	.loc 3 8307 0
	and	r8, r5, #983040
	.loc 3 8309 0
	and	r2, r5, #255
	and	r1, r1, #255
	ldrb	r2, [r3, r2]	@ zero_extendqisi2
	.loc 3 8307 0
	mov	r8, r8, lsr #16
.LVL1114:
	.loc 3 8309 0
	ldrb	r3, [r3, r1]	@ zero_extendqisi2
	ldr	sl, [r4, r8, asl #2]
	add	r3, r2, r3
	sub	sl, sl, r3, asl #2
.LVL1115:
	.loc 3 8313 0
	tst	r5, #32768
	.loc 3 8310 0
	bic	r6, sl, #3
.LVL1116:
	.loc 3 8313 0
	beq	.L1786
	.loc 3 8314 0
	tst	r5, #1
	beq	.L1787
	.loc 3 8314 0 is_stmt 0 discriminator 1
	mov	r0, r6
	bl	_ZL19CPUReadMemoryrealpuj
.LVL1117:
	add	r6, r6, #4
.LVL1118:
	str	r0, [r4, #0]
.LVL1119:
.L1787:
	.loc 3 8315 0 is_stmt 1
	tst	r5, #2
	beq	.L1788
	.loc 3 8315 0 is_stmt 0 discriminator 1
	mov	r0, r6
	bl	_ZL19CPUReadMemoryrealpuj
.LVL1120:
	add	r6, r6, #4
.LVL1121:
	str	r0, [r4, #4]
.LVL1122:
.L1788:
	.loc 3 8316 0 is_stmt 1
	tst	r5, #4
	beq	.L1789
	.loc 3 8316 0 is_stmt 0 discriminator 1
	mov	r0, r6
	bl	_ZL19CPUReadMemoryrealpuj
.LVL1123:
	add	r6, r6, #4
.LVL1124:
	str	r0, [r4, #8]
.LVL1125:
.L1789:
	.loc 3 8317 0 is_stmt 1
	tst	r5, #8
	beq	.L1790
	.loc 3 8317 0 is_stmt 0 discriminator 1
	mov	r0, r6
	bl	_ZL19CPUReadMemoryrealpuj
.LVL1126:
	add	r6, r6, #4
.LVL1127:
	str	r0, [r4, #12]
.LVL1128:
.L1790:
	.loc 3 8318 0 is_stmt 1
	tst	r5, #16
	beq	.L1791
	.loc 3 8318 0 is_stmt 0 discriminator 1
	mov	r0, r6
	bl	_ZL19CPUReadMemoryrealpuj
.LVL1129:
	add	r6, r6, #4
.LVL1130:
	str	r0, [r4, #16]
.LVL1131:
.L1791:
	.loc 3 8319 0 is_stmt 1
	tst	r5, #32
	beq	.L1792
	.loc 3 8319 0 is_stmt 0 discriminator 1
	mov	r0, r6
	bl	_ZL19CPUReadMemoryrealpuj
.LVL1132:
	add	r6, r6, #4
.LVL1133:
	str	r0, [r4, #20]
.LVL1134:
.L1792:
	.loc 3 8320 0 is_stmt 1
	tst	r5, #64
	beq	.L1793
	.loc 3 8320 0 is_stmt 0 discriminator 1
	mov	r0, r6
	bl	_ZL19CPUReadMemoryrealpuj
.LVL1135:
	add	r6, r6, #4
.LVL1136:
	str	r0, [r4, #24]
.LVL1137:
.L1793:
	.loc 3 8321 0 is_stmt 1
	tst	r5, #128
	beq	.L1794
	.loc 3 8321 0 is_stmt 0 discriminator 1
	mov	r0, r6
	bl	_ZL19CPUReadMemoryrealpuj
.LVL1138:
	add	r6, r6, #4
.LVL1139:
	str	r0, [r4, #28]
.LVL1140:
.L1794:
	.loc 3 8322 0 is_stmt 1
	tst	r5, #256
	beq	.L1795
	.loc 3 8322 0 is_stmt 0 discriminator 1
	mov	r0, r6
	bl	_ZL19CPUReadMemoryrealpuj
.LVL1141:
	add	r6, r6, #4
.LVL1142:
	str	r0, [r4, #32]
.LVL1143:
.L1795:
	.loc 3 8323 0 is_stmt 1
	tst	r5, #512
	beq	.L1796
	.loc 3 8323 0 is_stmt 0 discriminator 1
	mov	r0, r6
	bl	_ZL19CPUReadMemoryrealpuj
.LVL1144:
	add	r6, r6, #4
.LVL1145:
	str	r0, [r4, #36]
.LVL1146:
.L1796:
	.loc 3 8324 0 is_stmt 1
	tst	r5, #1024
	beq	.L1797
	.loc 3 8324 0 is_stmt 0 discriminator 1
	mov	r0, r6
	bl	_ZL19CPUReadMemoryrealpuj
.LVL1147:
	add	r6, r6, #4
.LVL1148:
	str	r0, [r4, #40]
.LVL1149:
.L1797:
	.loc 3 8325 0 is_stmt 1
	tst	r5, #2048
	beq	.L1798
	.loc 3 8325 0 is_stmt 0 discriminator 1
	mov	r0, r6
	bl	_ZL19CPUReadMemoryrealpuj
.LVL1150:
	add	r6, r6, #4
.LVL1151:
	str	r0, [r4, #44]
.LVL1152:
.L1798:
	.loc 3 8326 0 is_stmt 1
	tst	r5, #4096
	beq	.L1799
	.loc 3 8326 0 is_stmt 0 discriminator 1
	mov	r0, r6
	bl	_ZL19CPUReadMemoryrealpuj
.LVL1153:
	add	r6, r6, #4
.LVL1154:
	str	r0, [r4, #48]
.LVL1155:
.L1799:
	.loc 3 8327 0 is_stmt 1
	tst	r5, #8192
	beq	.L1800
	.loc 3 8327 0 is_stmt 0 discriminator 1
	mov	r0, r6
	bl	_ZL19CPUReadMemoryrealpuj
.LVL1156:
	add	r6, r6, #4
.LVL1157:
	str	r0, [r4, #52]
.LVL1158:
.L1800:
	.loc 3 8328 0 is_stmt 1
	tst	r5, #16384
	beq	.L1801
	.loc 3 8328 0 is_stmt 0 discriminator 1
	mov	r0, r6
	bl	_ZL19CPUReadMemoryrealpuj
.LVL1159:
	add	r6, r6, #4
.LVL1160:
	str	r0, [r4, #56]
.L1801:
	.loc 3 8330 0 is_stmt 1
	mov	r0, r6
	bl	_ZL19CPUReadMemoryrealpuj
.LVL1161:
	.loc 3 8332 0
	mov	r3, #1
	ands	r3, r5, r3, asl r8
	.loc 3 8330 0
	str	r0, [r4, #60]
	.loc 3 8333 0
	streq	sl, [r4, r8, asl #2]
	.loc 3 8336 0
	ldr	r3, [r4, #60]
	add	r3, r3, #4
	str	r3, [r4, #60]
	b	.L152
.LVL1162:
.L346:
.LBE1567:
.LBB1568:
	.loc 3 8234 0
	ldr	r3, .L5455+28
	mov	r1, r5, lsr #8
	and	r1, r1, #255
	and	r2, r5, #255
	ldrb	r2, [r3, r2]	@ zero_extendqisi2
	ldrb	r3, [r3, r1]	@ zero_extendqisi2
	.loc 3 8232 0
	and	r1, r5, #983040
	.loc 3 8234 0
	ldr	r6, [r4, r1, lsr #14]
	add	r3, r2, r3
	sub	r6, r6, r3, asl #2
	.loc 3 8238 0
	tst	r5, #32768
	.loc 3 8235 0
	bic	r6, r6, #3
.LVL1163:
	.loc 3 8238 0
	beq	.L1749
	.loc 3 8239 0
	tst	r5, #1
	beq	.L1750
	.loc 3 8239 0 is_stmt 0 discriminator 1
	mov	r0, r6
	bl	_ZL19CPUReadMemoryrealpuj
.LVL1164:
	add	r6, r6, #4
.LVL1165:
	str	r0, [r4, #0]
.LVL1166:
.L1750:
	.loc 3 8240 0 is_stmt 1
	tst	r5, #2
	beq	.L1751
	.loc 3 8240 0 is_stmt 0 discriminator 1
	mov	r0, r6
	bl	_ZL19CPUReadMemoryrealpuj
.LVL1167:
	add	r6, r6, #4
.LVL1168:
	str	r0, [r4, #4]
.LVL1169:
.L1751:
	.loc 3 8241 0 is_stmt 1
	tst	r5, #4
	beq	.L1752
	.loc 3 8241 0 is_stmt 0 discriminator 1
	mov	r0, r6
	bl	_ZL19CPUReadMemoryrealpuj
.LVL1170:
	add	r6, r6, #4
.LVL1171:
	str	r0, [r4, #8]
.LVL1172:
.L1752:
	.loc 3 8242 0 is_stmt 1
	tst	r5, #8
	beq	.L1753
	.loc 3 8242 0 is_stmt 0 discriminator 1
	mov	r0, r6
	bl	_ZL19CPUReadMemoryrealpuj
.LVL1173:
	add	r6, r6, #4
.LVL1174:
	str	r0, [r4, #12]
.LVL1175:
.L1753:
	.loc 3 8243 0 is_stmt 1
	tst	r5, #16
	beq	.L1754
	.loc 3 8243 0 is_stmt 0 discriminator 1
	mov	r0, r6
	bl	_ZL19CPUReadMemoryrealpuj
.LVL1176:
	add	r6, r6, #4
.LVL1177:
	str	r0, [r4, #16]
.LVL1178:
.L1754:
	.loc 3 8244 0 is_stmt 1
	tst	r5, #32
	beq	.L1755
	.loc 3 8244 0 is_stmt 0 discriminator 1
	mov	r0, r6
	bl	_ZL19CPUReadMemoryrealpuj
.LVL1179:
	add	r6, r6, #4
.LVL1180:
	str	r0, [r4, #20]
.LVL1181:
.L1755:
	.loc 3 8245 0 is_stmt 1
	tst	r5, #64
	beq	.L1756
	.loc 3 8245 0 is_stmt 0 discriminator 1
	mov	r0, r6
	bl	_ZL19CPUReadMemoryrealpuj
.LVL1182:
	add	r6, r6, #4
.LVL1183:
	str	r0, [r4, #24]
.LVL1184:
.L1756:
	.loc 3 8246 0 is_stmt 1
	tst	r5, #128
	beq	.L1757
	.loc 3 8246 0 is_stmt 0 discriminator 1
	mov	r0, r6
	bl	_ZL19CPUReadMemoryrealpuj
.LVL1185:
	add	r6, r6, #4
.LVL1186:
	str	r0, [r4, #28]
.LVL1187:
.L1757:
	.loc 3 8247 0 is_stmt 1
	tst	r5, #256
	beq	.L1758
	.loc 3 8247 0 is_stmt 0 discriminator 1
	mov	r0, r6
	bl	_ZL19CPUReadMemoryrealpuj
.LVL1188:
	add	r6, r6, #4
.LVL1189:
	str	r0, [r4, #32]
.LVL1190:
.L1758:
	.loc 3 8248 0 is_stmt 1
	tst	r5, #512
	beq	.L1759
	.loc 3 8248 0 is_stmt 0 discriminator 1
	mov	r0, r6
	bl	_ZL19CPUReadMemoryrealpuj
.LVL1191:
	add	r6, r6, #4
.LVL1192:
	str	r0, [r4, #36]
.LVL1193:
.L1759:
	.loc 3 8249 0 is_stmt 1
	tst	r5, #1024
	beq	.L1760
	.loc 3 8249 0 is_stmt 0 discriminator 1
	mov	r0, r6
	bl	_ZL19CPUReadMemoryrealpuj
.LVL1194:
	add	r6, r6, #4
.LVL1195:
	str	r0, [r4, #40]
.LVL1196:
.L1760:
	.loc 3 8250 0 is_stmt 1
	tst	r5, #2048
	beq	.L1761
	.loc 3 8250 0 is_stmt 0 discriminator 1
	mov	r0, r6
	bl	_ZL19CPUReadMemoryrealpuj
.LVL1197:
	add	r6, r6, #4
.LVL1198:
	str	r0, [r4, #44]
.LVL1199:
.L1761:
	.loc 3 8251 0 is_stmt 1
	tst	r5, #4096
	beq	.L1762
	.loc 3 8251 0 is_stmt 0 discriminator 1
	mov	r0, r6
	bl	_ZL19CPUReadMemoryrealpuj
.LVL1200:
	add	r6, r6, #4
.LVL1201:
	str	r0, [r4, #48]
.LVL1202:
.L1762:
	.loc 3 8252 0 is_stmt 1
	tst	r5, #8192
	beq	.L1763
	.loc 3 8252 0 is_stmt 0 discriminator 1
	mov	r0, r6
	bl	_ZL19CPUReadMemoryrealpuj
.LVL1203:
	add	r6, r6, #4
.LVL1204:
	str	r0, [r4, #52]
.LVL1205:
.L1763:
	.loc 3 8253 0 is_stmt 1
	tst	r5, #16384
	beq	.L1764
	.loc 3 8253 0 is_stmt 0 discriminator 1
	mov	r0, r6
	bl	_ZL19CPUReadMemoryrealpuj
.LVL1206:
	add	r6, r6, #4
.LVL1207:
	str	r0, [r4, #56]
.L1764:
	.loc 3 8255 0 is_stmt 1
	mov	r0, r6
	bl	_ZL19CPUReadMemoryrealpuj
.LVL1208:
	.loc 3 8258 0
	add	r0, r0, #4
	str	r0, [r4, #60]
	b	.L152
.LVL1209:
.L345:
.LBE1568:
.LBB1569:
	.loc 3 7441 0
	ldr	r3, .L5455+28
	mov	r1, r5, lsr #8
	and	r1, r1, #255
	and	r2, r5, #255
	ldrb	r2, [r3, r2]	@ zero_extendqisi2
	ldrb	r3, [r3, r1]	@ zero_extendqisi2
	.loc 3 7439 0
	and	r1, r5, #983040
	.loc 3 7441 0
	ldr	r6, [r4, r1, lsr #14]
	add	r3, r2, r3
	sub	r6, r6, r3, asl #2
	.loc 3 7445 0
	tst	r5, #1
	.loc 3 7442 0
	bic	r6, r6, #3
.LVL1210:
	.loc 3 7445 0
	bne	.L5269
.LVL1211:
.L1303:
	.loc 3 7446 0
	tst	r5, #2
	bne	.L5270
.L1304:
	.loc 3 7447 0
	tst	r5, #4
	bne	.L5271
.L1305:
	.loc 3 7448 0
	tst	r5, #8
	beq	.L1433
	.loc 3 7448 0 is_stmt 0 discriminator 1
	mov	r0, r6
	ldr	r1, [r4, #12]
	bl	_ZL16CPUWriteMemorypujj
.LVL1212:
	add	r6, r6, #4
.LVL1213:
	b	.L1433
.LVL1214:
.L264:
.LBE1569:
.LBB1570:
	.loc 3 6619 0 is_stmt 1
	and	r1, r5, #15
	ldr	r0, [r4, r1, asl #2]
	.loc 3 6618 0
	mov	r2, r5, lsr #7
.LVL1215:
	.loc 3 6620 0
	ands	r2, r2, #31
.LVL1216:
	.loc 3 6621 0
	movne	r2, r0, ror r2
.LVL1217:
	.loc 3 6623 0
	ldreq	r2, .L5455+24
.LVL1218:
	.loc 3 6626 0
	and	r3, r3, #15
	.loc 3 6623 0
	ldreqb	r2, [r2, #0]	@ zero_extendqisi2
	.loc 3 6625 0
	mov	r5, r5, lsr #12
.LVL1219:
	.loc 3 6623 0
	moveq	r2, r2, asl #31
	orreq	r2, r2, r0, lsr #1
.LVL1220:
	.loc 3 6627 0
	ldr	r0, [r4, r3, asl #2]
	rsb	r0, r2, r0
.LVL1221:
.LBB1571:
.LBB1572:
	.loc 1 533 0
	mov	r3, r0, lsr #24
.LBE1572:
.LBE1571:
	.loc 3 6625 0
	and	r2, r5, #15
.LVL1222:
.LBB1577:
.LBB1573:
	.loc 1 533 0
	cmp	r3, #13
.LVL1223:
.LBE1573:
.LBE1577:
	.loc 3 6628 0
	ldr	r4, [r4, r2, asl #2]
.LVL1224:
.LBB1578:
.LBB1574:
	.loc 1 533 0
	beq	.L668
	cmp	r3, #14
	bne	.L4929
.LBE1574:
	.loc 1 596 0
	ldr	r3, .L5455+8
	ldrb	r1, [r3, #0]	@ zero_extendqisi2
.LVL1225:
	ldr	r3, .L5455+12
	ldrb	r2, [r3, #0]	@ zero_extendqisi2
.LBB1575:
	ldr	r3, .L5455+16
.LBE1575:
	orr	r2, r1, r2
.LBB1576:
	ldrb	r3, [r3, #0]	@ zero_extendqisi2
	eor	r3, r3, #1
	orrs	r3, r2, r3
	beq	.L152
	.loc 1 597 0
	ldr	r3, .L5455+20
	and	r1, r4, #255
	ldr	r3, [r3, #0]
	blx	r3
.LVL1226:
	b	.L152
.LVL1227:
.L262:
.LBE1576:
.LBE1578:
.LBE1570:
.LBB1579:
	.loc 3 6584 0
	mov	r2, r5, lsr #7
.LVL1228:
	.loc 3 6585 0
	ands	r2, r2, #31
.LVL1229:
	andne	r1, r5, #15
	ldrne	r1, [r4, r1, asl #2]
	.loc 3 6587 0
	and	r3, r3, #15
	.loc 3 6585 0
	movne	r2, r1, lsr r2
.LVL1230:
	.loc 3 6588 0
	ldr	r0, [r4, r3, asl #2]
	.loc 3 6586 0
	mov	r5, r5, lsr #12
.LVL1231:
	.loc 3 6588 0
	rsb	r0, r2, r0
.LVL1232:
.LBB1580:
.LBB1581:
	.loc 1 533 0
	mov	r3, r0, lsr #24
.LBE1581:
.LBE1580:
	.loc 3 6586 0
	and	r2, r5, #15
.LVL1233:
.LBB1586:
.LBB1582:
	.loc 1 533 0
	cmp	r3, #13
.LVL1234:
.LBE1582:
.LBE1586:
	.loc 3 6589 0
	ldr	r4, [r4, r2, asl #2]
.LVL1235:
.LBB1587:
.LBB1583:
	.loc 1 533 0
	beq	.L668
	.loc 1 533 0 is_stmt 0 discriminator 3
	cmp	r3, #14
	bne	.L4929
.LBE1583:
	.loc 1 596 0 is_stmt 1
	ldr	r3, .L5455+8
	ldrb	r1, [r3, #0]	@ zero_extendqisi2
.LVL1236:
	ldr	r3, .L5455+12
	ldrb	r2, [r3, #0]	@ zero_extendqisi2
.LVL1237:
.LBB1584:
	ldr	r3, .L5455+16
.LBE1584:
	orr	r2, r1, r2
.LBB1585:
	ldrb	r3, [r3, #0]	@ zero_extendqisi2
	eor	r3, r3, #1
	orrs	r3, r2, r3
	beq	.L152
	.loc 1 597 0
	ldr	r3, .L5455+20
	and	r1, r4, #255
	ldr	r3, [r3, #0]
	blx	r3
.LVL1238:
	b	.L152
.LVL1239:
.L261:
.LBE1585:
.LBE1587:
.LBE1579:
.LBB1588:
	.loc 3 6573 0
	and	r1, r3, #15
.LVL1240:
	.loc 3 6571 0
	and	r2, r5, #15
	ldr	r2, [r4, r2, asl #2]
	.loc 3 6574 0
	ldr	r0, [r4, r1, asl #2]
	.loc 3 6571 0
	mov	r3, r5, lsr #7
	and	r3, r3, #31
	.loc 3 6574 0
	sub	r0, r0, r2, asl r3
.LVL1241:
	.loc 3 6572 0
	mov	r2, r5, lsr #12
.LBB1589:
.LBB1590:
	.loc 1 533 0
	mov	r3, r0, lsr #24
.LBE1590:
.LBE1589:
	.loc 3 6572 0
	and	r2, r2, #15
.LVL1242:
.LBB1595:
.LBB1591:
	.loc 1 533 0
	cmp	r3, #13
.LBE1591:
.LBE1595:
	.loc 3 6575 0
	ldr	r4, [r4, r2, asl #2]
.LVL1243:
.LBB1596:
.LBB1592:
	.loc 1 533 0
	beq	.L668
	cmp	r3, #14
	bne	.L4929
.LBE1592:
	.loc 1 596 0
	ldr	r3, .L5455+8
	ldrb	r1, [r3, #0]	@ zero_extendqisi2
.LVL1244:
	ldr	r3, .L5455+12
	ldrb	r2, [r3, #0]	@ zero_extendqisi2
.LVL1245:
.LBB1593:
	ldr	r3, .L5455+16
.LBE1593:
	orr	r2, r1, r2
.LBB1594:
	ldrb	r3, [r3, #0]	@ zero_extendqisi2
	eor	r3, r3, #1
	orrs	r3, r2, r3
	beq	.L152
	.loc 1 597 0
	ldr	r3, .L5455+20
	and	r1, r4, #255
	ldr	r3, [r3, #0]
	blx	r3
.LVL1246:
	b	.L152
.LVL1247:
.L312:
.LBE1594:
.LBE1596:
.LBE1588:
.LBB1597:
	.loc 3 4926 0
	mov	r2, r5, lsr #7
.LVL1248:
	.loc 3 4927 0
	and	r0, r5, #15
	.loc 3 4928 0
	ands	r1, r2, #31
.LVL1249:
	.loc 3 4927 0
	ldr	r2, [r4, r0, asl #2]
.LVL1250:
	.loc 3 4931 0
	ldreq	r1, .L5455+24
.LVL1251:
	.loc 3 4929 0
	movne	r2, r2, ror r1
.LVL1252:
	.loc 3 4931 0
	ldreqb	r1, [r1, #0]	@ zero_extendqisi2
	moveq	r1, r1, asl #31
	orreq	r2, r1, r2, lsr #1
.LVL1253:
.L454:
	.loc 3 4934 0
	and	r3, r3, #15
.LVL1254:
	.loc 3 4935 0
	ldr	r0, [r4, r3, asl #2]
	.loc 3 4933 0
	mov	r3, r5, lsr #12
.LVL1255:
	and	r3, r3, #15
.LVL1256:
	.loc 3 4936 0
	ldrb	r1, [r4, r3, asl #2]	@ zero_extendqisi2
	add	r0, r2, r0
.LBE1597:
.LBE2294:
.LBE2313:
.LBE2332:
	.loc 3 8619 0
	add	sp, sp, #12
	ldmfd	sp!, {r4, r5, r6, r7, r8, r9, sl, fp, lr}
.LBB2333:
.LBB2314:
.LBB2295:
.LBB1598:
	.loc 3 4936 0
	b	_ZL14CPUWriteBytepujh
.LVL1257:
.L311:
.LBE1598:
.LBB1599:
	.loc 3 4906 0
	mov	r2, r5, lsr #7
.LVL1258:
	.loc 3 4908 0
	ands	r2, r2, #31
.LVL1259:
	beq	.L451
	.loc 3 4909 0
	and	r1, r5, #15
	ldr	r1, [r4, r1, asl #2]
	mov	r2, r1, asr r2
.LVL1260:
	b	.L454
.LVL1261:
.L310:
.LBE1599:
.LBB1600:
	.loc 3 4892 0
	mov	r2, r5, lsr #7
.LVL1262:
	.loc 3 4893 0
	ands	r2, r2, #31
.LVL1263:
	.loc 3 4893 0 is_stmt 0 discriminator 1
	andne	r1, r5, #15
	ldrne	r1, [r4, r1, asl #2]
	movne	r2, r1, lsr r2
.LVL1264:
	b	.L454
.LVL1265:
.L232:
.LBE1600:
.LBB1601:
	.loc 3 6469 0 is_stmt 1
	mov	r2, r5, lsr #7
.LVL1266:
	.loc 3 6471 0
	ands	r8, r2, #31
.LVL1267:
	.loc 3 6470 0
	and	r1, r5, #15
	ldr	r2, [r4, r1, asl #2]
.LVL1268:
	.loc 3 6474 0
	ldreq	r1, .L5455+24
	.loc 3 6477 0
	and	r7, r3, #15
	.loc 3 6474 0
	ldreqb	r8, [r1, #0]	@ zero_extendqisi2
.LVL1269:
	.loc 3 6478 0
	ldr	r6, [r4, r7, asl #2]
	.loc 3 6474 0
	moveq	r8, r8, asl #31
	.loc 3 6472 0
	movne	r8, r2, ror r8
.LVL1270:
	.loc 3 6474 0
	orreq	r8, r8, r2, lsr #1
.LVL1271:
	.loc 3 6476 0
	mov	r3, r5, lsr #12
.LBB1602:
.LBB1603:
	.loc 1 533 0
	mov	r2, r6, lsr #24
.LBE1603:
.LBE1602:
	.loc 3 6476 0
	and	r3, r3, #15
.LVL1272:
.LBB1611:
.LBB1606:
	.loc 1 533 0
	cmp	r2, #13
.LBE1606:
.LBE1611:
	.loc 3 6479 0
	ldr	r5, [r4, r3, asl #2]
.LVL1273:
.LBB1612:
.LBB1607:
	.loc 1 533 0
	beq	.L574
	cmp	r2, #14
	beq	.L575
	cmp	r2, #4
	beq	.L5272
.LVL1274:
.L576:
.LBE1607:
.LBE1612:
	.loc 3 6480 0
	rsb	r6, r8, r6
.LVL1275:
	str	r6, [r4, r7, asl #2]
.LBE1601:
	.loc 3 6483 0
	b	.L152
.LVL1276:
.L231:
.LBB1615:
	.loc 3 6445 0
	mov	r2, r5, lsr #7
.LVL1277:
	.loc 3 6447 0
	ands	r2, r2, #31
.LVL1278:
	beq	.L563
	.loc 3 6448 0
	and	r1, r5, #15
	ldr	r8, [r4, r1, asl #2]
	mov	r8, r8, asr r2
.LVL1279:
.L564:
	.loc 3 6454 0
	and	r7, r3, #15
.LVL1280:
	.loc 3 6455 0
	ldr	r6, [r4, r7, asl #2]
.LVL1281:
	.loc 3 6453 0
	mov	r3, r5, lsr #12
.LBB1616:
.LBB1617:
	.loc 1 533 0
	mov	r2, r6, lsr #24
.LBE1617:
.LBE1616:
	.loc 3 6453 0
	and	r3, r3, #15
.LVL1282:
.LBB1625:
.LBB1620:
	.loc 1 533 0
	cmp	r2, #13
.LBE1620:
.LBE1625:
	.loc 3 6456 0
	ldr	r5, [r4, r3, asl #2]
.LVL1283:
.LBB1626:
.LBB1621:
	.loc 1 533 0
	beq	.L567
	cmp	r2, #14
	beq	.L568
	cmp	r2, #4
	beq	.L5273
.LVL1284:
.L569:
.LBE1621:
.LBE1626:
	.loc 3 6457 0
	rsb	r6, r8, r6
.LVL1285:
	str	r6, [r4, r7, asl #2]
.LBE1615:
	.loc 3 6460 0
	b	.L152
.LVL1286:
.L230:
.LBB1628:
	.loc 3 6427 0
	mov	r8, r5, lsr #7
.LVL1287:
	.loc 3 6428 0
	ands	r8, r8, #31
.LVL1288:
	andne	r2, r5, #15
	.loc 3 6430 0
	and	r7, r3, #15
	.loc 3 6428 0
	ldrne	r2, [r4, r2, asl #2]
	.loc 3 6431 0
	ldr	r6, [r4, r7, asl #2]
	.loc 3 6428 0
	movne	r8, r2, lsr r8
.LVL1289:
	.loc 3 6429 0
	mov	r3, r5, lsr #12
.LBB1629:
.LBB1630:
	.loc 1 533 0
	mov	r2, r6, lsr #24
.LBE1630:
.LBE1629:
	.loc 3 6429 0
	and	r3, r3, #15
.LVL1290:
.LBB1638:
.LBB1633:
	.loc 1 533 0
	cmp	r2, #13
.LBE1633:
.LBE1638:
	.loc 3 6432 0
	ldr	r5, [r4, r3, asl #2]
.LVL1291:
.LBB1639:
.LBB1634:
	.loc 1 533 0
	beq	.L560
	.loc 1 533 0 is_stmt 0 discriminator 3
	cmp	r2, #14
	beq	.L561
	cmp	r2, #4
	beq	.L5274
.LVL1292:
.L562:
.LBE1634:
.LBE1639:
	.loc 3 6433 0 is_stmt 1 discriminator 3
	rsb	r6, r8, r6
.LVL1293:
	str	r6, [r4, r7, asl #2]
.LBE1628:
	.loc 3 6436 0 discriminator 3
	b	.L152
.LVL1294:
.L229:
.LBB1641:
	.loc 3 6412 0
	and	r7, r3, #15
	.loc 3 6413 0
	ldr	r6, [r4, r7, asl #2]
	.loc 3 6410 0
	and	r3, r5, #15
	mov	r1, r5, lsr #7
	ldr	sl, [r4, r3, asl #2]
.LBB1642:
.LBB1643:
	.loc 1 533 0
	mov	r2, r6, lsr #24
.LBE1643:
.LBE1642:
	.loc 3 6411 0
	mov	r3, r5, lsr #12
	.loc 3 6410 0
	and	r1, r1, #31
	.loc 3 6411 0
	and	r3, r3, #15
.LBB1651:
.LBB1646:
	.loc 1 533 0
	cmp	r2, #13
.LBE1646:
.LBE1651:
	.loc 3 6410 0
	mov	sl, sl, asl r1
.LVL1295:
	.loc 3 6414 0
	ldr	r5, [r4, r3, asl #2]
.LVL1296:
.LBB1652:
.LBB1647:
	.loc 1 533 0
	beq	.L554
	cmp	r2, #14
	beq	.L555
	cmp	r2, #4
	beq	.L5275
.L556:
.LBE1647:
.LBE1652:
	.loc 3 6415 0
	rsb	r6, sl, r6
.LVL1297:
	str	r6, [r4, r7, asl #2]
.LBE1641:
	.loc 3 6418 0
	b	.L152
.LVL1298:
.L224:
.LBB1655:
	.loc 3 4630 0
	and	r6, r3, #15
	.loc 3 4631 0
	ldr	r3, [r4, r6, asl #2]
	.loc 3 4628 0
	mov	r7, r5, asl #20
	.loc 3 4631 0
	add	r7, r3, r7, lsr #20
	.loc 3 4632 0
	mov	r0, r7
	bl	_ZL19CPUReadMemoryrealpuj
.LVL1299:
	.loc 3 4629 0
	mov	r5, r5, lsr #12
.LVL1300:
.LBE1655:
	and	r5, r5, #15
.LVL1301:
.LBB1656:
	.loc 3 4633 0
	cmp	r5, r6
	.loc 3 4632 0
	str	r0, [r4, r5, asl #2]
	.loc 3 4634 0
	strne	r7, [r4, r6, asl #2]
	.loc 3 4636 0
	cmp	r5, #15
	.loc 3 4637 0
	ldreq	r3, [r4, #60]
	biceq	r3, r3, #3
	.loc 3 4639 0
	addeq	r3, r3, #4
	streq	r3, [r4, #60]
	b	.L152
.LVL1302:
.L222:
.LBE1656:
.LBB1657:
	.loc 3 4612 0
	and	r3, r3, #15
	.loc 3 4613 0
	ldr	r3, [r4, r3, asl #2]
	.loc 3 4610 0
	mov	r0, r5, asl #20
	.loc 3 4614 0
	add	r0, r3, r0, lsr #20
	bl	_ZL19CPUReadMemoryrealpuj
.LVL1303:
	.loc 3 4611 0
	mov	r5, r5, lsr #12
.LVL1304:
.LBE1657:
	and	r5, r5, #15
.LVL1305:
.LBB1658:
	.loc 3 4616 0
	cmp	r5, #15
	.loc 3 4614 0
	str	r0, [r4, r5, asl #2]
	.loc 3 4616 0
	.loc 3 4617 0
	ldreq	r3, [r4, #60]
	biceq	r3, r3, #3
	.loc 3 4619 0
	addeq	r3, r3, #4
	streq	r3, [r4, #60]
	b	.L152
.LVL1306:
.L221:
.LBE1658:
.LBB1659:
	.loc 3 4469 0
	and	r3, r3, #15
.LVL1307:
	.loc 3 4470 0
	ldr	r3, [r4, r3, asl #2]
.LVL1308:
	.loc 3 4467 0
	mov	r0, r5, asl #20
	.loc 3 4470 0
	add	r0, r3, r0, lsr #20
.LVL1309:
	.loc 3 4468 0
	mov	r2, r5, lsr #12
.LBB1660:
.LBB1661:
	.loc 1 533 0
	mov	r3, r0, lsr #24
.LBE1661:
.LBE1660:
	.loc 3 4468 0
	and	r2, r2, #15
.LVL1310:
.LBB1666:
.LBB1662:
	.loc 1 533 0
	cmp	r3, #13
.LBE1662:
.LBE1666:
	.loc 3 4471 0
	ldr	r4, [r4, r2, asl #2]
.LVL1311:
.LBB1667:
.LBB1663:
	.loc 1 533 0
	beq	.L668
	cmp	r3, #14
	bne	.L4929
.LBE1663:
	.loc 1 596 0
	ldr	r3, .L5455+8
	ldrb	r1, [r3, #0]	@ zero_extendqisi2
	ldr	r3, .L5455+12
	ldrb	r2, [r3, #0]	@ zero_extendqisi2
.LVL1312:
.LBB1664:
	ldr	r3, .L5455+16
.LBE1664:
	orr	r2, r1, r2
.LBB1665:
	ldrb	r3, [r3, #0]	@ zero_extendqisi2
	eor	r3, r3, #1
	orrs	r3, r2, r3
	beq	.L152
	.loc 1 597 0
	ldr	r3, .L5455+20
	and	r1, r4, #255
	ldr	r3, [r3, #0]
	blx	r3
.LVL1313:
	b	.L152
.LVL1314:
.L228:
.LBE1665:
.LBE1667:
.LBE1659:
.LBB1668:
	.loc 3 6386 0
	and	r6, r3, #15
	.loc 3 6387 0
	ldr	r3, [r4, r6, asl #2]
	.loc 3 6384 0
	mov	r7, r5, asl #20
	.loc 3 6387 0
	add	r7, r3, r7, lsr #20
	.loc 3 6388 0
	mov	r0, r7
	bl	_ZL17CPUReadByterealpuj
.LVL1315:
	.loc 3 6385 0
	mov	r5, r5, lsr #12
.LVL1316:
.LBE1668:
	and	r5, r5, #15
.LVL1317:
.LBB1669:
	.loc 3 6389 0
	cmp	r5, r6
	.loc 3 6388 0
	str	r0, [r4, r5, asl #2]
	.loc 3 6390 0
	strne	r7, [r4, r6, asl #2]
	.loc 3 6392 0
	cmp	r5, #15
	.loc 3 6393 0
	ldreq	r3, [r4, #60]
	biceq	r3, r3, #3
	.loc 3 6395 0
	addeq	r3, r3, #4
	streq	r3, [r4, #60]
	b	.L152
.LVL1318:
.L227:
.LBE1669:
.LBB1670:
	.loc 3 6264 0
	and	r3, r3, #15
.LVL1319:
	.loc 3 6265 0
	ldr	r2, [r4, r3, asl #2]
	.loc 3 6262 0
	mov	r0, r5, asl #20
	.loc 3 6265 0
	add	r0, r2, r0, lsr #20
.LVL1320:
.L4867:
	.loc 3 6263 0
	mov	r5, r5, lsr #12
.LVL1321:
.L4868:
	.loc 3 6266 0
	str	r0, [r4, r3, asl #2]
	.loc 3 6263 0
	and	r3, r5, #15
	.loc 3 6267 0
	ldrb	r1, [r4, r3, asl #2]	@ zero_extendqisi2
.LBE1670:
.LBE2295:
.LBE2314:
.LBE2333:
	.loc 3 8619 0
	add	sp, sp, #12
	ldmfd	sp!, {r4, r5, r6, r7, r8, r9, sl, fp, lr}
.LBB2334:
.LBB2315:
.LBB2296:
.LBB1671:
	.loc 3 6267 0
	b	_ZL14CPUWriteBytepujh
.LVL1322:
.L226:
.LBE1671:
.LBB1672:
	.loc 3 6366 0
	and	r3, r3, #15
	.loc 3 6367 0
	ldr	r3, [r4, r3, asl #2]
	.loc 3 6364 0
	mov	r0, r5, asl #20
	.loc 3 6368 0
	add	r0, r3, r0, lsr #20
	bl	_ZL17CPUReadByterealpuj
.LVL1323:
	.loc 3 6365 0
	mov	r5, r5, lsr #12
.LVL1324:
.LBE1672:
	and	r5, r5, #15
.LVL1325:
.LBB1673:
	.loc 3 6370 0
	cmp	r5, #15
	.loc 3 6368 0
	str	r0, [r4, r5, asl #2]
	.loc 3 6370 0
	.loc 3 6371 0
	ldreq	r3, [r4, #60]
	biceq	r3, r3, #3
	.loc 3 6373 0
	addeq	r3, r3, #4
	streq	r3, [r4, #60]
	b	.L152
.LVL1326:
.L225:
.LBE1673:
.LBB1674:
	.loc 3 6252 0
	and	r3, r3, #15
.LVL1327:
	.loc 3 6253 0
	ldr	r2, [r4, r3, asl #2]
	.loc 3 6251 0
	mov	r3, r5, lsr #12
.LVL1328:
	and	r3, r3, #15
.LVL1329:
	.loc 3 6250 0
	mov	r0, r5, asl #20
	.loc 3 6254 0
	ldrb	r1, [r4, r3, asl #2]	@ zero_extendqisi2
	add	r0, r2, r0, lsr #20
.LBE1674:
.LBE2296:
.LBE2315:
.LBE2334:
	.loc 3 8619 0
	add	sp, sp, #12
	ldmfd	sp!, {r4, r5, r6, r7, r8, r9, sl, fp, lr}
.LBB2335:
.LBB2316:
.LBB2297:
.LBB1675:
	.loc 3 6254 0
	b	_ZL14CPUWriteBytepujh
.LVL1330:
.L220:
.LBE1675:
.LBB1676:
	.loc 3 6344 0
	and	r6, r3, #15
	.loc 3 6345 0
	ldr	r7, [r4, r6, asl #2]
	.loc 3 6342 0
	mov	r3, r5, asl #20
	.loc 3 6345 0
	sub	r7, r7, r3, lsr #20
	.loc 3 6346 0
	mov	r0, r7
	bl	_ZL17CPUReadByterealpuj
.LVL1331:
	.loc 3 6343 0
	mov	r5, r5, lsr #12
.LVL1332:
.LBE1676:
	and	r5, r5, #15
.LVL1333:
.LBB1677:
	.loc 3 6347 0
	cmp	r5, r6
	.loc 3 6346 0
	str	r0, [r4, r5, asl #2]
	.loc 3 6348 0
	strne	r7, [r4, r6, asl #2]
	.loc 3 6350 0
	cmp	r5, #15
	.loc 3 6351 0
	ldreq	r3, [r4, #60]
	biceq	r3, r3, #3
	.loc 3 6353 0
	addeq	r3, r3, #4
	streq	r3, [r4, #60]
	b	.L152
.LVL1334:
.L219:
.LBE1677:
.LBB1678:
	.loc 3 6239 0
	and	r3, r3, #15
.LVL1335:
	.loc 3 6240 0
	ldr	r0, [r4, r3, asl #2]
	.loc 3 6237 0
	mov	r2, r5, asl #20
	.loc 3 6240 0
	sub	r0, r0, r2, lsr #20
.LVL1336:
	b	.L4867
.LVL1337:
.L218:
.LBE1678:
.LBB1679:
	.loc 3 6324 0
	and	r3, r3, #15
	.loc 3 6325 0
	ldr	r0, [r4, r3, asl #2]
	.loc 3 6322 0
	mov	r3, r5, asl #20
	.loc 3 6326 0
	sub	r0, r0, r3, lsr #20
	bl	_ZL17CPUReadByterealpuj
.LVL1338:
	.loc 3 6323 0
	mov	r5, r5, lsr #12
.LVL1339:
.LBE1679:
	and	r5, r5, #15
.LVL1340:
.LBB1680:
	.loc 3 6328 0
	cmp	r5, #15
	.loc 3 6326 0
	str	r0, [r4, r5, asl #2]
	.loc 3 6328 0
	.loc 3 6329 0
	ldreq	r3, [r4, #60]
	biceq	r3, r3, #3
	.loc 3 6331 0
	addeq	r3, r3, #4
	streq	r3, [r4, #60]
	b	.L152
.LVL1341:
.L217:
.LBE1680:
.LBB1681:
	.loc 3 4680 0
	and	r3, r3, #15
.LVL1342:
	.loc 3 4681 0
	ldr	r0, [r4, r3, asl #2]
	.loc 3 4679 0
	mov	r3, r5, lsr #12
.LVL1343:
	and	r3, r3, #15
.LVL1344:
	.loc 3 4678 0
	mov	r5, r5, asl #20
.LVL1345:
	.loc 3 4682 0
	ldrb	r1, [r4, r3, asl #2]	@ zero_extendqisi2
	sub	r0, r0, r5, lsr #20
.LBE1681:
.LBE2297:
.LBE2316:
.LBE2335:
	.loc 3 8619 0
	add	sp, sp, #12
	ldmfd	sp!, {r4, r5, r6, r7, r8, r9, sl, fp, lr}
.LBB2336:
.LBB2317:
.LBB2298:
.LBB1682:
	.loc 3 4682 0
	b	_ZL14CPUWriteBytepujh
.LVL1346:
.L223:
.LBE1682:
.LBB1683:
	.loc 3 4481 0
	and	r3, r3, #15
.LVL1347:
	.loc 3 4482 0
	ldr	r2, [r4, r3, asl #2]
	.loc 3 4479 0
	mov	r0, r5, asl #20
	.loc 3 4482 0
	add	r0, r2, r0, lsr #20
.LVL1348:
	.loc 3 4480 0
	mov	r5, r5, lsr #12
.LVL1349:
.LBB1684:
.LBB1685:
	.loc 1 533 0
	mov	r2, r0, lsr #24
.LBE1685:
.LBE1684:
	.loc 3 4483 0
	str	r0, [r4, r3, asl #2]
.LBB1690:
.LBB1686:
	.loc 1 533 0
	cmp	r2, #13
.LBE1686:
.LBE1690:
	.loc 3 4480 0
	and	r3, r5, #15
.LVL1350:
	.loc 3 4484 0
	ldr	r4, [r4, r3, asl #2]
.LVL1351:
.LBB1691:
.LBB1687:
	.loc 1 533 0
	beq	.L668
	cmp	r2, #14
	bne	.L4931
.LBE1687:
	.loc 1 596 0
	ldr	r3, .L5455+8
.LVL1352:
	ldrb	r1, [r3, #0]	@ zero_extendqisi2
	ldr	r3, .L5455+12
	ldrb	r2, [r3, #0]	@ zero_extendqisi2
.LBB1688:
	ldr	r3, .L5455+16
.LBE1688:
	orr	r2, r1, r2
.LBB1689:
	ldrb	r3, [r3, #0]	@ zero_extendqisi2
	eor	r3, r3, #1
	orrs	r3, r2, r3
	beq	.L152
	.loc 1 597 0
	ldr	r3, .L5455+20
	and	r1, r4, #255
	ldr	r3, [r3, #0]
	blx	r3
.LVL1353:
	b	.L152
.LVL1354:
.L240:
.LBE1689:
.LBE1691:
.LBE1683:
.LBB1692:
	.loc 3 5749 0
	and	r1, r5, #15
	.loc 3 5748 0
	mov	r2, r5, lsr #7
.LVL1355:
	.loc 3 5750 0
	ands	r7, r2, #31
.LVL1356:
	.loc 3 5749 0
	ldr	r2, [r4, r1, asl #2]
.LVL1357:
	.loc 3 5753 0
	ldreq	r1, .L5455+24
	.loc 3 5751 0
	movne	r7, r2, ror r7
.LVL1358:
	.loc 3 5753 0
	ldreqb	r7, [r1, #0]	@ zero_extendqisi2
.LVL1359:
	.loc 3 5756 0
	and	r6, r3, #15
	.loc 3 5753 0
	moveq	r7, r7, asl #31
	.loc 3 5757 0
	ldr	r8, [r4, r6, asl #2]
	.loc 3 5755 0
	mov	r3, r5, lsr #12
	.loc 3 5753 0
	orreq	r7, r7, r2, lsr #1
.LVL1360:
	.loc 3 5755 0
	and	r3, r3, #15
.LVL1361:
	.loc 3 5758 0
	mov	r0, r8
	ldrb	r1, [r4, r3, asl #2]	@ zero_extendqisi2
	.loc 3 5759 0
	rsb	r7, r7, r8
.LVL1362:
	.loc 3 5758 0
	bl	_ZL14CPUWriteBytepujh
.LVL1363:
	.loc 3 5759 0
	str	r7, [r4, r6, asl #2]
.LBE1692:
	.loc 3 5762 0
	b	.L152
.LVL1364:
.L239:
.LBB1693:
	.loc 3 5724 0
	mov	r2, r5, lsr #7
.LVL1365:
	.loc 3 5726 0
	ands	r2, r2, #31
.LVL1366:
	beq	.L510
	.loc 3 5727 0
	and	r1, r5, #15
	ldr	r7, [r4, r1, asl #2]
	mov	r7, r7, asr r2
.LVL1367:
.L511:
	.loc 3 5733 0
	and	r6, r3, #15
.LVL1368:
	.loc 3 5734 0
	ldr	r8, [r4, r6, asl #2]
.LVL1369:
	.loc 3 5732 0
	mov	r3, r5, lsr #12
	and	r3, r3, #15
.LVL1370:
	.loc 3 5735 0
	mov	r0, r8
	ldrb	r1, [r4, r3, asl #2]	@ zero_extendqisi2
	.loc 3 5736 0
	rsb	r7, r7, r8
.LVL1371:
	.loc 3 5735 0
	bl	_ZL14CPUWriteBytepujh
.LVL1372:
	.loc 3 5736 0
	str	r7, [r4, r6, asl #2]
.LBE1693:
	.loc 3 5739 0
	b	.L152
.LVL1373:
.L238:
.LBB1694:
	.loc 3 5706 0
	mov	r7, r5, lsr #7
.LVL1374:
	.loc 3 5707 0
	ands	r7, r7, #31
.LVL1375:
	andne	r2, r5, #15
	ldrne	r2, [r4, r2, asl #2]
	.loc 3 5709 0
	and	r6, r3, #15
	.loc 3 5707 0
	movne	r7, r2, lsr r7
.LVL1376:
	.loc 3 5710 0
	ldr	r8, [r4, r6, asl #2]
.LVL1377:
	.loc 3 5708 0
	mov	r3, r5, lsr #12
	and	r3, r3, #15
.LVL1378:
	.loc 3 5711 0
	mov	r0, r8
	ldrb	r1, [r4, r3, asl #2]	@ zero_extendqisi2
	.loc 3 5712 0
	rsb	r7, r7, r8
.LVL1379:
	.loc 3 5711 0
	bl	_ZL14CPUWriteBytepujh
.LVL1380:
	.loc 3 5712 0
	str	r7, [r4, r6, asl #2]
.LBE1694:
	.loc 3 5715 0
	b	.L152
.LVL1381:
.L237:
.LBB1695:
	.loc 3 5689 0
	and	r2, r5, #15
	ldr	r8, [r4, r2, asl #2]
	mov	r2, r5, lsr #7
	and	r2, r2, #31
	mov	r8, r8, asl r2
.LVL1382:
	.loc 3 5691 0
	and	r6, r3, #15
.LVL1383:
	.loc 3 5692 0
	ldr	r7, [r4, r6, asl #2]
.LVL1384:
	.loc 3 5690 0
	mov	r3, r5, lsr #12
	and	r3, r3, #15
.LVL1385:
	.loc 3 5693 0
	mov	r0, r7
	ldrb	r1, [r4, r3, asl #2]	@ zero_extendqisi2
	.loc 3 5694 0
	rsb	r7, r8, r7
.LVL1386:
	.loc 3 5693 0
	bl	_ZL14CPUWriteBytepujh
.LVL1387:
	.loc 3 5694 0
	str	r7, [r4, r6, asl #2]
.LBE1695:
	.loc 3 5697 0
	b	.L152
.LVL1388:
.L236:
.LBB1696:
	.loc 3 6926 0
	mov	r2, r5, lsr #7
.LVL1389:
	.loc 3 6928 0
	ands	r7, r2, #31
.LVL1390:
	.loc 3 6927 0
	and	r1, r5, #15
	ldr	r2, [r4, r1, asl #2]
.LVL1391:
	.loc 3 6931 0
	ldreq	r1, .L5455+24
	.loc 3 6934 0
	and	r6, r3, #15
	.loc 3 6931 0
	ldreqb	r7, [r1, #0]	@ zero_extendqisi2
.LVL1392:
	.loc 3 6935 0
	ldr	r8, [r4, r6, asl #2]
	.loc 3 6931 0
	moveq	r7, r7, asl #31
	.loc 3 6929 0
	movne	r7, r2, ror r7
.LVL1393:
	.loc 3 6936 0
	mov	r0, r8
	.loc 3 6931 0
	orreq	r7, r7, r2, lsr #1
.LVL1394:
	.loc 3 6936 0
	bl	_ZL19CPUReadMemoryrealpuj
.LVL1395:
	.loc 3 6933 0
	mov	r5, r5, lsr #12
.LVL1396:
	and	r5, r5, #15
.LVL1397:
	.loc 3 6937 0
	cmp	r5, r6
	.loc 3 6938 0
	rsbne	r7, r7, r8
.LVL1398:
	.loc 3 6936 0
	str	r0, [r4, r5, asl #2]
	.loc 3 6938 0
	strne	r7, [r4, r6, asl #2]
	.loc 3 6940 0
	cmp	r5, #15
	.loc 3 6941 0
	ldreq	r3, [r4, #60]
	biceq	r3, r3, #3
	.loc 3 6943 0
	addeq	r3, r3, #4
	streq	r3, [r4, #60]
	b	.L152
.LVL1399:
.L235:
.LBE1696:
.LBB1697:
	.loc 3 6895 0
	mov	r2, r5, lsr #7
.LVL1400:
	.loc 3 6897 0
	ands	r2, r2, #31
.LVL1401:
	beq	.L673
	.loc 3 6898 0
	and	r1, r5, #15
	ldr	r7, [r4, r1, asl #2]
	mov	r7, r7, asr r2
.LVL1402:
.L674:
	.loc 3 6904 0
	and	r6, r3, #15
	.loc 3 6905 0
	ldr	r8, [r4, r6, asl #2]
	.loc 3 6903 0
	mov	r5, r5, lsr #12
.LVL1403:
	.loc 3 6906 0
	mov	r0, r8
	bl	_ZL19CPUReadMemoryrealpuj
.LVL1404:
	.loc 3 6903 0
	and	r5, r5, #15
.LVL1405:
	.loc 3 6907 0
	cmp	r5, r6
	.loc 3 6908 0
	rsbne	r7, r7, r8
.LVL1406:
	.loc 3 6906 0
	str	r0, [r4, r5, asl #2]
	.loc 3 6908 0
	strne	r7, [r4, r6, asl #2]
	.loc 3 6910 0
	cmp	r5, #15
	.loc 3 6911 0
	ldreq	r3, [r4, #60]
	biceq	r3, r3, #3
	.loc 3 6913 0
	addeq	r3, r3, #4
	streq	r3, [r4, #60]
	b	.L152
.LVL1407:
.L234:
.LBE1697:
.LBB1698:
	.loc 3 6870 0
	mov	r7, r5, lsr #7
.LVL1408:
	.loc 3 6871 0
	ands	r7, r7, #31
.LVL1409:
	andne	r2, r5, #15
	.loc 3 6873 0
	and	r6, r3, #15
	.loc 3 6871 0
	ldrne	r2, [r4, r2, asl #2]
	.loc 3 6874 0
	ldr	r8, [r4, r6, asl #2]
	.loc 3 6871 0
	movne	r7, r2, lsr r7
.LVL1410:
	.loc 3 6875 0
	mov	r0, r8
	bl	_ZL19CPUReadMemoryrealpuj
.LVL1411:
	.loc 3 6872 0
	mov	r5, r5, lsr #12
.LVL1412:
	and	r5, r5, #15
.LVL1413:
	.loc 3 6876 0
	cmp	r5, r6
	.loc 3 6877 0
	rsbne	r7, r7, r8
.LVL1414:
	.loc 3 6875 0
	str	r0, [r4, r5, asl #2]
	.loc 3 6877 0
	strne	r7, [r4, r6, asl #2]
	.loc 3 6879 0
	cmp	r5, #15
	.loc 3 6880 0
	ldreq	r3, [r4, #60]
	biceq	r3, r3, #3
	.loc 3 6882 0
	addeq	r3, r3, #4
	streq	r3, [r4, #60]
	b	.L152
.LVL1415:
.L347:
.LBE1698:
.LBB1699:
	.loc 3 7489 0
	ldr	r3, .L5455+28
	mov	r1, r5, lsr #8
	.loc 3 7487 0
	and	sl, r5, #983040
	.loc 3 7489 0
	and	r2, r5, #255
	and	r1, r1, #255
	ldrb	r2, [r3, r2]	@ zero_extendqisi2
	.loc 3 7487 0
	mov	sl, sl, lsr #16
.LVL1416:
	.loc 3 7489 0
	ldrb	r3, [r3, r1]	@ zero_extendqisi2
	ldr	r9, [r4, sl, asl #2]
	add	r3, r2, r3
	sub	r9, r9, r3, asl #2
.LVL1417:
	.loc 3 7493 0
	ands	r8, r5, #1
	.loc 3 7490 0
	bic	r6, r9, #3
.LVL1418:
	.loc 3 7493 0
	bne	.L5276
.LVL1419:
.L1325:
	.loc 3 7494 0
	tst	r5, #2
	bne	.L5277
.LVL1420:
.L1326:
	.loc 3 7495 0
	tst	r5, #4
	bne	.L5278
.LVL1421:
.L1328:
	.loc 3 7496 0
	tst	r5, #8
	bne	.L5279
.LVL1422:
.L1330:
	.loc 3 7497 0
	tst	r5, #16
	bne	.L5280
.LVL1423:
.L1332:
	.loc 3 7498 0
	tst	r5, #32
	bne	.L5281
.LVL1424:
.L1334:
	.loc 3 7499 0
	tst	r5, #64
	bne	.L5282
.LVL1425:
.L1336:
	.loc 3 7500 0
	tst	r5, #128
	bne	.L5283
.LVL1426:
.L1343:
	.loc 3 7502 0
	ldr	r7, .L5455+4
	ldr	r3, [r7, #0]
	cmp	r3, #17
	beq	.L5284
	.loc 3 7509 0
	tst	r5, #256
	bne	.L5285
.LVL1427:
.L1356:
	.loc 3 7510 0
	tst	r5, #512
	bne	.L5286
.LVL1428:
.L1358:
	.loc 3 7511 0
	tst	r5, #1024
	bne	.L5287
.LVL1429:
.L1360:
	.loc 3 7512 0
	tst	r5, #2048
	bne	.L5288
.LVL1430:
.L1362:
	.loc 3 7513 0
	tst	r5, #4096
	bne	.L5289
.LVL1431:
.L1354:
	.loc 3 7516 0
	ldr	r3, [r7, #0]
	cmp	r3, #31
	cmpne	r3, #16
	beq	.L1365
	.loc 3 7517 0
	tst	r5, #8192
	beq	.L1366
	.loc 3 7517 0 is_stmt 0 discriminator 1
	mov	r0, r6
	ldr	r1, [r4, #104]
	bl	_ZL16CPUWriteMemorypujj
.LVL1432:
	cmp	r8, #0
	streq	r9, [r4, sl, asl #2]
.LVL1433:
	add	r6, r6, #4
.LVL1434:
	mov	r8, #1
.LVL1435:
.L1366:
	.loc 3 7518 0 is_stmt 1
	tst	r5, #16384
	bne	.L5290
.LVL1436:
.L1368:
	.loc 3 7524 0
	tst	r5, #32768
	beq	.L152
	.loc 3 7525 0
	ldr	r1, [r4, #60]
	mov	r0, r6
	add	r1, r1, #4
	bl	_ZL16CPUWriteMemorypujj
.LVL1437:
	.loc 3 7527 0
	str	r9, [r4, sl, asl #2]
	b	.L152
.L5456:
	.align	2
.L5455:
	.word	.LC0
	.word	armMode
	.word	cpuFlashEnabled
	.word	cpuSramEnabled
	.word	eepromInUse
	.word	cpuSaveGameFunc
	.word	C_FLAG
	.word	cpuBitsSet
.LVL1438:
.L328:
.LBE1699:
.LBB1710:
	.loc 3 7739 0
	ldr	r3, .L5455+28
	mov	r1, r5, lsr #8
	.loc 3 7737 0
	and	r7, r5, #983040
	.loc 3 7739 0
	and	r2, r5, #255
	and	r1, r1, #255
	ldrb	r2, [r3, r2]	@ zero_extendqisi2
	.loc 3 7737 0
	mov	r7, r7, lsr #16
.LVL1439:
	.loc 3 7739 0
	ldrb	r3, [r3, r1]	@ zero_extendqisi2
	ldr	r8, [r4, r7, asl #2]
	add	r3, r2, r3
	sub	r8, r8, r3, asl #2
.LVL1440:
	.loc 3 7740 0
	add	r6, r8, #4
	.loc 3 7743 0
	tst	r5, #1
	.loc 3 7740 0
	bic	r6, r6, #3
.LVL1441:
	.loc 3 7743 0
	bne	.L5291
.LVL1442:
.L1515:
	.loc 3 7744 0
	tst	r5, #2
	bne	.L5292
.L1516:
	.loc 3 7745 0
	tst	r5, #4
	bne	.L5293
.L1517:
	.loc 3 7746 0
	tst	r5, #8
	bne	.L5294
.L1518:
	.loc 3 7747 0
	tst	r5, #16
	bne	.L5295
.L1519:
	.loc 3 7748 0
	tst	r5, #32
	bne	.L5296
.L1520:
	.loc 3 7749 0
	tst	r5, #64
	bne	.L5297
.L1521:
	.loc 3 7750 0
	tst	r5, #128
	bne	.L5298
.L1522:
	.loc 3 7751 0
	tst	r5, #256
	bne	.L5299
.L1523:
	.loc 3 7752 0
	tst	r5, #512
	bne	.L5300
.L1524:
	.loc 3 7753 0
	tst	r5, #1024
	bne	.L5301
.L1525:
	.loc 3 7754 0
	tst	r5, #2048
	bne	.L5302
.L1526:
	.loc 3 7755 0
	tst	r5, #4096
	bne	.L5303
.L1527:
	.loc 3 7756 0
	tst	r5, #8192
	bne	.L5304
.L1528:
	.loc 3 7757 0
	tst	r5, #16384
	bne	.L5305
.L1529:
	.loc 3 7758 0
	tst	r5, #32768
	bne	.L5306
.L1530:
	.loc 3 7766 0
	mov	r3, #1
	ands	r3, r5, r3, asl r7
	.loc 3 7767 0
	streq	r8, [r4, r7, asl #2]
	b	.L152
.LVL1443:
.L268:
.LBE1710:
.LBB1711:
	.loc 3 5954 0
	mov	r2, r5, lsr #7
.LVL1444:
	.loc 3 5955 0
	and	r0, r5, #15
	.loc 3 5956 0
	ands	r1, r2, #31
.LVL1445:
	.loc 3 5955 0
	ldr	r2, [r4, r0, asl #2]
.LVL1446:
	.loc 3 5959 0
	ldreq	r1, .L5455+24
.LVL1447:
	.loc 3 5957 0
	movne	r2, r2, ror r1
.LVL1448:
	.loc 3 5959 0
	ldreqb	r1, [r1, #0]	@ zero_extendqisi2
	.loc 3 5962 0
	and	r3, r3, #15
	.loc 3 5959 0
	moveq	r1, r1, asl #31
	.loc 3 5963 0
	ldr	r0, [r4, r3, asl #2]
	.loc 3 5959 0
	orreq	r2, r1, r2, lsr #1
.LVL1449:
	.loc 3 5964 0
	rsb	r0, r2, r0
	bl	_ZL19CPUReadMemoryrealpuj
.LVL1450:
	.loc 3 5961 0
	mov	r5, r5, lsr #12
.LVL1451:
	and	r5, r5, #15
.LVL1452:
	.loc 3 5966 0
	cmp	r5, #15
	.loc 3 5964 0
	str	r0, [r4, r5, asl #2]
	.loc 3 5966 0
	.loc 3 5967 0
	ldreq	r3, [r4, #60]
	biceq	r3, r3, #3
	.loc 3 5969 0
	addeq	r3, r3, #4
	streq	r3, [r4, #60]
	b	.L152
.LVL1453:
.L267:
.LBE1711:
.LBB1712:
	.loc 3 5928 0
	mov	r2, r5, lsr #7
.LVL1454:
	.loc 3 5930 0
	ands	r2, r2, #31
.LVL1455:
	beq	.L524
	.loc 3 5931 0
	and	r1, r5, #15
	ldr	r1, [r4, r1, asl #2]
	mov	r2, r1, asr r2
.LVL1456:
.L525:
	.loc 3 5937 0
	and	r3, r3, #15
	.loc 3 5938 0
	ldr	r0, [r4, r3, asl #2]
	.loc 3 5936 0
	mov	r5, r5, lsr #12
.LVL1457:
	.loc 3 5939 0
	rsb	r0, r2, r0
	bl	_ZL19CPUReadMemoryrealpuj
.LVL1458:
	.loc 3 5936 0
	and	r5, r5, #15
.LVL1459:
	.loc 3 5941 0
	cmp	r5, #15
	.loc 3 5939 0
	str	r0, [r4, r5, asl #2]
	.loc 3 5941 0
	.loc 3 5942 0
	ldreq	r3, [r4, #60]
	biceq	r3, r3, #3
	.loc 3 5944 0
	addeq	r3, r3, #4
	streq	r3, [r4, #60]
	b	.L152
.LVL1460:
.L266:
.LBE1712:
.LBB1713:
	.loc 3 5908 0
	mov	r2, r5, lsr #7
.LVL1461:
	.loc 3 5909 0
	ands	r2, r2, #31
.LVL1462:
	andne	r1, r5, #15
	ldrne	r1, [r4, r1, asl #2]
	.loc 3 5911 0
	and	r3, r3, #15
	.loc 3 5909 0
	movne	r2, r1, lsr r2
.LVL1463:
	.loc 3 5912 0
	ldr	r0, [r4, r3, asl #2]
	.loc 3 5910 0
	mov	r5, r5, lsr #12
.LVL1464:
	.loc 3 5913 0
	rsb	r0, r2, r0
	bl	_ZL19CPUReadMemoryrealpuj
.LVL1465:
	.loc 3 5910 0
	and	r5, r5, #15
.LVL1466:
	.loc 3 5915 0
	cmp	r5, #15
	.loc 3 5913 0
	str	r0, [r4, r5, asl #2]
	.loc 3 5915 0
	.loc 3 5916 0
	ldreq	r3, [r4, #60]
	biceq	r3, r3, #3
	.loc 3 5918 0
	addeq	r3, r3, #4
	streq	r3, [r4, #60]
	b	.L152
.LVL1467:
.L269:
.LBE1713:
.LBB1714:
	.loc 3 6639 0
	and	r3, r3, #15
.LVL1468:
	.loc 3 6637 0
	and	r2, r5, #15
	ldr	r1, [r4, r2, asl #2]
	.loc 3 6640 0
	ldr	r0, [r4, r3, asl #2]
	.loc 3 6637 0
	mov	r2, r5, lsr #7
	and	r2, r2, #31
	.loc 3 6640 0
	sub	r0, r0, r1, asl r2
.LVL1469:
	.loc 3 6638 0
	mov	r5, r5, lsr #12
.LVL1470:
.LBB1715:
.LBB1716:
	.loc 1 533 0
	mov	r2, r0, lsr #24
.LBE1716:
.LBE1715:
	.loc 3 6641 0
	str	r0, [r4, r3, asl #2]
.LBB1721:
.LBB1717:
	.loc 1 533 0
	cmp	r2, #13
.LBE1717:
.LBE1721:
	.loc 3 6638 0
	and	r3, r5, #15
.LVL1471:
	.loc 3 6642 0
	ldr	r4, [r4, r3, asl #2]
.LVL1472:
.LBB1722:
.LBB1718:
	.loc 1 533 0
	beq	.L668
	cmp	r2, #14
	bne	.L4931
.LBE1718:
	.loc 1 596 0
	ldr	r3, .L5455+8
.LVL1473:
	ldrb	r1, [r3, #0]	@ zero_extendqisi2
	ldr	r3, .L5455+12
	ldrb	r2, [r3, #0]	@ zero_extendqisi2
.LBB1719:
	ldr	r3, .L5455+16
.LBE1719:
	orr	r2, r1, r2
.LBB1720:
	ldrb	r3, [r3, #0]	@ zero_extendqisi2
	eor	r3, r3, #1
	orrs	r3, r2, r3
	beq	.L152
	.loc 1 597 0
	ldr	r3, .L5455+20
	and	r1, r4, #255
	ldr	r3, [r3, #0]
	blx	r3
.LVL1474:
	b	.L152
.LVL1475:
.L265:
.LBE1720:
.LBE1722:
.LBE1714:
.LBB1723:
	.loc 3 5891 0
	and	r3, r3, #15
	.loc 3 5889 0
	and	r2, r5, #15
	.loc 3 5892 0
	ldr	r0, [r4, r3, asl #2]
	.loc 3 5889 0
	ldr	r2, [r4, r2, asl #2]
	mov	r3, r5, lsr #7
	and	r3, r3, #31
	.loc 3 5893 0
	sub	r0, r0, r2, asl r3
	bl	_ZL19CPUReadMemoryrealpuj
.LVL1476:
	.loc 3 5890 0
	mov	r5, r5, lsr #12
.LVL1477:
.LBE1723:
	and	r5, r5, #15
.LVL1478:
.LBB1724:
	.loc 3 5895 0
	cmp	r5, #15
	.loc 3 5893 0
	str	r0, [r4, r5, asl #2]
	.loc 3 5895 0
	.loc 3 5896 0
	ldreq	r3, [r4, #60]
	biceq	r3, r3, #3
	.loc 3 5898 0
	addeq	r3, r3, #4
	streq	r3, [r4, #60]
	b	.L152
.LVL1479:
.L296:
.LBE1724:
.LBB1725:
	.loc 3 6755 0
	and	r1, r5, #15
	ldr	r0, [r4, r1, asl #2]
	.loc 3 6754 0
	mov	r2, r5, lsr #7
.LVL1480:
	.loc 3 6756 0
	ands	r2, r2, #31
.LVL1481:
	.loc 3 6757 0
	movne	r2, r0, ror r2
.LVL1482:
	.loc 3 6759 0
	ldreq	r2, .L5455+24
.LVL1483:
	.loc 3 6762 0
	and	r3, r3, #15
	.loc 3 6759 0
	ldreqb	r2, [r2, #0]	@ zero_extendqisi2
	.loc 3 6761 0
	mov	r5, r5, lsr #12
.LVL1484:
	.loc 3 6759 0
	moveq	r2, r2, asl #31
	orreq	r2, r2, r0, lsr #1
.LVL1485:
	.loc 3 6763 0
	ldr	r0, [r4, r3, asl #2]
	add	r0, r2, r0
.LVL1486:
.LBB1326:
.LBB1321:
	.loc 1 533 0
	mov	r3, r0, lsr #24
.LBE1321:
.LBE1326:
	.loc 3 6761 0
	and	r2, r5, #15
.LVL1487:
.LBB1327:
.LBB1322:
	.loc 1 533 0
	cmp	r3, #13
.LVL1488:
.LBE1322:
.LBE1327:
	.loc 3 6764 0
	ldr	r4, [r4, r2, asl #2]
.LVL1489:
.LBB1328:
.LBB1323:
	.loc 1 533 0
	beq	.L668
	cmp	r3, #14
	bne	.L4929
.LBE1323:
	.loc 1 596 0
	ldr	r3, .L5455+8
	ldrb	r1, [r3, #0]	@ zero_extendqisi2
.LVL1490:
	ldr	r3, .L5455+12
	ldrb	r2, [r3, #0]	@ zero_extendqisi2
.LBB1324:
	ldr	r3, .L5455+16
.LBE1324:
	orr	r2, r1, r2
.LBB1325:
	ldrb	r3, [r3, #0]	@ zero_extendqisi2
	eor	r3, r3, #1
	orrs	r3, r2, r3
	beq	.L152
	.loc 1 597 0
	ldr	r3, .L5455+20
	and	r1, r4, #255
	ldr	r3, [r3, #0]
	blx	r3
.LVL1491:
	b	.L152
.LVL1492:
.L295:
.LBE1325:
.LBE1328:
.LBE1725:
.LBB1726:
	.loc 3 6734 0
	mov	r2, r5, lsr #7
.LVL1493:
	.loc 3 6736 0
	ands	r2, r2, #31
.LVL1494:
	beq	.L643
	.loc 3 6737 0
	and	r1, r5, #15
	ldr	r1, [r4, r1, asl #2]
	mov	r2, r1, asr r2
.LVL1495:
.L644:
	.loc 3 6743 0
	and	r3, r3, #15
.LVL1496:
	.loc 3 6744 0
	ldr	r0, [r4, r3, asl #2]
	.loc 3 6742 0
	mov	r5, r5, lsr #12
.LVL1497:
	.loc 3 6744 0
	add	r0, r2, r0
.LVL1498:
.LBB1727:
.LBB1728:
	.loc 1 533 0
	mov	r3, r0, lsr #24
.LVL1499:
.LBE1728:
.LBE1727:
	.loc 3 6742 0
	and	r2, r5, #15
.LVL1500:
.LBB1733:
.LBB1729:
	.loc 1 533 0
	cmp	r3, #13
.LBE1729:
.LBE1733:
	.loc 3 6745 0
	ldr	r4, [r4, r2, asl #2]
.LVL1501:
.LBB1734:
.LBB1730:
	.loc 1 533 0
	beq	.L668
	cmp	r3, #14
	bne	.L4929
.LBE1730:
	.loc 1 596 0
	ldr	r3, .L5455+8
	ldrb	r1, [r3, #0]	@ zero_extendqisi2
	ldr	r3, .L5455+12
	ldrb	r2, [r3, #0]	@ zero_extendqisi2
.LVL1502:
.LBB1731:
	ldr	r3, .L5455+16
.LBE1731:
	orr	r2, r1, r2
.LBB1732:
	ldrb	r3, [r3, #0]	@ zero_extendqisi2
	eor	r3, r3, #1
	orrs	r3, r2, r3
	beq	.L152
	.loc 1 597 0
	ldr	r3, .L5455+20
	and	r1, r4, #255
	ldr	r3, [r3, #0]
	blx	r3
.LVL1503:
	b	.L152
.LVL1504:
.L294:
.LBE1732:
.LBE1734:
.LBE1726:
.LBB1735:
	.loc 3 6720 0
	mov	r2, r5, lsr #7
.LVL1505:
	.loc 3 6721 0
	ands	r2, r2, #31
.LVL1506:
	andne	r1, r5, #15
	ldrne	r1, [r4, r1, asl #2]
	.loc 3 6723 0
	and	r3, r3, #15
	.loc 3 6721 0
	movne	r2, r1, lsr r2
.LVL1507:
	.loc 3 6724 0
	ldr	r0, [r4, r3, asl #2]
	.loc 3 6722 0
	mov	r5, r5, lsr #12
.LVL1508:
	.loc 3 6724 0
	add	r0, r2, r0
.LVL1509:
.LBB1736:
.LBB1737:
	.loc 1 533 0
	mov	r3, r0, lsr #24
.LBE1737:
.LBE1736:
	.loc 3 6722 0
	and	r2, r5, #15
.LVL1510:
.LBB1742:
.LBB1738:
	.loc 1 533 0
	cmp	r3, #13
.LVL1511:
.LBE1738:
.LBE1742:
	.loc 3 6725 0
	ldr	r4, [r4, r2, asl #2]
.LVL1512:
.LBB1743:
.LBB1739:
	.loc 1 533 0
	beq	.L668
	.loc 1 533 0 is_stmt 0 discriminator 3
	cmp	r3, #14
	bne	.L4929
.LBE1739:
	.loc 1 596 0 is_stmt 1
	ldr	r3, .L5455+8
	ldrb	r1, [r3, #0]	@ zero_extendqisi2
.LVL1513:
	ldr	r3, .L5455+12
	ldrb	r2, [r3, #0]	@ zero_extendqisi2
.LVL1514:
.LBB1740:
	ldr	r3, .L5455+16
.LBE1740:
	orr	r2, r1, r2
.LBB1741:
	ldrb	r3, [r3, #0]	@ zero_extendqisi2
	eor	r3, r3, #1
	orrs	r3, r2, r3
	beq	.L152
	.loc 1 597 0
	ldr	r3, .L5455+20
	and	r1, r4, #255
	ldr	r3, [r3, #0]
	blx	r3
.LVL1515:
	b	.L152
.LVL1516:
.L244:
.LBE1741:
.LBE1743:
.LBE1735:
.LBB1744:
	.loc 3 5104 0
	mov	r2, r5, lsr #7
.LVL1517:
	.loc 3 5106 0
	ands	r7, r2, #31
.LVL1518:
	.loc 3 5105 0
	and	r1, r5, #15
	ldr	r2, [r4, r1, asl #2]
.LVL1519:
	.loc 3 5109 0
	ldreq	r1, .L5455+24
	.loc 3 5112 0
	and	r6, r3, #15
	.loc 3 5109 0
	ldreqb	r7, [r1, #0]	@ zero_extendqisi2
.LVL1520:
	.loc 3 5113 0
	ldr	r8, [r4, r6, asl #2]
	.loc 3 5109 0
	moveq	r7, r7, asl #31
	.loc 3 5107 0
	movne	r7, r2, ror r7
.LVL1521:
	.loc 3 5114 0
	mov	r0, r8
	.loc 3 5109 0
	orreq	r7, r7, r2, lsr #1
.LVL1522:
	.loc 3 5114 0
	bl	_ZL17CPUReadByterealpuj
.LVL1523:
	.loc 3 5111 0
	mov	r5, r5, lsr #12
.LVL1524:
	and	r5, r5, #15
.LVL1525:
	.loc 3 5115 0
	cmp	r5, r6
	.loc 3 5116 0
	rsbne	r7, r7, r8
.LVL1526:
	.loc 3 5114 0
	str	r0, [r4, r5, asl #2]
	.loc 3 5116 0
	strne	r7, [r4, r6, asl #2]
	.loc 3 5118 0
	cmp	r5, #15
	.loc 3 5119 0
	ldreq	r3, [r4, #60]
	biceq	r3, r3, #3
	.loc 3 5121 0
	addeq	r3, r3, #4
	streq	r3, [r4, #60]
	b	.L152
.LVL1527:
.L243:
.LBE1744:
.LBB1745:
	.loc 3 5071 0
	mov	r2, r5, lsr #7
.LVL1528:
	.loc 3 5073 0
	ands	r2, r2, #31
.LVL1529:
	beq	.L463
	.loc 3 5074 0
	and	r1, r5, #15
	ldr	r7, [r4, r1, asl #2]
	mov	r7, r7, asr r2
.LVL1530:
.L464:
	.loc 3 5080 0
	and	r6, r3, #15
	.loc 3 5081 0
	ldr	r8, [r4, r6, asl #2]
	.loc 3 5079 0
	mov	r5, r5, lsr #12
.LVL1531:
	.loc 3 5082 0
	mov	r0, r8
	bl	_ZL17CPUReadByterealpuj
.LVL1532:
	.loc 3 5079 0
	and	r5, r5, #15
.LVL1533:
	.loc 3 5083 0
	cmp	r5, r6
	.loc 3 5084 0
	rsbne	r7, r7, r8
.LVL1534:
	.loc 3 5082 0
	str	r0, [r4, r5, asl #2]
	.loc 3 5084 0
	strne	r7, [r4, r6, asl #2]
	.loc 3 5086 0
	cmp	r5, #15
	.loc 3 5087 0
	ldreq	r3, [r4, #60]
	biceq	r3, r3, #3
	.loc 3 5089 0
	addeq	r3, r3, #4
	streq	r3, [r4, #60]
	b	.L152
.LVL1535:
.L242:
.LBE1745:
.LBB1746:
	.loc 3 5044 0
	mov	r7, r5, lsr #7
.LVL1536:
	.loc 3 5045 0
	ands	r7, r7, #31
.LVL1537:
	andne	r2, r5, #15
	.loc 3 5047 0
	and	r6, r3, #15
	.loc 3 5045 0
	ldrne	r2, [r4, r2, asl #2]
	.loc 3 5048 0
	ldr	r8, [r4, r6, asl #2]
	.loc 3 5045 0
	movne	r7, r2, lsr r7
.LVL1538:
	.loc 3 5049 0
	mov	r0, r8
	bl	_ZL17CPUReadByterealpuj
.LVL1539:
	.loc 3 5046 0
	mov	r5, r5, lsr #12
.LVL1540:
	and	r5, r5, #15
.LVL1541:
	.loc 3 5050 0
	cmp	r5, r6
	.loc 3 5051 0
	rsbne	r7, r7, r8
.LVL1542:
	.loc 3 5049 0
	str	r0, [r4, r5, asl #2]
	.loc 3 5051 0
	strne	r7, [r4, r6, asl #2]
	.loc 3 5053 0
	cmp	r5, #15
	.loc 3 5054 0
	ldreq	r3, [r4, #60]
	biceq	r3, r3, #3
	.loc 3 5056 0
	addeq	r3, r3, #4
	streq	r3, [r4, #60]
	b	.L152
.LVL1543:
.L241:
.LBE1746:
.LBB1747:
	.loc 3 5020 0
	and	r6, r3, #15
	.loc 3 5018 0
	and	r3, r5, #15
	.loc 3 5021 0
	ldr	r7, [r4, r6, asl #2]
	.loc 3 5018 0
	ldr	r8, [r4, r3, asl #2]
	mov	r3, r5, lsr #7
	and	r3, r3, #31
	.loc 3 5022 0
	mov	r0, r7
	.loc 3 5018 0
	mov	r8, r8, asl r3
.LVL1544:
	.loc 3 5022 0
	bl	_ZL17CPUReadByterealpuj
.LVL1545:
	.loc 3 5019 0
	mov	r5, r5, lsr #12
.LVL1546:
	and	r5, r5, #15
.LVL1547:
	.loc 3 5023 0
	cmp	r5, r6
	.loc 3 5024 0
	rsbne	r7, r8, r7
.LVL1548:
	.loc 3 5022 0
	str	r0, [r4, r5, asl #2]
	.loc 3 5024 0
	strne	r7, [r4, r6, asl #2]
	.loc 3 5026 0
	cmp	r5, #15
	.loc 3 5027 0
	ldreq	r3, [r4, #60]
	biceq	r3, r3, #3
	.loc 3 5029 0
	addeq	r3, r3, #4
	streq	r3, [r4, #60]
	b	.L152
.LVL1549:
.L233:
.LBE1747:
.LBB1748:
	.loc 3 6848 0
	and	r6, r3, #15
	.loc 3 6846 0
	and	r3, r5, #15
	.loc 3 6849 0
	ldr	r7, [r4, r6, asl #2]
	.loc 3 6846 0
	ldr	r8, [r4, r3, asl #2]
	mov	r3, r5, lsr #7
	and	r3, r3, #31
	.loc 3 6850 0
	mov	r0, r7
	.loc 3 6846 0
	mov	r8, r8, asl r3
.LVL1550:
	.loc 3 6850 0
	bl	_ZL19CPUReadMemoryrealpuj
.LVL1551:
	.loc 3 6847 0
	mov	r5, r5, lsr #12
.LVL1552:
	and	r5, r5, #15
.LVL1553:
	.loc 3 6851 0
	cmp	r5, r6
	.loc 3 6852 0
	rsbne	r7, r8, r7
.LVL1554:
	.loc 3 6850 0
	str	r0, [r4, r5, asl #2]
	.loc 3 6852 0
	strne	r7, [r4, r6, asl #2]
	.loc 3 6854 0
	cmp	r5, #15
	.loc 3 6855 0
	ldreq	r3, [r4, #60]
	biceq	r3, r3, #3
	.loc 3 6857 0
	addeq	r3, r3, #4
	streq	r3, [r4, #60]
	b	.L152
.LVL1555:
.L256:
.LBE1748:
.LBB1749:
	.loc 3 4722 0
	and	r1, r5, #15
	.loc 3 4721 0
	mov	r2, r5, lsr #7
.LVL1556:
	.loc 3 4723 0
	ands	r8, r2, #31
.LVL1557:
	.loc 3 4722 0
	ldr	r2, [r4, r1, asl #2]
.LVL1558:
	.loc 3 4726 0
	ldreq	r1, .L5455+24
	.loc 3 4724 0
	movne	r8, r2, ror r8
.LVL1559:
	.loc 3 4726 0
	ldreqb	r8, [r1, #0]	@ zero_extendqisi2
.LVL1560:
	.loc 3 4729 0
	and	r6, r3, #15
	.loc 3 4726 0
	moveq	r8, r8, asl #31
	.loc 3 4730 0
	ldr	r7, [r4, r6, asl #2]
	.loc 3 4728 0
	mov	r3, r5, lsr #12
	.loc 3 4726 0
	orreq	r8, r8, r2, lsr #1
.LVL1561:
	.loc 3 4728 0
	and	r3, r3, #15
.LVL1562:
	.loc 3 4731 0
	mov	r0, r7
	ldrb	r1, [r4, r3, asl #2]	@ zero_extendqisi2
	.loc 3 4732 0
	add	r7, r8, r7
.LVL1563:
	.loc 3 4731 0
	bl	_ZL14CPUWriteBytepujh
.LVL1564:
	.loc 3 4732 0
	str	r7, [r4, r6, asl #2]
.LBE1749:
	.loc 3 4735 0
	b	.L152
.LVL1565:
.L255:
.LBB1750:
	.loc 3 4697 0
	mov	r2, r5, lsr #7
.LVL1566:
	.loc 3 4699 0
	ands	r2, r2, #31
.LVL1567:
	beq	.L436
	.loc 3 4700 0
	and	r1, r5, #15
	ldr	r8, [r4, r1, asl #2]
	mov	r8, r8, asr r2
.LVL1568:
.L437:
	.loc 3 4706 0
	and	r6, r3, #15
.LVL1569:
	.loc 3 4707 0
	ldr	r7, [r4, r6, asl #2]
.LVL1570:
	.loc 3 4705 0
	mov	r3, r5, lsr #12
	and	r3, r3, #15
.LVL1571:
	.loc 3 4708 0
	mov	r0, r7
	ldrb	r1, [r4, r3, asl #2]	@ zero_extendqisi2
	.loc 3 4709 0
	add	r7, r8, r7
.LVL1572:
	.loc 3 4708 0
	bl	_ZL14CPUWriteBytepujh
.LVL1573:
	.loc 3 4709 0
	str	r7, [r4, r6, asl #2]
.LBE1750:
	.loc 3 4712 0
	b	.L152
.LVL1574:
.L254:
.LBB1751:
	.loc 3 5788 0
	mov	r8, r5, lsr #7
.LVL1575:
	.loc 3 5789 0
	ands	r8, r8, #31
.LVL1576:
	andne	r2, r5, #15
	ldrne	r2, [r4, r2, asl #2]
	.loc 3 5791 0
	and	r6, r3, #15
	.loc 3 5789 0
	movne	r8, r2, lsr r8
.LVL1577:
	.loc 3 5792 0
	ldr	r7, [r4, r6, asl #2]
.LVL1578:
	.loc 3 5790 0
	mov	r3, r5, lsr #12
	and	r3, r3, #15
.LVL1579:
	.loc 3 5793 0
	mov	r0, r7
	ldrb	r1, [r4, r3, asl #2]	@ zero_extendqisi2
	.loc 3 5794 0
	add	r7, r8, r7
.LVL1580:
	.loc 3 5793 0
	bl	_ZL14CPUWriteBytepujh
.LVL1581:
	.loc 3 5794 0
	str	r7, [r4, r6, asl #2]
.LBE1751:
	.loc 3 5797 0
	b	.L152
.LVL1582:
.L253:
.LBB1752:
	.loc 3 5771 0
	and	r2, r5, #15
	ldr	r8, [r4, r2, asl #2]
	mov	r2, r5, lsr #7
	and	r2, r2, #31
	mov	r8, r8, asl r2
.LVL1583:
	.loc 3 5773 0
	and	r6, r3, #15
.LVL1584:
	.loc 3 5774 0
	ldr	r7, [r4, r6, asl #2]
.LVL1585:
	.loc 3 5772 0
	mov	r3, r5, lsr #12
	and	r3, r3, #15
.LVL1586:
	.loc 3 5775 0
	mov	r0, r7
	ldrb	r1, [r4, r3, asl #2]	@ zero_extendqisi2
	.loc 3 5776 0
	add	r7, r8, r7
.LVL1587:
	.loc 3 5775 0
	bl	_ZL14CPUWriteBytepujh
.LVL1588:
	.loc 3 5776 0
	str	r7, [r4, r6, asl #2]
.LBE1752:
	.loc 3 5779 0
	b	.L152
.LVL1589:
.L252:
.LBB1753:
	.loc 3 5862 0
	mov	r2, r5, lsr #7
.LVL1590:
	.loc 3 5864 0
	ands	r8, r2, #31
.LVL1591:
	.loc 3 5863 0
	and	r1, r5, #15
	ldr	r2, [r4, r1, asl #2]
.LVL1592:
	.loc 3 5867 0
	ldreq	r1, .L5455+24
	.loc 3 5870 0
	and	r6, r3, #15
	.loc 3 5867 0
	ldreqb	r8, [r1, #0]	@ zero_extendqisi2
.LVL1593:
	.loc 3 5871 0
	ldr	r7, [r4, r6, asl #2]
	.loc 3 5867 0
	moveq	r8, r8, asl #31
	.loc 3 5865 0
	movne	r8, r2, ror r8
.LVL1594:
	.loc 3 5872 0
	mov	r0, r7
	.loc 3 5867 0
	orreq	r8, r8, r2, lsr #1
.LVL1595:
	.loc 3 5872 0
	bl	_ZL19CPUReadMemoryrealpuj
.LVL1596:
	.loc 3 5869 0
	mov	r5, r5, lsr #12
.LVL1597:
	and	r5, r5, #15
.LVL1598:
	.loc 3 5873 0
	cmp	r5, r6
	.loc 3 5874 0
	addne	r7, r8, r7
.LVL1599:
	.loc 3 5872 0
	str	r0, [r4, r5, asl #2]
	.loc 3 5874 0
	strne	r7, [r4, r6, asl #2]
	.loc 3 5876 0
	cmp	r5, #15
	.loc 3 5877 0
	ldreq	r3, [r4, #60]
	biceq	r3, r3, #3
	.loc 3 5879 0
	addeq	r3, r3, #4
	streq	r3, [r4, #60]
	b	.L152
.LVL1600:
.L251:
.LBE1753:
.LBB1754:
	.loc 3 5831 0
	mov	r2, r5, lsr #7
.LVL1601:
	.loc 3 5833 0
	ands	r2, r2, #31
.LVL1602:
	beq	.L517
	.loc 3 5834 0
	and	r1, r5, #15
	ldr	r8, [r4, r1, asl #2]
	mov	r8, r8, asr r2
.LVL1603:
.L518:
	.loc 3 5840 0
	and	r6, r3, #15
	.loc 3 5841 0
	ldr	r7, [r4, r6, asl #2]
	.loc 3 5839 0
	mov	r5, r5, lsr #12
.LVL1604:
	.loc 3 5842 0
	mov	r0, r7
	bl	_ZL19CPUReadMemoryrealpuj
.LVL1605:
	.loc 3 5839 0
	and	r5, r5, #15
.LVL1606:
	.loc 3 5843 0
	cmp	r5, r6
	.loc 3 5844 0
	addne	r7, r8, r7
.LVL1607:
	.loc 3 5842 0
	str	r0, [r4, r5, asl #2]
	.loc 3 5844 0
	strne	r7, [r4, r6, asl #2]
	.loc 3 5846 0
	cmp	r5, #15
	.loc 3 5847 0
	ldreq	r3, [r4, #60]
	biceq	r3, r3, #3
	.loc 3 5849 0
	addeq	r3, r3, #4
	streq	r3, [r4, #60]
	b	.L152
.LVL1608:
.L250:
.LBE1754:
.LBB1755:
	.loc 3 5806 0
	mov	r8, r5, lsr #7
.LVL1609:
	.loc 3 5807 0
	ands	r8, r8, #31
.LVL1610:
	andne	r2, r5, #15
	.loc 3 5809 0
	and	r6, r3, #15
	.loc 3 5810 0
	ldr	r7, [r4, r6, asl #2]
	.loc 3 5807 0
	ldrne	r2, [r4, r2, asl #2]
	.loc 3 5811 0
	mov	r0, r7
	.loc 3 5807 0
	movne	r8, r2, lsr r8
.LVL1611:
	.loc 3 5811 0
	bl	_ZL19CPUReadMemoryrealpuj
.LVL1612:
	.loc 3 5808 0
	mov	r5, r5, lsr #12
.LVL1613:
	and	r5, r5, #15
.LVL1614:
	.loc 3 5812 0
	cmp	r5, r6
	.loc 3 5813 0
	addne	r7, r8, r7
.LVL1615:
	.loc 3 5811 0
	str	r0, [r4, r5, asl #2]
	.loc 3 5813 0
	strne	r7, [r4, r6, asl #2]
	.loc 3 5815 0
	cmp	r5, #15
	.loc 3 5816 0
	ldreq	r3, [r4, #60]
	biceq	r3, r3, #3
	.loc 3 5818 0
	addeq	r3, r3, #4
	streq	r3, [r4, #60]
	b	.L152
.LVL1616:
.L249:
.LBE1755:
.LBB1756:
	.loc 3 6958 0
	and	r6, r3, #15
	.loc 3 6956 0
	and	r3, r5, #15
	.loc 3 6959 0
	ldr	r7, [r4, r6, asl #2]
	.loc 3 6956 0
	ldr	r8, [r4, r3, asl #2]
	mov	r3, r5, lsr #7
	and	r3, r3, #31
	.loc 3 6960 0
	mov	r0, r7
	.loc 3 6956 0
	mov	r8, r8, asl r3
.LVL1617:
	.loc 3 6960 0
	bl	_ZL19CPUReadMemoryrealpuj
.LVL1618:
	.loc 3 6957 0
	mov	r5, r5, lsr #12
.LVL1619:
	and	r5, r5, #15
.LVL1620:
	.loc 3 6961 0
	cmp	r5, r6
	.loc 3 6962 0
	addne	r7, r8, r7
.LVL1621:
	.loc 3 6960 0
	str	r0, [r4, r5, asl #2]
	.loc 3 6962 0
	strne	r7, [r4, r6, asl #2]
	.loc 3 6964 0
	cmp	r5, #15
	.loc 3 6965 0
	ldreq	r3, [r4, #60]
	biceq	r3, r3, #3
	.loc 3 6967 0
	addeq	r3, r3, #4
	streq	r3, [r4, #60]
	b	.L152
.LVL1622:
.L260:
.LBE1756:
.LBB1757:
	.loc 3 5222 0
	mov	r2, r5, lsr #7
.LVL1623:
	.loc 3 5224 0
	ands	r8, r2, #31
.LVL1624:
	.loc 3 5223 0
	and	r1, r5, #15
	ldr	r2, [r4, r1, asl #2]
.LVL1625:
	.loc 3 5227 0
	ldreq	r1, .L5455+24
	.loc 3 5230 0
	and	r6, r3, #15
	.loc 3 5227 0
	ldreqb	r8, [r1, #0]	@ zero_extendqisi2
.LVL1626:
	.loc 3 5231 0
	ldr	r7, [r4, r6, asl #2]
	.loc 3 5227 0
	moveq	r8, r8, asl #31
	.loc 3 5225 0
	movne	r8, r2, ror r8
.LVL1627:
	.loc 3 5232 0
	mov	r0, r7
	.loc 3 5227 0
	orreq	r8, r8, r2, lsr #1
.LVL1628:
	.loc 3 5232 0
	bl	_ZL17CPUReadByterealpuj
.LVL1629:
	.loc 3 5229 0
	mov	r5, r5, lsr #12
.LVL1630:
	and	r5, r5, #15
.LVL1631:
	.loc 3 5233 0
	cmp	r5, r6
	.loc 3 5234 0
	addne	r7, r8, r7
.LVL1632:
	.loc 3 5232 0
	str	r0, [r4, r5, asl #2]
	.loc 3 5234 0
	strne	r7, [r4, r6, asl #2]
	.loc 3 5236 0
	cmp	r5, #15
	.loc 3 5237 0
	ldreq	r3, [r4, #60]
	biceq	r3, r3, #3
	.loc 3 5239 0
	addeq	r3, r3, #4
	streq	r3, [r4, #60]
	b	.L152
.LVL1633:
.L259:
.LBE1757:
.LBB1758:
	.loc 3 5189 0
	mov	r2, r5, lsr #7
.LVL1634:
	.loc 3 5191 0
	ands	r2, r2, #31
.LVL1635:
	beq	.L472
	.loc 3 5192 0
	and	r1, r5, #15
	ldr	r8, [r4, r1, asl #2]
	mov	r8, r8, asr r2
.LVL1636:
.L473:
	.loc 3 5198 0
	and	r6, r3, #15
	.loc 3 5199 0
	ldr	r7, [r4, r6, asl #2]
	.loc 3 5197 0
	mov	r5, r5, lsr #12
.LVL1637:
	.loc 3 5200 0
	mov	r0, r7
	bl	_ZL17CPUReadByterealpuj
.LVL1638:
	.loc 3 5197 0
	and	r5, r5, #15
.LVL1639:
	.loc 3 5201 0
	cmp	r5, r6
	.loc 3 5202 0
	addne	r7, r8, r7
.LVL1640:
	.loc 3 5200 0
	str	r0, [r4, r5, asl #2]
	.loc 3 5202 0
	strne	r7, [r4, r6, asl #2]
	.loc 3 5204 0
	cmp	r5, #15
	.loc 3 5205 0
	ldreq	r3, [r4, #60]
	biceq	r3, r3, #3
	.loc 3 5207 0
	addeq	r3, r3, #4
	streq	r3, [r4, #60]
	b	.L152
.LVL1641:
.L258:
.LBE1758:
.LBB1759:
	.loc 3 5162 0
	mov	r8, r5, lsr #7
.LVL1642:
	.loc 3 5163 0
	ands	r8, r8, #31
.LVL1643:
	andne	r2, r5, #15
	.loc 3 5165 0
	and	r6, r3, #15
	.loc 3 5166 0
	ldr	r7, [r4, r6, asl #2]
	.loc 3 5163 0
	ldrne	r2, [r4, r2, asl #2]
	.loc 3 5167 0
	mov	r0, r7
	.loc 3 5163 0
	movne	r8, r2, lsr r8
.LVL1644:
	.loc 3 5167 0
	bl	_ZL17CPUReadByterealpuj
.LVL1645:
	.loc 3 5164 0
	mov	r5, r5, lsr #12
.LVL1646:
	and	r5, r5, #15
.LVL1647:
	.loc 3 5168 0
	cmp	r5, r6
	.loc 3 5169 0
	addne	r7, r8, r7
.LVL1648:
	.loc 3 5167 0
	str	r0, [r4, r5, asl #2]
	.loc 3 5169 0
	strne	r7, [r4, r6, asl #2]
	.loc 3 5171 0
	cmp	r5, #15
	.loc 3 5172 0
	ldreq	r3, [r4, #60]
	biceq	r3, r3, #3
	.loc 3 5174 0
	addeq	r3, r3, #4
	streq	r3, [r4, #60]
	b	.L152
.LVL1649:
.L341:
.LBE1759:
.LBB1760:
	.loc 3 7376 0
	ldr	r3, .L5455+28
	mov	r1, r5, lsr #8
	and	r1, r1, #255
	and	r2, r5, #255
	ldrb	r2, [r3, r2]	@ zero_extendqisi2
	ldrb	r3, [r3, r1]	@ zero_extendqisi2
	.loc 3 7374 0
	and	r1, r5, #983040
	.loc 3 7376 0
	ldr	r6, [r4, r1, lsr #14]
	add	r3, r2, r3
	sub	r6, r6, r3, asl #2
	.loc 3 7379 0
	tst	r5, #1
	.loc 3 7377 0
	bic	r6, r6, #3
.LVL1650:
	.loc 3 7379 0
	bne	.L5307
.LVL1651:
.L1259:
	.loc 3 7380 0
	tst	r5, #2
	bne	.L5308
.L1260:
	.loc 3 7381 0
	tst	r5, #4
	bne	.L5309
.L1261:
	.loc 3 7382 0
	tst	r5, #8
	bne	.L5310
.L1262:
	.loc 3 7383 0
	tst	r5, #16
	bne	.L5311
.L1263:
	.loc 3 7384 0
	tst	r5, #32
	bne	.L5312
.L1264:
	.loc 3 7385 0
	tst	r5, #64
	bne	.L5313
.L1265:
	.loc 3 7386 0
	tst	r5, #128
	bne	.L5314
.L1266:
	.loc 3 7387 0
	tst	r5, #256
	bne	.L5315
.L1267:
	.loc 3 7388 0
	tst	r5, #512
	bne	.L5316
.L1268:
	.loc 3 7389 0
	tst	r5, #1024
	bne	.L5317
.L1269:
	.loc 3 7390 0
	tst	r5, #2048
	bne	.L5318
.L1270:
	.loc 3 7391 0
	tst	r5, #4096
	bne	.L5319
.LVL1652:
.L1453:
.LBE1760:
.LBB1761:
	.loc 3 7629 0
	tst	r5, #8192
	beq	.L1456
	.loc 3 7629 0 is_stmt 0 discriminator 1
	mov	r0, r6
	ldr	r1, [r4, #52]
	bl	_ZL16CPUWriteMemorypujj
.LVL1653:
.L4969:
	add	r6, r6, #4
.LVL1654:
	b	.L1456
.LVL1655:
.L320:
.LBE1761:
.LBB1762:
	.loc 3 4996 0 is_stmt 1
	and	r1, r5, #15
	ldr	r0, [r4, r1, asl #2]
	.loc 3 4995 0
	mov	r2, r5, lsr #7
.LVL1656:
	.loc 3 4997 0
	ands	r2, r2, #31
.LVL1657:
	.loc 3 4998 0
	movne	r2, r0, ror r2
.LVL1658:
	.loc 3 5000 0
	ldreq	r2, .L5455+24
.LVL1659:
	ldreqb	r2, [r2, #0]	@ zero_extendqisi2
	moveq	r2, r2, asl #31
	orreq	r2, r2, r0, lsr #1
.LVL1660:
.L459:
	.loc 3 5003 0
	and	r3, r3, #15
.LVL1661:
	.loc 3 5004 0
	ldr	r0, [r4, r3, asl #2]
	.loc 3 5002 0
	mov	r5, r5, lsr #12
.LVL1662:
	.loc 3 5004 0
	add	r0, r2, r0
.LVL1663:
	b	.L4868
.LVL1664:
.L319:
.LBE1762:
.LBB1763:
	.loc 3 4974 0
	mov	r2, r5, lsr #7
.LVL1665:
	.loc 3 4976 0
	ands	r2, r2, #31
.LVL1666:
	beq	.L456
	.loc 3 4977 0
	and	r1, r5, #15
	ldr	r1, [r4, r1, asl #2]
	mov	r2, r1, asr r2
.LVL1667:
	b	.L459
.LVL1668:
.L318:
.LBE1763:
.LBB1764:
	.loc 3 4959 0
	mov	r2, r5, lsr #7
.LVL1669:
	.loc 3 4960 0
	ands	r2, r2, #31
.LVL1670:
	.loc 3 4960 0 is_stmt 0 discriminator 1
	andne	r1, r5, #15
	ldrne	r1, [r4, r1, asl #2]
	movne	r2, r1, lsr r2
.LVL1671:
	b	.L459
.LVL1672:
.L304:
.LBE1764:
.LBB1765:
	.loc 3 6824 0 is_stmt 1
	and	r1, r5, #15
	ldr	r0, [r4, r1, asl #2]
	.loc 3 6823 0
	mov	r2, r5, lsr #7
.LVL1673:
	.loc 3 6825 0
	ands	r2, r2, #31
.LVL1674:
	.loc 3 6826 0
	movne	r2, r0, ror r2
.LVL1675:
	.loc 3 6828 0
	ldreq	r2, .L5455+24
.LVL1676:
	.loc 3 6831 0
	and	r3, r3, #15
	.loc 3 6828 0
	ldreqb	r2, [r2, #0]	@ zero_extendqisi2
	.loc 3 6830 0
	mov	r5, r5, lsr #12
.LVL1677:
	.loc 3 6828 0
	moveq	r2, r2, asl #31
	orreq	r2, r2, r0, lsr #1
.LVL1678:
	.loc 3 6832 0
	ldr	r0, [r4, r3, asl #2]
	add	r0, r2, r0
.LVL1679:
.LBB849:
.LBB841:
	.loc 1 533 0
	mov	r2, r0, lsr #24
.LVL1680:
.LBE841:
.LBE849:
	.loc 3 6833 0
	str	r0, [r4, r3, asl #2]
.LBB850:
.LBB842:
	.loc 1 533 0
	cmp	r2, #13
.LVL1681:
.LBE842:
.LBE850:
	.loc 3 6830 0
	and	r3, r5, #15
	.loc 3 6834 0
	ldr	r4, [r4, r3, asl #2]
.LVL1682:
.LBB851:
.LBB843:
	.loc 1 533 0
	beq	.L668
	cmp	r2, #14
	bne	.L4931
.LBE843:
	.loc 1 596 0
	ldr	r3, .L5455+8
	ldrb	r1, [r3, #0]	@ zero_extendqisi2
.LVL1683:
	ldr	r3, .L5455+12
	ldrb	r2, [r3, #0]	@ zero_extendqisi2
.LBB844:
	ldr	r3, .L5455+16
.LBE844:
	orr	r2, r1, r2
.LBB845:
	ldrb	r3, [r3, #0]	@ zero_extendqisi2
	eor	r3, r3, #1
	orrs	r3, r2, r3
	beq	.L152
	.loc 1 597 0
	ldr	r3, .L5455+20
	and	r1, r4, #255
	ldr	r3, [r3, #0]
	blx	r3
.LVL1684:
	b	.L152
.LVL1685:
.L303:
.LBE845:
.LBE851:
.LBE1765:
.LBB1766:
	.loc 3 6802 0
	mov	r2, r5, lsr #7
.LVL1686:
	.loc 3 6804 0
	ands	r2, r2, #31
.LVL1687:
	beq	.L660
	.loc 3 6805 0
	and	r1, r5, #15
	ldr	r1, [r4, r1, asl #2]
	mov	r2, r1, asr r2
.LVL1688:
.L661:
	.loc 3 6811 0
	and	r3, r3, #15
.LVL1689:
	.loc 3 6812 0
	ldr	r0, [r4, r3, asl #2]
	.loc 3 6810 0
	mov	r5, r5, lsr #12
.LVL1690:
	.loc 3 6812 0
	add	r0, r2, r0
.LVL1691:
.LBB1767:
.LBB1768:
	.loc 1 533 0
	mov	r2, r0, lsr #24
.LVL1692:
.LBE1768:
.LBE1767:
	.loc 3 6813 0
	str	r0, [r4, r3, asl #2]
.LBB1773:
.LBB1769:
	.loc 1 533 0
	cmp	r2, #13
.LBE1769:
.LBE1773:
	.loc 3 6810 0
	and	r3, r5, #15
.LVL1693:
	.loc 3 6814 0
	ldr	r4, [r4, r3, asl #2]
.LVL1694:
.LBB1774:
.LBB1770:
	.loc 1 533 0
	beq	.L668
	cmp	r2, #14
	bne	.L4931
.LBE1770:
	.loc 1 596 0
	ldr	r3, .L5455+8
.LVL1695:
	ldrb	r1, [r3, #0]	@ zero_extendqisi2
	ldr	r3, .L5455+12
	ldrb	r2, [r3, #0]	@ zero_extendqisi2
.LBB1771:
	ldr	r3, .L5455+16
.LBE1771:
	orr	r2, r1, r2
.LBB1772:
	ldrb	r3, [r3, #0]	@ zero_extendqisi2
	eor	r3, r3, #1
	orrs	r3, r2, r3
	beq	.L152
	.loc 1 597 0
	ldr	r3, .L5455+20
	and	r1, r4, #255
	ldr	r3, [r3, #0]
	blx	r3
.LVL1696:
	b	.L152
.LVL1697:
.L302:
.LBE1772:
.LBE1774:
.LBE1766:
.LBB1775:
	.loc 3 6787 0
	mov	r2, r5, lsr #7
.LVL1698:
	.loc 3 6788 0
	ands	r2, r2, #31
.LVL1699:
	andne	r1, r5, #15
	ldrne	r1, [r4, r1, asl #2]
	.loc 3 6790 0
	and	r3, r3, #15
	.loc 3 6788 0
	movne	r2, r1, lsr r2
.LVL1700:
	.loc 3 6791 0
	ldr	r0, [r4, r3, asl #2]
	.loc 3 6789 0
	mov	r5, r5, lsr #12
.LVL1701:
	.loc 3 6791 0
	add	r0, r2, r0
.LVL1702:
.LBB1776:
.LBB1777:
	.loc 1 533 0
	mov	r2, r0, lsr #24
.LVL1703:
.LBE1777:
.LBE1776:
	.loc 3 6792 0
	str	r0, [r4, r3, asl #2]
.LBB1782:
.LBB1778:
	.loc 1 533 0
	cmp	r2, #13
.LVL1704:
.LBE1778:
.LBE1782:
	.loc 3 6789 0
	and	r3, r5, #15
.LVL1705:
	.loc 3 6793 0
	ldr	r4, [r4, r3, asl #2]
.LVL1706:
.LBB1783:
.LBB1779:
	.loc 1 533 0
	beq	.L668
	.loc 1 533 0 is_stmt 0 discriminator 3
	cmp	r2, #14
	bne	.L4931
.LBE1779:
	.loc 1 596 0 is_stmt 1
	ldr	r3, .L5455+8
.LVL1707:
	ldrb	r1, [r3, #0]	@ zero_extendqisi2
.LVL1708:
	ldr	r3, .L5455+12
	ldrb	r2, [r3, #0]	@ zero_extendqisi2
.LBB1780:
	ldr	r3, .L5455+16
.LBE1780:
	orr	r2, r1, r2
.LBB1781:
	ldrb	r3, [r3, #0]	@ zero_extendqisi2
	eor	r3, r3, #1
	orrs	r3, r2, r3
	beq	.L152
	.loc 1 597 0
	ldr	r3, .L5455+20
	and	r1, r4, #255
	ldr	r3, [r3, #0]
	blx	r3
.LVL1709:
	b	.L152
.LVL1710:
.L301:
.LBE1781:
.LBE1783:
.LBE1775:
.LBB1784:
	.loc 3 6775 0
	and	r3, r3, #15
.LVL1711:
	.loc 3 6773 0
	and	r2, r5, #15
	ldr	r0, [r4, r2, asl #2]
	mov	r1, r5, lsr #7
	.loc 3 6776 0
	ldr	r2, [r4, r3, asl #2]
	.loc 3 6773 0
	and	r1, r1, #31
	.loc 3 6776 0
	add	r0, r2, r0, asl r1
.LVL1712:
	.loc 3 6774 0
	mov	r5, r5, lsr #12
.LVL1713:
.LBB1785:
.LBB1786:
	.loc 1 533 0
	mov	r2, r0, lsr #24
.LBE1786:
.LBE1785:
	.loc 3 6777 0
	str	r0, [r4, r3, asl #2]
.LBB1791:
.LBB1787:
	.loc 1 533 0
	cmp	r2, #13
.LBE1787:
.LBE1791:
	.loc 3 6774 0
	and	r3, r5, #15
.LVL1714:
	.loc 3 6778 0
	ldr	r4, [r4, r3, asl #2]
.LVL1715:
.LBB1792:
.LBB1788:
	.loc 1 533 0
	beq	.L668
	cmp	r2, #14
	bne	.L4931
.LBE1788:
	.loc 1 596 0
	ldr	r3, .L5455+8
.LVL1716:
	ldrb	r1, [r3, #0]	@ zero_extendqisi2
	ldr	r3, .L5455+12
	ldrb	r2, [r3, #0]	@ zero_extendqisi2
.LBB1789:
	ldr	r3, .L5455+16
.LBE1789:
	orr	r2, r1, r2
.LBB1790:
	ldrb	r3, [r3, #0]	@ zero_extendqisi2
	eor	r3, r3, #1
	orrs	r3, r2, r3
	beq	.L152
	.loc 1 597 0
	ldr	r3, .L5455+20
	and	r1, r4, #255
	ldr	r3, [r3, #0]
	blx	r3
.LVL1717:
	b	.L152
.LVL1718:
.L300:
.LBE1790:
.LBE1792:
.LBE1784:
.LBB1793:
	.loc 3 6142 0
	mov	r2, r5, lsr #7
.LVL1719:
	.loc 3 6143 0
	and	r0, r5, #15
	.loc 3 6144 0
	ands	r1, r2, #31
.LVL1720:
	.loc 3 6143 0
	ldr	r2, [r4, r0, asl #2]
.LVL1721:
	.loc 3 6147 0
	ldreq	r1, .L5455+24
.LVL1722:
	.loc 3 6145 0
	movne	r2, r2, ror r1
.LVL1723:
	.loc 3 6147 0
	ldreqb	r1, [r1, #0]	@ zero_extendqisi2
	.loc 3 6150 0
	and	r3, r3, #15
	.loc 3 6147 0
	moveq	r1, r1, asl #31
	.loc 3 6151 0
	ldr	r0, [r4, r3, asl #2]
	.loc 3 6147 0
	orreq	r2, r1, r2, lsr #1
.LVL1724:
	.loc 3 6152 0
	add	r0, r2, r0
	bl	_ZL19CPUReadMemoryrealpuj
.LVL1725:
	.loc 3 6149 0
	mov	r5, r5, lsr #12
.LVL1726:
	and	r5, r5, #15
.LVL1727:
	.loc 3 6154 0
	cmp	r5, #15
	.loc 3 6152 0
	str	r0, [r4, r5, asl #2]
	.loc 3 6154 0
	.loc 3 6155 0
	ldreq	r3, [r4, #60]
	biceq	r3, r3, #3
	.loc 3 6157 0
	addeq	r3, r3, #4
	streq	r3, [r4, #60]
	b	.L152
.LVL1728:
.L299:
.LBE1793:
.LBB1794:
	.loc 3 6116 0
	mov	r2, r5, lsr #7
.LVL1729:
	.loc 3 6118 0
	ands	r2, r2, #31
.LVL1730:
	beq	.L538
	.loc 3 6119 0
	and	r1, r5, #15
	ldr	r1, [r4, r1, asl #2]
	mov	r2, r1, asr r2
.LVL1731:
.L539:
	.loc 3 6125 0
	and	r3, r3, #15
	.loc 3 6126 0
	ldr	r0, [r4, r3, asl #2]
	.loc 3 6124 0
	mov	r5, r5, lsr #12
.LVL1732:
	.loc 3 6127 0
	add	r0, r2, r0
	bl	_ZL19CPUReadMemoryrealpuj
.LVL1733:
	.loc 3 6124 0
	and	r5, r5, #15
.LVL1734:
	.loc 3 6129 0
	cmp	r5, #15
	.loc 3 6127 0
	str	r0, [r4, r5, asl #2]
	.loc 3 6129 0
	.loc 3 6130 0
	ldreq	r3, [r4, #60]
	biceq	r3, r3, #3
	.loc 3 6132 0
	addeq	r3, r3, #4
	streq	r3, [r4, #60]
	b	.L152
.LVL1735:
.L298:
.LBE1794:
.LBB1795:
	.loc 3 6096 0
	mov	r2, r5, lsr #7
.LVL1736:
	.loc 3 6097 0
	ands	r2, r2, #31
.LVL1737:
	andne	r1, r5, #15
	ldrne	r1, [r4, r1, asl #2]
	.loc 3 6099 0
	and	r3, r3, #15
	.loc 3 6097 0
	movne	r2, r1, lsr r2
.LVL1738:
	.loc 3 6100 0
	ldr	r0, [r4, r3, asl #2]
	.loc 3 6098 0
	mov	r5, r5, lsr #12
.LVL1739:
	.loc 3 6101 0
	add	r0, r2, r0
	bl	_ZL19CPUReadMemoryrealpuj
.LVL1740:
	.loc 3 6098 0
	and	r5, r5, #15
.LVL1741:
	.loc 3 6103 0
	cmp	r5, #15
	.loc 3 6101 0
	str	r0, [r4, r5, asl #2]
	.loc 3 6103 0
	.loc 3 6104 0
	ldreq	r3, [r4, #60]
	biceq	r3, r3, #3
	.loc 3 6106 0
	addeq	r3, r3, #4
	streq	r3, [r4, #60]
	b	.L152
.LVL1742:
.L324:
.LBE1795:
.LBB1796:
	.loc 3 5631 0
	and	r1, r5, #15
	ldr	r7, [r4, r1, asl #2]
	.loc 3 5630 0
	mov	r2, r5, lsr #7
.LVL1743:
	.loc 3 5632 0
	ands	r2, r2, #31
.LVL1744:
	.loc 3 5633 0
	movne	r2, r7, ror r2
.LVL1745:
	.loc 3 5635 0
	ldreq	r2, .L5455+24
.LVL1746:
	.loc 3 5638 0
	and	r6, r3, #15
	.loc 3 5635 0
	ldreqb	r2, [r2, #0]	@ zero_extendqisi2
	.loc 3 5637 0
	mov	r5, r5, lsr #12
.LVL1747:
	.loc 3 5635 0
	moveq	r2, r2, asl #31
	orreq	r2, r2, r7, lsr #1
.LVL1748:
	.loc 3 5639 0
	ldr	r7, [r4, r6, asl #2]
	.loc 3 5637 0
	and	r5, r5, #15
.LVL1749:
	.loc 3 5639 0
	add	r7, r2, r7
.LVL1750:
	.loc 3 5640 0
	mov	r0, r7
	bl	_ZL17CPUReadByterealpuj
.LVL1751:
	.loc 3 5641 0
	cmp	r5, r6
	.loc 3 5640 0
	str	r0, [r4, r5, asl #2]
	.loc 3 5642 0
	strne	r7, [r4, r6, asl #2]
	.loc 3 5644 0
	cmp	r5, #15
	.loc 3 5645 0
	ldreq	r3, [r4, #60]
	biceq	r3, r3, #3
	.loc 3 5647 0
	addeq	r3, r3, #4
	streq	r3, [r4, #60]
	b	.L152
.LVL1752:
.L323:
.LBE1796:
.LBB1797:
	.loc 3 5600 0
	mov	r2, r5, lsr #7
.LVL1753:
	.loc 3 5602 0
	ands	r2, r2, #31
.LVL1754:
	beq	.L500
	.loc 3 5603 0
	and	r1, r5, #15
	ldr	r1, [r4, r1, asl #2]
	mov	r2, r1, asr r2
.LVL1755:
.L501:
	.loc 3 5609 0
	and	r6, r3, #15
	.loc 3 5610 0
	ldr	r7, [r4, r6, asl #2]
	.loc 3 5608 0
	mov	r5, r5, lsr #12
.LVL1756:
	.loc 3 5610 0
	add	r7, r2, r7
	.loc 3 5611 0
	mov	r0, r7
	bl	_ZL17CPUReadByterealpuj
.LVL1757:
	.loc 3 5608 0
	and	r5, r5, #15
.LVL1758:
	.loc 3 5612 0
	cmp	r5, r6
	.loc 3 5611 0
	str	r0, [r4, r5, asl #2]
	.loc 3 5613 0
	strne	r7, [r4, r6, asl #2]
	.loc 3 5615 0
	cmp	r5, #15
	.loc 3 5616 0
	ldreq	r3, [r4, #60]
	biceq	r3, r3, #3
	.loc 3 5618 0
	addeq	r3, r3, #4
	streq	r3, [r4, #60]
	b	.L152
.LVL1759:
.L322:
.LBE1797:
.LBB1798:
	.loc 3 5576 0
	mov	r2, r5, lsr #7
.LVL1760:
	.loc 3 5577 0
	ands	r2, r2, #31
.LVL1761:
	andne	r1, r5, #15
	ldrne	r1, [r4, r1, asl #2]
	.loc 3 5579 0
	and	r6, r3, #15
	.loc 3 5577 0
	movne	r2, r1, lsr r2
.LVL1762:
	.loc 3 5580 0
	ldr	r7, [r4, r6, asl #2]
	.loc 3 5578 0
	mov	r5, r5, lsr #12
.LVL1763:
	.loc 3 5580 0
	add	r7, r2, r7
	.loc 3 5581 0
	mov	r0, r7
	bl	_ZL17CPUReadByterealpuj
.LVL1764:
	.loc 3 5578 0
	and	r5, r5, #15
.LVL1765:
	.loc 3 5582 0
	cmp	r5, r6
	.loc 3 5581 0
	str	r0, [r4, r5, asl #2]
	.loc 3 5583 0
	strne	r7, [r4, r6, asl #2]
	.loc 3 5585 0
	cmp	r5, #15
	.loc 3 5586 0
	ldreq	r3, [r4, #60]
	biceq	r3, r3, #3
	.loc 3 5588 0
	addeq	r3, r3, #4
	streq	r3, [r4, #60]
	b	.L152
.LVL1766:
.L321:
.LBE1798:
.LBB1799:
	.loc 3 5555 0
	and	r6, r3, #15
	.loc 3 5553 0
	and	r3, r5, #15
	ldr	r7, [r4, r3, asl #2]
	mov	r2, r5, lsr #7
	.loc 3 5556 0
	ldr	r3, [r4, r6, asl #2]
	.loc 3 5553 0
	and	r2, r2, #31
	.loc 3 5556 0
	add	r7, r3, r7, asl r2
	.loc 3 5557 0
	mov	r0, r7
	bl	_ZL17CPUReadByterealpuj
.LVL1767:
	.loc 3 5554 0
	mov	r5, r5, lsr #12
.LVL1768:
.LBE1799:
	and	r5, r5, #15
.LVL1769:
.LBB1800:
	.loc 3 5558 0
	cmp	r5, r6
	.loc 3 5557 0
	str	r0, [r4, r5, asl #2]
	.loc 3 5559 0
	strne	r7, [r4, r6, asl #2]
	.loc 3 5561 0
	cmp	r5, #15
	.loc 3 5562 0
	ldreq	r3, [r4, #60]
	biceq	r3, r3, #3
	.loc 3 5564 0
	addeq	r3, r3, #4
	streq	r3, [r4, #60]
	b	.L152
.LVL1770:
.L326:
.LBE1800:
.LBB1801:
	.loc 3 7704 0
	ldr	r3, .L5455+28
	mov	r1, r5, lsr #8
	.loc 3 7702 0
	and	r0, r5, #983040
	.loc 3 7704 0
	and	r2, r5, #255
	and	r1, r1, #255
	ldrb	r2, [r3, r2]	@ zero_extendqisi2
	ldr	r6, [r4, r0, lsr #14]
	ldrb	r3, [r3, r1]	@ zero_extendqisi2
	add	r6, r6, #4
	add	r3, r2, r3
	.loc 3 7705 0
	sub	r6, r6, r3, asl #2
	.loc 3 7708 0
	tst	r5, #1
	.loc 3 7705 0
	bic	r6, r6, #3
.LVL1771:
	.loc 3 7708 0
	bne	.L5320
.LVL1772:
.L1500:
	.loc 3 7709 0
	tst	r5, #2
	bne	.L5321
.L1501:
	.loc 3 7710 0
	tst	r5, #4
	bne	.L5322
.L1502:
	.loc 3 7711 0
	tst	r5, #8
	bne	.L5323
.L1503:
	.loc 3 7712 0
	tst	r5, #16
	bne	.L5324
.L1504:
	.loc 3 7713 0
	tst	r5, #32
	bne	.L5325
.L1505:
	.loc 3 7714 0
	tst	r5, #64
	bne	.L5326
.L1506:
	.loc 3 7715 0
	tst	r5, #128
	bne	.L5327
.L1507:
	.loc 3 7716 0
	tst	r5, #256
	bne	.L5328
.L1508:
	.loc 3 7717 0
	tst	r5, #512
	bne	.L5329
.L1509:
	.loc 3 7718 0
	tst	r5, #1024
	bne	.L5330
.L1510:
	.loc 3 7719 0
	tst	r5, #2048
	bne	.L5331
.L1511:
	.loc 3 7720 0
	tst	r5, #4096
	bne	.L5332
.L1512:
	.loc 3 7721 0
	tst	r5, #8192
	bne	.L5333
.L1513:
	.loc 3 7722 0
	tst	r5, #16384
	bne	.L5334
.L1514:
	.loc 3 7723 0
	tst	r5, #32768
	beq	.L152
	.loc 3 7724 0
	mov	r0, r6
	bl	_ZL19CPUReadMemoryrealpuj
.LVL1773:
	.loc 3 7726 0
	add	r0, r0, #4
	str	r0, [r4, #60]
	b	.L152
.LVL1774:
.L325:
.LBE1801:
.LBB1802:
	.loc 3 7059 0
	ldr	r3, .L5455+28
	mov	r1, r5, lsr #8
	.loc 3 7057 0
	and	r0, r5, #983040
	.loc 3 7059 0
	and	r2, r5, #255
	and	r1, r1, #255
	ldrb	r2, [r3, r2]	@ zero_extendqisi2
	ldr	r8, [r4, r0, lsr #14]
	ldrb	r3, [r3, r1]	@ zero_extendqisi2
	add	r8, r8, #4
	add	r3, r2, r3
	.loc 3 7060 0
	sub	r8, r8, r3, asl #2
	.loc 3 7062 0
	tst	r5, #1
	.loc 3 7060 0
	bic	r6, r8, #3
.LVL1775:
	.loc 3 7062 0
	bne	.L5335
.LVL1776:
.L680:
	.loc 3 7063 0
	tst	r5, #2
	bne	.L5336
.L686:
	.loc 3 7064 0
	tst	r5, #4
	bne	.L5337
.L692:
	.loc 3 7065 0
	tst	r5, #8
	bne	.L5338
.L698:
	.loc 3 7066 0
	tst	r5, #16
	bne	.L5339
.L704:
	.loc 3 7067 0
	tst	r5, #32
	bne	.L5340
.L710:
	.loc 3 7068 0
	tst	r5, #64
	bne	.L5341
.L716:
	.loc 3 7069 0
	tst	r5, #128
	bne	.L5342
.L722:
	.loc 3 7070 0
	tst	r5, #256
	bne	.L5343
.L728:
	.loc 3 7071 0
	tst	r5, #512
	bne	.L5344
.L734:
	.loc 3 7072 0
	tst	r5, #1024
	bne	.L5345
.L740:
	.loc 3 7073 0
	tst	r5, #2048
	bne	.L5346
.L746:
	.loc 3 7074 0
	tst	r5, #4096
	bne	.L5347
.L752:
	.loc 3 7075 0
	tst	r5, #8192
	bne	.L5348
.L758:
	.loc 3 7076 0
	tst	r5, #16384
	bne	.L5349
.L764:
	.loc 3 7077 0
	tst	r5, #32768
	beq	.L152
	.loc 3 7078 0
	ldr	r4, [r4, #60]
.LVL1777:
.LBB1803:
.LBB1804:
	.loc 1 533 0
	mov	r3, r6, lsr #24
	cmp	r3, #13
.LBE1804:
.LBE1803:
	.loc 3 7078 0
	add	r4, r4, #4
.LVL1778:
.LBB1808:
.LBB1805:
	.loc 1 533 0
	beq	.L1389
	cmp	r3, #14
	bne	.L4953
.LBE1805:
	.loc 1 596 0
	ldr	r3, .L5457
	ldrb	r1, [r3, #0]	@ zero_extendqisi2
	ldr	r3, .L5457+4
	ldrb	r2, [r3, #0]	@ zero_extendqisi2
.LBB1806:
	ldr	r3, .L5457+8
.LBE1806:
	orr	r2, r1, r2
.LBB1807:
	ldrb	r3, [r3, #0]	@ zero_extendqisi2
	eor	r3, r3, #1
	orrs	r3, r2, r3
	beq	.L152
	.loc 1 597 0
	ldr	r3, .L5457+36
	and	r1, r4, #255
	ldr	r3, [r3, #0]
	mov	r0, r6
	blx	r3
.LVL1779:
	b	.L152
.LVL1780:
.L327:
.LBE1807:
.LBE1808:
.LBE1802:
.LBB1966:
	.loc 3 7090 0
	ldr	r3, .L5457+12
	mov	r1, r5, lsr #8
	.loc 3 7088 0
	and	r8, r5, #983040
	.loc 3 7090 0
	and	r2, r5, #255
	and	r1, r1, #255
	ldrb	r2, [r3, r2]	@ zero_extendqisi2
	.loc 3 7088 0
	mov	r8, r8, lsr #16
.LVL1781:
	.loc 3 7090 0
	ldrb	r3, [r3, r1]	@ zero_extendqisi2
	ldr	sl, [r4, r8, asl #2]
	add	r3, r2, r3
	sub	sl, sl, r3, asl #2
.LVL1782:
	.loc 3 7091 0
	add	r9, sl, #4
	.loc 3 7094 0
	ands	r7, r5, #1
	.loc 3 7091 0
	bic	r6, r9, #3
.LVL1783:
	.loc 3 7094 0
	bne	.L5350
.LVL1784:
.L773:
	.loc 3 7095 0
	tst	r5, #2
	bne	.L5351
.LVL1785:
.L779:
	.loc 3 7096 0
	tst	r5, #4
	bne	.L5352
.LVL1786:
.L786:
	.loc 3 7097 0
	tst	r5, #8
	bne	.L5353
.LVL1787:
.L793:
	.loc 3 7098 0
	tst	r5, #16
	bne	.L5354
.LVL1788:
.L800:
	.loc 3 7099 0
	tst	r5, #32
	bne	.L5355
.L807:
	.loc 3 7100 0
	tst	r5, #64
	bne	.L5356
.L814:
	.loc 3 7101 0
	tst	r5, #128
	bne	.L5357
.L821:
	.loc 3 7102 0
	tst	r5, #256
	bne	.L5358
.L828:
	.loc 3 7103 0
	tst	r5, #512
	bne	.L5359
.L835:
	.loc 3 7104 0
	tst	r5, #1024
	bne	.L5360
.L842:
	.loc 3 7105 0
	tst	r5, #2048
	bne	.L5361
.L849:
	.loc 3 7106 0
	tst	r5, #4096
	bne	.L5362
.L856:
	.loc 3 7107 0
	tst	r5, #8192
	bne	.L5363
.L863:
	.loc 3 7108 0
	tst	r5, #16384
	bne	.L5364
.LVL1789:
.L870:
	.loc 3 7109 0
	tst	r5, #32768
	beq	.L152
	.loc 3 7110 0
	ldr	r5, [r4, #60]
.LVL1790:
.LBB1967:
.LBB1968:
	.loc 1 533 0
	mov	r3, r6, lsr #24
	cmp	r3, #13
.LBE1968:
.LBE1967:
	.loc 3 7110 0
	add	r5, r5, #4
.LVL1791:
.LBB1976:
.LBB1971:
	.loc 1 533 0
	beq	.L879
	cmp	r3, #14
	beq	.L880
	cmp	r3, #4
	beq	.L5365
.LVL1792:
.L881:
.LBE1971:
.LBE1976:
	.loc 3 7112 0
	str	sl, [r4, r8, asl #2]
	b	.L152
.LVL1793:
.L316:
.LBE1966:
.LBB2136:
	.loc 3 5526 0
	mov	r2, r5, lsr #7
.LVL1794:
	.loc 3 5527 0
	and	r0, r5, #15
	.loc 3 5528 0
	ands	r1, r2, #31
.LVL1795:
	.loc 3 5527 0
	ldr	r2, [r4, r0, asl #2]
.LVL1796:
	.loc 3 5531 0
	ldreq	r1, .L5457+16
.LVL1797:
	.loc 3 5529 0
	movne	r2, r2, ror r1
.LVL1798:
	.loc 3 5531 0
	ldreqb	r1, [r1, #0]	@ zero_extendqisi2
	.loc 3 5534 0
	and	r3, r3, #15
	.loc 3 5531 0
	moveq	r1, r1, asl #31
	.loc 3 5535 0
	ldr	r0, [r4, r3, asl #2]
	.loc 3 5531 0
	orreq	r2, r1, r2, lsr #1
.LVL1799:
	.loc 3 5536 0
	add	r0, r2, r0
	bl	_ZL17CPUReadByterealpuj
.LVL1800:
	.loc 3 5533 0
	mov	r5, r5, lsr #12
.LVL1801:
	and	r5, r5, #15
.LVL1802:
	.loc 3 5538 0
	cmp	r5, #15
	.loc 3 5536 0
	str	r0, [r4, r5, asl #2]
	.loc 3 5538 0
	.loc 3 5539 0
	ldreq	r3, [r4, #60]
	biceq	r3, r3, #3
	.loc 3 5541 0
	addeq	r3, r3, #4
	streq	r3, [r4, #60]
	b	.L152
.LVL1803:
.L315:
.LBE2136:
.LBB2137:
	.loc 3 5498 0
	mov	r2, r5, lsr #7
.LVL1804:
	.loc 3 5500 0
	ands	r2, r2, #31
.LVL1805:
	beq	.L493
	.loc 3 5501 0
	and	r1, r5, #15
	ldr	r1, [r4, r1, asl #2]
	mov	r2, r1, asr r2
.LVL1806:
.L494:
	.loc 3 5507 0
	and	r3, r3, #15
	.loc 3 5508 0
	ldr	r0, [r4, r3, asl #2]
	.loc 3 5506 0
	mov	r5, r5, lsr #12
.LVL1807:
	.loc 3 5509 0
	add	r0, r2, r0
	bl	_ZL17CPUReadByterealpuj
.LVL1808:
	.loc 3 5506 0
	and	r5, r5, #15
.LVL1809:
	.loc 3 5511 0
	cmp	r5, #15
	.loc 3 5509 0
	str	r0, [r4, r5, asl #2]
	.loc 3 5511 0
	.loc 3 5512 0
	ldreq	r3, [r4, #60]
	biceq	r3, r3, #3
	.loc 3 5514 0
	addeq	r3, r3, #4
	streq	r3, [r4, #60]
	b	.L152
.LVL1810:
.L288:
.LBE2137:
.LBB2138:
	.loc 3 4860 0
	and	r1, r5, #15
	ldr	r0, [r4, r1, asl #2]
	.loc 3 4859 0
	mov	r2, r5, lsr #7
.LVL1811:
	.loc 3 4861 0
	ands	r2, r2, #31
.LVL1812:
	.loc 3 4862 0
	movne	r2, r0, ror r2
.LVL1813:
	.loc 3 4864 0
	ldreq	r2, .L5457+16
.LVL1814:
	ldreqb	r2, [r2, #0]	@ zero_extendqisi2
	moveq	r2, r2, asl #31
	orreq	r2, r2, r0, lsr #1
.LVL1815:
.L449:
	.loc 3 4867 0
	and	r3, r3, #15
.LVL1816:
	.loc 3 4868 0
	ldr	r0, [r4, r3, asl #2]
	.loc 3 4866 0
	mov	r5, r5, lsr #12
.LVL1817:
	.loc 3 4868 0
	rsb	r0, r2, r0
.LVL1818:
	b	.L4868
.LVL1819:
.L317:
.LBE2138:
.LBB2139:
	.loc 3 4945 0
	and	r2, r5, #15
	.loc 3 4947 0
	and	r3, r3, #15
.LVL1820:
	.loc 3 4945 0
	ldr	r0, [r4, r2, asl #2]
	mov	r1, r5, lsr #7
	.loc 3 4948 0
	ldr	r2, [r4, r3, asl #2]
	.loc 3 4945 0
	and	r1, r1, #31
	.loc 3 4948 0
	add	r0, r2, r0, asl r1
.LVL1821:
	b	.L4867
.LVL1822:
.L314:
.LBE2139:
.LBB2140:
	.loc 3 5476 0
	mov	r2, r5, lsr #7
.LVL1823:
	.loc 3 5477 0
	ands	r2, r2, #31
.LVL1824:
	andne	r1, r5, #15
	ldrne	r1, [r4, r1, asl #2]
	.loc 3 5479 0
	and	r3, r3, #15
	.loc 3 5477 0
	movne	r2, r1, lsr r2
.LVL1825:
	.loc 3 5480 0
	ldr	r0, [r4, r3, asl #2]
	.loc 3 5478 0
	mov	r5, r5, lsr #12
.LVL1826:
	.loc 3 5481 0
	add	r0, r2, r0
	bl	_ZL17CPUReadByterealpuj
.LVL1827:
	.loc 3 5478 0
	and	r5, r5, #15
.LVL1828:
	.loc 3 5483 0
	cmp	r5, #15
	.loc 3 5481 0
	str	r0, [r4, r5, asl #2]
	.loc 3 5483 0
	.loc 3 5484 0
	ldreq	r3, [r4, #60]
	biceq	r3, r3, #3
	.loc 3 5486 0
	addeq	r3, r3, #4
	streq	r3, [r4, #60]
	b	.L152
.LVL1829:
.L313:
.LBE2140:
.LBB2141:
	.loc 3 5455 0
	and	r2, r5, #15
	.loc 3 5457 0
	and	r3, r3, #15
	.loc 3 5455 0
	ldr	r0, [r4, r2, asl #2]
	.loc 3 5458 0
	ldr	r3, [r4, r3, asl #2]
	.loc 3 5455 0
	mov	r2, r5, lsr #7
	and	r2, r2, #31
	.loc 3 5459 0
	add	r0, r3, r0, asl r2
	bl	_ZL17CPUReadByterealpuj
.LVL1830:
	.loc 3 5456 0
	mov	r5, r5, lsr #12
.LVL1831:
.LBE2141:
	and	r5, r5, #15
.LVL1832:
.LBB2142:
	.loc 3 5461 0
	cmp	r5, #15
	.loc 3 5459 0
	str	r0, [r4, r5, asl #2]
	.loc 3 5461 0
	.loc 3 5462 0
	ldreq	r3, [r4, #60]
	biceq	r3, r3, #3
	.loc 3 5464 0
	addeq	r3, r3, #4
	streq	r3, [r4, #60]
	b	.L152
.LVL1833:
.L308:
.LBE2142:
.LBB2143:
	.loc 3 5660 0
	and	r1, r5, #15
	ldr	r7, [r4, r1, asl #2]
	.loc 3 5659 0
	mov	r2, r5, lsr #7
.LVL1834:
	.loc 3 5661 0
	ands	r2, r2, #31
.LVL1835:
	.loc 3 5662 0
	movne	r2, r7, ror r2
.LVL1836:
	.loc 3 5664 0
	ldreq	r2, .L5457+16
.LVL1837:
	.loc 3 5667 0
	and	r6, r3, #15
	.loc 3 5664 0
	ldreqb	r2, [r2, #0]	@ zero_extendqisi2
	.loc 3 5666 0
	mov	r5, r5, lsr #12
.LVL1838:
	.loc 3 5664 0
	moveq	r2, r2, asl #31
	orreq	r2, r2, r7, lsr #1
.LVL1839:
	.loc 3 5668 0
	ldr	r7, [r4, r6, asl #2]
	.loc 3 5666 0
	and	r5, r5, #15
.LVL1840:
	.loc 3 5668 0
	add	r7, r2, r7
.LVL1841:
	.loc 3 5669 0
	mov	r0, r7
	bl	_ZL19CPUReadMemoryrealpuj
.LVL1842:
	.loc 3 5670 0
	cmp	r5, r6
	.loc 3 5669 0
	str	r0, [r4, r5, asl #2]
	.loc 3 5671 0
	strne	r7, [r4, r6, asl #2]
	.loc 3 5673 0
	cmp	r5, #15
	.loc 3 5674 0
	ldreq	r3, [r4, #60]
	biceq	r3, r3, #3
	.loc 3 5676 0
	addeq	r3, r3, #4
	streq	r3, [r4, #60]
	b	.L152
.LVL1843:
.L307:
.LBE2143:
.LBB2144:
	.loc 3 6210 0
	mov	r2, r5, lsr #7
.LVL1844:
	.loc 3 6212 0
	ands	r2, r2, #31
.LVL1845:
	beq	.L545
	.loc 3 6213 0
	and	r1, r5, #15
	ldr	r1, [r4, r1, asl #2]
	mov	r2, r1, asr r2
.LVL1846:
.L546:
	.loc 3 6219 0
	and	r6, r3, #15
	.loc 3 6220 0
	ldr	r7, [r4, r6, asl #2]
	.loc 3 6218 0
	mov	r5, r5, lsr #12
.LVL1847:
	.loc 3 6220 0
	add	r7, r2, r7
	.loc 3 6221 0
	mov	r0, r7
	bl	_ZL19CPUReadMemoryrealpuj
.LVL1848:
	.loc 3 6218 0
	and	r5, r5, #15
.LVL1849:
	.loc 3 6222 0
	cmp	r5, r6
	.loc 3 6221 0
	str	r0, [r4, r5, asl #2]
	.loc 3 6223 0
	strne	r7, [r4, r6, asl #2]
	.loc 3 6225 0
	cmp	r5, #15
	.loc 3 6226 0
	ldreq	r3, [r4, #60]
	biceq	r3, r3, #3
	.loc 3 6228 0
	addeq	r3, r3, #4
	streq	r3, [r4, #60]
	b	.L152
.LVL1850:
.L306:
.LBE2144:
.LBB2145:
	.loc 3 6188 0
	mov	r2, r5, lsr #7
.LVL1851:
	.loc 3 6189 0
	ands	r2, r2, #31
.LVL1852:
	andne	r1, r5, #15
	ldrne	r1, [r4, r1, asl #2]
	.loc 3 6191 0
	and	r6, r3, #15
	.loc 3 6189 0
	movne	r2, r1, lsr r2
.LVL1853:
	.loc 3 6192 0
	ldr	r7, [r4, r6, asl #2]
	.loc 3 6190 0
	mov	r5, r5, lsr #12
.LVL1854:
	.loc 3 6192 0
	add	r7, r2, r7
	.loc 3 6193 0
	mov	r0, r7
	bl	_ZL19CPUReadMemoryrealpuj
.LVL1855:
	.loc 3 6190 0
	and	r5, r5, #15
.LVL1856:
	.loc 3 6194 0
	cmp	r5, r6
	.loc 3 6193 0
	str	r0, [r4, r5, asl #2]
	.loc 3 6195 0
	strne	r7, [r4, r6, asl #2]
	.loc 3 6197 0
	cmp	r5, #15
	.loc 3 6198 0
	ldreq	r3, [r4, #60]
	biceq	r3, r3, #3
	.loc 3 6200 0
	addeq	r3, r3, #4
	streq	r3, [r4, #60]
	b	.L152
.LVL1857:
.L305:
.LBE2145:
.LBB2146:
	.loc 3 6169 0
	and	r6, r3, #15
	.loc 3 6167 0
	and	r3, r5, #15
	ldr	r7, [r4, r3, asl #2]
	mov	r2, r5, lsr #7
	.loc 3 6170 0
	ldr	r3, [r4, r6, asl #2]
	.loc 3 6167 0
	and	r2, r2, #31
	.loc 3 6170 0
	add	r7, r3, r7, asl r2
	.loc 3 6171 0
	mov	r0, r7
	bl	_ZL19CPUReadMemoryrealpuj
.LVL1858:
	.loc 3 6168 0
	mov	r5, r5, lsr #12
.LVL1859:
.LBE2146:
	and	r5, r5, #15
.LVL1860:
.LBB2147:
	.loc 3 6172 0
	cmp	r5, r6
	.loc 3 6171 0
	str	r0, [r4, r5, asl #2]
	.loc 3 6173 0
	strne	r7, [r4, r6, asl #2]
	.loc 3 6175 0
	cmp	r5, #15
	.loc 3 6176 0
	ldreq	r3, [r4, #60]
	biceq	r3, r3, #3
	.loc 3 6178 0
	addeq	r3, r3, #4
	streq	r3, [r4, #60]
	b	.L152
.LVL1861:
.L309:
.LBE2147:
.LBB2148:
	.loc 3 4879 0
	and	r2, r5, #15
	.loc 3 4881 0
	and	r3, r3, #15
.LVL1862:
	.loc 3 4879 0
	ldr	r0, [r4, r2, asl #2]
	mov	r1, r5, lsr #7
	.loc 3 4882 0
	ldr	r2, [r4, r3, asl #2]
	.loc 3 4879 0
	and	r1, r1, #31
	.loc 3 4883 0
	add	r0, r2, r0, asl r1
	.loc 3 4880 0
	mov	r3, r5, lsr #12
.LVL1863:
	and	r3, r3, #15
.LVL1864:
	.loc 3 4883 0
	ldrb	r1, [r4, r3, asl #2]	@ zero_extendqisi2
.LBE2148:
.LBE2298:
.LBE2317:
.LBE2336:
	.loc 3 8619 0
	add	sp, sp, #12
	ldmfd	sp!, {r4, r5, r6, r7, r8, r9, sl, fp, lr}
.LBB2337:
.LBB2318:
.LBB2299:
.LBB2149:
	.loc 3 4883 0
	b	_ZL14CPUWriteBytepujh
.LVL1865:
.L297:
.LBE2149:
.LBB2150:
	.loc 3 6077 0
	and	r2, r5, #15
	.loc 3 6079 0
	and	r3, r3, #15
	.loc 3 6077 0
	ldr	r0, [r4, r2, asl #2]
	.loc 3 6080 0
	ldr	r3, [r4, r3, asl #2]
	.loc 3 6077 0
	mov	r2, r5, lsr #7
	and	r2, r2, #31
	.loc 3 6081 0
	add	r0, r3, r0, asl r2
	bl	_ZL19CPUReadMemoryrealpuj
.LVL1866:
	.loc 3 6078 0
	mov	r5, r5, lsr #12
.LVL1867:
.LBE2150:
	and	r5, r5, #15
.LVL1868:
.LBB2151:
	.loc 3 6083 0
	cmp	r5, #15
	.loc 3 6081 0
	str	r0, [r4, r5, asl #2]
	.loc 3 6083 0
	.loc 3 6084 0
	ldreq	r3, [r4, #60]
	biceq	r3, r3, #3
	.loc 3 6086 0
	addeq	r3, r3, #4
	streq	r3, [r4, #60]
	b	.L152
.LVL1869:
.L292:
.LBE2151:
.LBB2152:
	.loc 3 5427 0
	and	r1, r5, #15
	ldr	r7, [r4, r1, asl #2]
	.loc 3 5426 0
	mov	r2, r5, lsr #7
.LVL1870:
	.loc 3 5428 0
	ands	r2, r2, #31
.LVL1871:
	.loc 3 5429 0
	movne	r2, r7, ror r2
.LVL1872:
	.loc 3 5431 0
	ldreq	r2, .L5457+16
.LVL1873:
	.loc 3 5434 0
	and	r6, r3, #15
	.loc 3 5431 0
	ldreqb	r2, [r2, #0]	@ zero_extendqisi2
	.loc 3 5433 0
	mov	r5, r5, lsr #12
.LVL1874:
	.loc 3 5431 0
	moveq	r2, r2, asl #31
	orreq	r2, r2, r7, lsr #1
.LVL1875:
	.loc 3 5435 0
	ldr	r7, [r4, r6, asl #2]
	.loc 3 5433 0
	and	r5, r5, #15
.LVL1876:
	.loc 3 5435 0
	rsb	r7, r2, r7
.LVL1877:
	.loc 3 5436 0
	mov	r0, r7
	bl	_ZL17CPUReadByterealpuj
.LVL1878:
	.loc 3 5437 0
	cmp	r5, r6
	.loc 3 5436 0
	str	r0, [r4, r5, asl #2]
	.loc 3 5438 0
	strne	r7, [r4, r6, asl #2]
	.loc 3 5440 0
	cmp	r5, #15
	.loc 3 5441 0
	ldreq	r3, [r4, #60]
	biceq	r3, r3, #3
	.loc 3 5443 0
	addeq	r3, r3, #4
	streq	r3, [r4, #60]
	b	.L152
.LVL1879:
.L291:
.LBE2152:
.LBB2153:
	.loc 3 5396 0
	mov	r2, r5, lsr #7
.LVL1880:
	.loc 3 5398 0
	ands	r2, r2, #31
.LVL1881:
	beq	.L486
	.loc 3 5399 0
	and	r1, r5, #15
	ldr	r1, [r4, r1, asl #2]
	mov	r2, r1, asr r2
.LVL1882:
.L487:
	.loc 3 5405 0
	and	r6, r3, #15
	.loc 3 5406 0
	ldr	r7, [r4, r6, asl #2]
	.loc 3 5404 0
	mov	r5, r5, lsr #12
.LVL1883:
	.loc 3 5406 0
	rsb	r7, r2, r7
	.loc 3 5407 0
	mov	r0, r7
	bl	_ZL17CPUReadByterealpuj
.LVL1884:
	.loc 3 5404 0
	and	r5, r5, #15
.LVL1885:
	.loc 3 5408 0
	cmp	r5, r6
	.loc 3 5407 0
	str	r0, [r4, r5, asl #2]
	.loc 3 5409 0
	strne	r7, [r4, r6, asl #2]
	.loc 3 5411 0
	cmp	r5, #15
	.loc 3 5412 0
	ldreq	r3, [r4, #60]
	biceq	r3, r3, #3
	.loc 3 5414 0
	addeq	r3, r3, #4
	streq	r3, [r4, #60]
	b	.L152
.LVL1886:
.L290:
.LBE2153:
.LBB2154:
	.loc 3 5372 0
	mov	r2, r5, lsr #7
.LVL1887:
	.loc 3 5373 0
	ands	r2, r2, #31
.LVL1888:
	andne	r1, r5, #15
	ldrne	r1, [r4, r1, asl #2]
	.loc 3 5375 0
	and	r6, r3, #15
	.loc 3 5373 0
	movne	r2, r1, lsr r2
.LVL1889:
	.loc 3 5376 0
	ldr	r7, [r4, r6, asl #2]
	.loc 3 5374 0
	mov	r5, r5, lsr #12
.LVL1890:
	.loc 3 5376 0
	rsb	r7, r2, r7
	.loc 3 5377 0
	mov	r0, r7
	bl	_ZL17CPUReadByterealpuj
.LVL1891:
	.loc 3 5374 0
	and	r5, r5, #15
.LVL1892:
	.loc 3 5378 0
	cmp	r5, r6
	.loc 3 5377 0
	str	r0, [r4, r5, asl #2]
	.loc 3 5379 0
	strne	r7, [r4, r6, asl #2]
	.loc 3 5381 0
	cmp	r5, #15
	.loc 3 5382 0
	ldreq	r3, [r4, #60]
	biceq	r3, r3, #3
	.loc 3 5384 0
	addeq	r3, r3, #4
	streq	r3, [r4, #60]
	b	.L152
.LVL1893:
.L289:
.LBE2154:
.LBB2155:
	.loc 3 5351 0
	and	r6, r3, #15
	.loc 3 5349 0
	and	r3, r5, #15
	ldr	r2, [r4, r3, asl #2]
	.loc 3 5352 0
	ldr	r7, [r4, r6, asl #2]
	.loc 3 5349 0
	mov	r3, r5, lsr #7
	and	r3, r3, #31
	.loc 3 5352 0
	sub	r7, r7, r2, asl r3
	.loc 3 5353 0
	mov	r0, r7
	bl	_ZL17CPUReadByterealpuj
.LVL1894:
	.loc 3 5350 0
	mov	r5, r5, lsr #12
.LVL1895:
.LBE2155:
	and	r5, r5, #15
.LVL1896:
.LBB2156:
	.loc 3 5354 0
	cmp	r5, r6
	.loc 3 5353 0
	str	r0, [r4, r5, asl #2]
	.loc 3 5355 0
	strne	r7, [r4, r6, asl #2]
	.loc 3 5357 0
	cmp	r5, #15
	.loc 3 5358 0
	ldreq	r3, [r4, #60]
	biceq	r3, r3, #3
	.loc 3 5360 0
	addeq	r3, r3, #4
	streq	r3, [r4, #60]
	b	.L152
.LVL1897:
.L293:
.LBE2156:
.LBB2157:
	.loc 3 6707 0
	and	r1, r5, #15
	.loc 3 6709 0
	and	r3, r3, #15
.LVL1898:
	.loc 3 6710 0
	ldr	r3, [r4, r3, asl #2]
.LVL1899:
	.loc 3 6707 0
	ldr	r0, [r4, r1, asl #2]
	mov	r2, r5, lsr #7
	and	r2, r2, #31
	.loc 3 6710 0
	add	r0, r3, r0, asl r2
.LVL1900:
	.loc 3 6708 0
	mov	r2, r5, lsr #12
.LBB2158:
.LBB2159:
	.loc 1 533 0
	mov	r3, r0, lsr #24
.LBE2159:
.LBE2158:
	.loc 3 6708 0
	and	r2, r2, #15
.LVL1901:
.LBB2164:
.LBB2160:
	.loc 1 533 0
	cmp	r3, #13
.LBE2160:
.LBE2164:
	.loc 3 6711 0
	ldr	r4, [r4, r2, asl #2]
.LVL1902:
.LBB2165:
.LBB2161:
	.loc 1 533 0
	beq	.L668
	cmp	r3, #14
	bne	.L4929
.LBE2161:
	.loc 1 596 0
	ldr	r3, .L5457
	ldrb	r1, [r3, #0]	@ zero_extendqisi2
	ldr	r3, .L5457+4
	ldrb	r2, [r3, #0]	@ zero_extendqisi2
.LVL1903:
.LBB2162:
	ldr	r3, .L5457+8
.LBE2162:
	orr	r2, r1, r2
.LBB2163:
	ldrb	r3, [r3, #0]	@ zero_extendqisi2
	eor	r3, r3, #1
	orrs	r3, r2, r3
	beq	.L152
	.loc 1 597 0
	ldr	r3, .L5457+36
	and	r1, r4, #255
	ldr	r3, [r3, #0]
	blx	r3
.LVL1904:
	b	.L152
.LVL1905:
.L284:
.LBE2163:
.LBE2165:
.LBE2157:
.LBB2166:
	.loc 3 5322 0
	mov	r2, r5, lsr #7
.LVL1906:
	.loc 3 5323 0
	and	r0, r5, #15
	.loc 3 5324 0
	ands	r1, r2, #31
.LVL1907:
	.loc 3 5323 0
	ldr	r2, [r4, r0, asl #2]
.LVL1908:
	.loc 3 5327 0
	ldreq	r1, .L5457+16
.LVL1909:
	.loc 3 5325 0
	movne	r2, r2, ror r1
.LVL1910:
	.loc 3 5327 0
	ldreqb	r1, [r1, #0]	@ zero_extendqisi2
	.loc 3 5330 0
	and	r3, r3, #15
	.loc 3 5327 0
	moveq	r1, r1, asl #31
	.loc 3 5331 0
	ldr	r0, [r4, r3, asl #2]
	.loc 3 5327 0
	orreq	r2, r1, r2, lsr #1
.LVL1911:
	.loc 3 5332 0
	rsb	r0, r2, r0
	bl	_ZL17CPUReadByterealpuj
.LVL1912:
	.loc 3 5329 0
	mov	r5, r5, lsr #12
.LVL1913:
	and	r5, r5, #15
.LVL1914:
	.loc 3 5334 0
	cmp	r5, #15
	.loc 3 5332 0
	str	r0, [r4, r5, asl #2]
	.loc 3 5334 0
	.loc 3 5335 0
	ldreq	r3, [r4, #60]
	biceq	r3, r3, #3
	.loc 3 5337 0
	addeq	r3, r3, #4
	streq	r3, [r4, #60]
	b	.L152
.LVL1915:
.L283:
.LBE2166:
.LBB2167:
	.loc 3 5294 0
	mov	r2, r5, lsr #7
.LVL1916:
	.loc 3 5296 0
	ands	r2, r2, #31
.LVL1917:
	beq	.L479
	.loc 3 5297 0
	and	r1, r5, #15
	ldr	r1, [r4, r1, asl #2]
	mov	r2, r1, asr r2
.LVL1918:
.L480:
	.loc 3 5303 0
	and	r3, r3, #15
	.loc 3 5304 0
	ldr	r0, [r4, r3, asl #2]
	.loc 3 5302 0
	mov	r5, r5, lsr #12
.LVL1919:
	.loc 3 5305 0
	rsb	r0, r2, r0
	bl	_ZL17CPUReadByterealpuj
.LVL1920:
	.loc 3 5302 0
	and	r5, r5, #15
.LVL1921:
	.loc 3 5307 0
	cmp	r5, #15
	.loc 3 5305 0
	str	r0, [r4, r5, asl #2]
	.loc 3 5307 0
	.loc 3 5308 0
	ldreq	r3, [r4, #60]
	biceq	r3, r3, #3
	.loc 3 5310 0
	addeq	r3, r3, #4
	streq	r3, [r4, #60]
	b	.L152
.LVL1922:
.L282:
.LBE2167:
.LBB2168:
	.loc 3 5272 0
	mov	r2, r5, lsr #7
.LVL1923:
	.loc 3 5273 0
	ands	r2, r2, #31
.LVL1924:
	andne	r1, r5, #15
	ldrne	r1, [r4, r1, asl #2]
	.loc 3 5275 0
	and	r3, r3, #15
	.loc 3 5273 0
	movne	r2, r1, lsr r2
.LVL1925:
	.loc 3 5276 0
	ldr	r0, [r4, r3, asl #2]
	.loc 3 5274 0
	mov	r5, r5, lsr #12
.LVL1926:
	.loc 3 5277 0
	rsb	r0, r2, r0
	bl	_ZL17CPUReadByterealpuj
.LVL1927:
	.loc 3 5274 0
	and	r5, r5, #15
.LVL1928:
	.loc 3 5279 0
	cmp	r5, #15
	.loc 3 5277 0
	str	r0, [r4, r5, asl #2]
	.loc 3 5279 0
	.loc 3 5280 0
	ldreq	r3, [r4, #60]
	biceq	r3, r3, #3
	.loc 3 5282 0
	addeq	r3, r3, #4
	streq	r3, [r4, #60]
	b	.L152
.LVL1929:
.L281:
.LBE2168:
.LBB2169:
	.loc 3 5253 0
	and	r3, r3, #15
	.loc 3 5251 0
	and	r2, r5, #15
	.loc 3 5254 0
	ldr	r0, [r4, r3, asl #2]
	.loc 3 5251 0
	ldr	r2, [r4, r2, asl #2]
	mov	r3, r5, lsr #7
	and	r3, r3, #31
	.loc 3 5255 0
	sub	r0, r0, r2, asl r3
	bl	_ZL17CPUReadByterealpuj
.LVL1930:
	.loc 3 5252 0
	mov	r5, r5, lsr #12
.LVL1931:
.LBE2169:
	and	r5, r5, #15
.LVL1932:
.LBB2170:
	.loc 3 5257 0
	cmp	r5, #15
	.loc 3 5255 0
	str	r0, [r4, r5, asl #2]
	.loc 3 5257 0
	.loc 3 5258 0
	ldreq	r3, [r4, #60]
	biceq	r3, r3, #3
	.loc 3 5260 0
	addeq	r3, r3, #4
	streq	r3, [r4, #60]
	b	.L152
.LVL1933:
.L286:
.LBE2170:
.LBB2171:
	.loc 3 4821 0
	mov	r2, r5, lsr #7
.LVL1934:
	.loc 3 4822 0
	ands	r2, r2, #31
.LVL1935:
	.loc 3 4822 0 is_stmt 0 discriminator 1
	andne	r1, r5, #15
	ldrne	r1, [r4, r1, asl #2]
	movne	r2, r1, lsr r2
.LVL1936:
	b	.L449
.LVL1937:
.L285:
.LBE2171:
.LBB2172:
	.loc 3 4807 0 is_stmt 1
	and	r2, r5, #15
	.loc 3 4809 0
	and	r3, r3, #15
.LVL1938:
	.loc 3 4807 0
	ldr	r1, [r4, r2, asl #2]
	.loc 3 4810 0
	ldr	r0, [r4, r3, asl #2]
	.loc 3 4807 0
	mov	r2, r5, lsr #7
	and	r2, r2, #31
	.loc 3 4810 0
	sub	r0, r0, r1, asl r2
.LVL1939:
	b	.L4867
.LVL1940:
.L287:
.LBE2172:
.LBB2173:
	.loc 3 4836 0
	mov	r2, r5, lsr #7
.LVL1941:
	.loc 3 4838 0
	ands	r2, r2, #31
.LVL1942:
	beq	.L446
	.loc 3 4839 0
	and	r1, r5, #15
	ldr	r1, [r4, r1, asl #2]
	mov	r2, r1, asr r2
.LVL1943:
	b	.L449
.LVL1944:
.L263:
.LBE2173:
.LBB2174:
	.loc 3 6598 0
	mov	r2, r5, lsr #7
.LVL1945:
	.loc 3 6600 0
	ands	r2, r2, #31
.LVL1946:
	beq	.L609
	.loc 3 6601 0
	and	r1, r5, #15
	ldr	r1, [r4, r1, asl #2]
	mov	r2, r1, asr r2
.LVL1947:
.L610:
	.loc 3 6607 0
	and	r3, r3, #15
.LVL1948:
	.loc 3 6608 0
	ldr	r0, [r4, r3, asl #2]
	.loc 3 6606 0
	mov	r5, r5, lsr #12
.LVL1949:
	.loc 3 6608 0
	rsb	r0, r2, r0
.LVL1950:
.LBB2175:
.LBB2176:
	.loc 1 533 0
	mov	r3, r0, lsr #24
.LVL1951:
.LBE2176:
.LBE2175:
	.loc 3 6606 0
	and	r2, r5, #15
.LVL1952:
.LBB2181:
.LBB2177:
	.loc 1 533 0
	cmp	r3, #13
.LBE2177:
.LBE2181:
	.loc 3 6609 0
	ldr	r4, [r4, r2, asl #2]
.LVL1953:
.LBB2182:
.LBB2178:
	.loc 1 533 0
	beq	.L668
	cmp	r3, #14
	bne	.L4929
.LBE2178:
	.loc 1 596 0
	ldr	r3, .L5457
	ldrb	r1, [r3, #0]	@ zero_extendqisi2
	ldr	r3, .L5457+4
	ldrb	r2, [r3, #0]	@ zero_extendqisi2
.LVL1954:
.LBB2179:
	ldr	r3, .L5457+8
.LBE2179:
	orr	r2, r1, r2
.LBB2180:
	ldrb	r3, [r3, #0]	@ zero_extendqisi2
	eor	r3, r3, #1
	orrs	r3, r2, r3
	beq	.L152
	.loc 1 597 0
	ldr	r3, .L5457+36
	and	r1, r4, #255
	ldr	r3, [r3, #0]
	blx	r3
.LVL1955:
	b	.L152
.LVL1956:
.L257:
.LBE2180:
.LBE2182:
.LBE2174:
.LBB2183:
	.loc 3 5138 0
	and	r6, r3, #15
	.loc 3 5136 0
	and	r3, r5, #15
	.loc 3 5139 0
	ldr	r7, [r4, r6, asl #2]
	.loc 3 5136 0
	ldr	r8, [r4, r3, asl #2]
	mov	r3, r5, lsr #7
	and	r3, r3, #31
	.loc 3 5140 0
	mov	r0, r7
	.loc 3 5136 0
	mov	r8, r8, asl r3
.LVL1957:
	.loc 3 5140 0
	bl	_ZL17CPUReadByterealpuj
.LVL1958:
	.loc 3 5137 0
	mov	r5, r5, lsr #12
.LVL1959:
	and	r5, r5, #15
.LVL1960:
	.loc 3 5141 0
	cmp	r5, r6
	.loc 3 5142 0
	addne	r7, r8, r7
.LVL1961:
	.loc 3 5140 0
	str	r0, [r4, r5, asl #2]
	.loc 3 5142 0
	strne	r7, [r4, r6, asl #2]
	.loc 3 5144 0
	cmp	r5, #15
	.loc 3 5145 0
	ldreq	r3, [r4, #60]
	biceq	r3, r3, #3
	.loc 3 5147 0
	addeq	r3, r3, #4
	streq	r3, [r4, #60]
	b	.L152
.LVL1962:
.L479:
.LBE2183:
.LBB2184:
	.loc 3 5298 0
	and	r2, r5, #15
.LVL1963:
	ldr	r2, [r4, r2, asl #2]
	.loc 3 5299 0
	cmp	r2, #0
	movge	r2, #0
	mvnlt	r2, #0
	b	.L480
.LVL1964:
.L493:
.LBE2184:
.LBB2185:
	.loc 3 5502 0
	and	r2, r5, #15
.LVL1965:
	ldr	r2, [r4, r2, asl #2]
	.loc 3 5503 0
	cmp	r2, #0
	movge	r2, #0
	mvnlt	r2, #0
	b	.L494
.LVL1966:
.L486:
.LBE2185:
.LBB2186:
	.loc 3 5400 0
	and	r2, r5, #15
.LVL1967:
	ldr	r2, [r4, r2, asl #2]
	.loc 3 5401 0
	cmp	r2, #0
	movge	r2, #0
	mvnlt	r2, #0
	b	.L487
.LVL1968:
.L643:
.LBE2186:
.LBB2187:
	.loc 3 6738 0
	and	r2, r5, #15
.LVL1969:
	ldr	r2, [r4, r2, asl #2]
	.loc 3 6739 0
	cmp	r2, #0
	movge	r2, #0
	mvnlt	r2, #0
	b	.L644
.LVL1970:
.L441:
.LBE2187:
.LBB2188:
	.loc 3 4772 0
	and	r2, r5, #15
.LVL1971:
	ldr	r2, [r4, r2, asl #2]
	.loc 3 4773 0
	cmp	r2, #0
	movge	r2, #0
	mvnlt	r2, #0
	b	.L444
.LVL1972:
.L531:
.LBE2188:
.LBB2189:
	.loc 3 6026 0
	and	r2, r5, #15
.LVL1973:
	ldr	r2, [r4, r2, asl #2]
	.loc 3 6027 0
	cmp	r2, #0
	movge	r2, #0
	mvnlt	r2, #0
	b	.L532
.LVL1974:
.L5312:
.LBE2189:
.LBB2190:
	.loc 3 7384 0 discriminator 1
	mov	r0, r6
	ldr	r1, [r4, #20]
	bl	_ZL16CPUWriteMemorypujj
.LVL1975:
	add	r6, r6, #4
.LVL1976:
	b	.L1264
.L5311:
	.loc 3 7383 0 discriminator 1
	mov	r0, r6
	ldr	r1, [r4, #16]
	bl	_ZL16CPUWriteMemorypujj
.LVL1977:
	add	r6, r6, #4
.LVL1978:
	b	.L1263
.L5310:
	.loc 3 7382 0 discriminator 1
	mov	r0, r6
	ldr	r1, [r4, #12]
	bl	_ZL16CPUWriteMemorypujj
.LVL1979:
	add	r6, r6, #4
.LVL1980:
	b	.L1262
.L5309:
	.loc 3 7381 0 discriminator 1
	mov	r0, r6
	ldr	r1, [r4, #8]
	bl	_ZL16CPUWriteMemorypujj
.LVL1981:
	add	r6, r6, #4
.LVL1982:
	b	.L1261
.L5308:
	.loc 3 7380 0 discriminator 1
	mov	r0, r6
	ldr	r1, [r4, #4]
	bl	_ZL16CPUWriteMemorypujj
.LVL1983:
	add	r6, r6, #4
.LVL1984:
	b	.L1260
.LVL1985:
.L5307:
	.loc 3 7379 0 discriminator 1
	mov	r0, r6
	ldr	r1, [r4, #0]
	bl	_ZL16CPUWriteMemorypujj
.LVL1986:
	add	r6, r6, #4
.LVL1987:
	b	.L1259
.LVL1988:
.L5126:
.LBE2190:
.LBB2191:
	.loc 3 7424 0 discriminator 1
	mov	r0, r6
	ldr	r1, [r4, #52]
	bl	_ZL16CPUWriteMemorypujj
.LVL1989:
	cmp	r7, #0
	streq	sl, [r4, r8, asl #2]
.LVL1990:
	add	r6, r6, #4
.LVL1991:
	mov	r7, #1
	b	.L1299
.LVL1992:
.L5125:
	.loc 3 7423 0 discriminator 1
	mov	r0, r6
	ldr	r1, [r4, #48]
	bl	_ZL16CPUWriteMemorypujj
.LVL1993:
	cmp	r7, #0
	streq	sl, [r4, r8, asl #2]
.LVL1994:
	add	r6, r6, #4
.LVL1995:
	mov	r7, #1
	b	.L1297
.LVL1996:
.L5306:
.LBE2191:
.LBB2192:
	.loc 3 7759 0
	mov	r0, r6
	bl	_ZL19CPUReadMemoryrealpuj
.LVL1997:
	.loc 3 7762 0
	add	r0, r0, #4
	str	r0, [r4, #60]
	b	.L1530
.L5305:
	.loc 3 7757 0 discriminator 1
	mov	r0, r6
	bl	_ZL19CPUReadMemoryrealpuj
.LVL1998:
	add	r6, r6, #4
.LVL1999:
	str	r0, [r4, #56]
	b	.L1529
.L5304:
	.loc 3 7756 0 discriminator 1
	mov	r0, r6
	bl	_ZL19CPUReadMemoryrealpuj
.LVL2000:
	add	r6, r6, #4
.LVL2001:
	str	r0, [r4, #52]
.LVL2002:
	b	.L1528
.L5303:
	.loc 3 7755 0 discriminator 1
	mov	r0, r6
	bl	_ZL19CPUReadMemoryrealpuj
.LVL2003:
	add	r6, r6, #4
.LVL2004:
	str	r0, [r4, #48]
.LVL2005:
	b	.L1527
.L5302:
	.loc 3 7754 0 discriminator 1
	mov	r0, r6
	bl	_ZL19CPUReadMemoryrealpuj
.LVL2006:
	add	r6, r6, #4
.LVL2007:
	str	r0, [r4, #44]
.LVL2008:
	b	.L1526
.L5301:
	.loc 3 7753 0 discriminator 1
	mov	r0, r6
	bl	_ZL19CPUReadMemoryrealpuj
.LVL2009:
	add	r6, r6, #4
.LVL2010:
	str	r0, [r4, #40]
.LVL2011:
	b	.L1525
.L5300:
	.loc 3 7752 0 discriminator 1
	mov	r0, r6
	bl	_ZL19CPUReadMemoryrealpuj
.LVL2012:
	add	r6, r6, #4
.LVL2013:
	str	r0, [r4, #36]
.LVL2014:
	b	.L1524
.L5299:
	.loc 3 7751 0 discriminator 1
	mov	r0, r6
	bl	_ZL19CPUReadMemoryrealpuj
.LVL2015:
	add	r6, r6, #4
.LVL2016:
	str	r0, [r4, #32]
.LVL2017:
	b	.L1523
.L5298:
	.loc 3 7750 0 discriminator 1
	mov	r0, r6
	bl	_ZL19CPUReadMemoryrealpuj
.LVL2018:
	add	r6, r6, #4
.LVL2019:
	str	r0, [r4, #28]
.LVL2020:
	b	.L1522
.L5297:
	.loc 3 7749 0 discriminator 1
	mov	r0, r6
	bl	_ZL19CPUReadMemoryrealpuj
.LVL2021:
	add	r6, r6, #4
.LVL2022:
	str	r0, [r4, #24]
.LVL2023:
	b	.L1521
.L5296:
	.loc 3 7748 0 discriminator 1
	mov	r0, r6
	bl	_ZL19CPUReadMemoryrealpuj
.LVL2024:
	add	r6, r6, #4
.LVL2025:
	str	r0, [r4, #20]
.LVL2026:
	b	.L1520
.L5295:
	.loc 3 7747 0 discriminator 1
	mov	r0, r6
	bl	_ZL19CPUReadMemoryrealpuj
.LVL2027:
	add	r6, r6, #4
.LVL2028:
	str	r0, [r4, #16]
.LVL2029:
	b	.L1519
.L5294:
	.loc 3 7746 0 discriminator 1
	mov	r0, r6
	bl	_ZL19CPUReadMemoryrealpuj
.LVL2030:
	add	r6, r6, #4
.LVL2031:
	str	r0, [r4, #12]
.LVL2032:
	b	.L1518
.L5293:
	.loc 3 7745 0 discriminator 1
	mov	r0, r6
	bl	_ZL19CPUReadMemoryrealpuj
.LVL2033:
	add	r6, r6, #4
.LVL2034:
	str	r0, [r4, #8]
.LVL2035:
	b	.L1517
.L5292:
	.loc 3 7744 0 discriminator 1
	mov	r0, r6
	bl	_ZL19CPUReadMemoryrealpuj
.LVL2036:
	add	r6, r6, #4
.LVL2037:
	str	r0, [r4, #4]
.LVL2038:
	b	.L1516
.LVL2039:
.L5291:
	.loc 3 7743 0 discriminator 1
	mov	r0, r6
	bl	_ZL19CPUReadMemoryrealpuj
.LVL2040:
	add	r6, r6, #4
.LVL2041:
	str	r0, [r4, #0]
.LVL2042:
	b	.L1515
.LVL2043:
.L463:
.LBE2192:
.LBB2193:
	.loc 3 5075 0
	and	r2, r5, #15
.LVL2044:
	ldr	r2, [r4, r2, asl #2]
	.loc 3 5076 0
	cmp	r2, #0
	movge	r7, #0
	mvnlt	r7, #0
	b	.L464
.LVL2045:
.L673:
.LBE2193:
.LBB2194:
	.loc 3 6899 0
	and	r2, r5, #15
.LVL2046:
	ldr	r2, [r4, r2, asl #2]
	.loc 3 6900 0
	cmp	r2, #0
	movge	r7, #0
	mvnlt	r7, #0
	b	.L674
.LVL2047:
.L5275:
.LBE2194:
.LBB2195:
.LBB1653:
.LBB1648:
	.loc 1 569 0
	ldr	r3, .L5457+20
	cmp	r6, r3
	bhi	.L556
.LVL2048:
.LBB1644:
